
103_mp32.elf:     file format elf32-littlearm

Sections:
Idx Name          Size      VMA       LMA       File off  Algn
  0 .isr_vector   0000010c  08000000  08000000  00010000  2**0
                  CONTENTS, ALLOC, LOAD, READONLY, DATA
  1 .text         00005664  0800010c  0800010c  0001010c  2**2
                  CONTENTS, ALLOC, LOAD, READONLY, CODE
  2 .rodata       000006bc  08005770  08005770  00015770  2**2
                  CONTENTS, ALLOC, LOAD, READONLY, DATA
  3 .init_array   00000004  08005e2c  08005e2c  00015e2c  2**2
                  CONTENTS, ALLOC, LOAD, DATA
  4 .fini_array   00000004  08005e30  08005e30  00015e30  2**2
                  CONTENTS, ALLOC, LOAD, DATA
  5 .data         00000088  20000000  08005e34  00020000  2**2
                  CONTENTS, ALLOC, LOAD, DATA
  6 .bss          000044f0  20000088  08005ebc  00020088  2**2
                  ALLOC
  7 ._user_heap_stack 00000600  20004578  08005ebc  00024578  2**0
                  ALLOC
  8 .ARM.attributes 00000029  00000000  00000000  00020088  2**0
                  CONTENTS, READONLY
  9 .debug_info   00022c0f  00000000  00000000  000200b1  2**0
                  CONTENTS, READONLY, DEBUGGING
 10 .debug_abbrev 000045e2  00000000  00000000  00042cc0  2**0
                  CONTENTS, READONLY, DEBUGGING
 11 .debug_loc    0000cd11  00000000  00000000  000472a2  2**0
                  CONTENTS, READONLY, DEBUGGING
 12 .debug_aranges 00000da0  00000000  00000000  00053fb8  2**3
                  CONTENTS, READONLY, DEBUGGING
 13 .debug_ranges 000013f0  00000000  00000000  00054d58  2**3
                  CONTENTS, READONLY, DEBUGGING
 14 .debug_line   000096ff  00000000  00000000  00056148  2**0
                  CONTENTS, READONLY, DEBUGGING
 15 .debug_str    00003cb2  00000000  00000000  0005f847  2**0
                  CONTENTS, READONLY, DEBUGGING
 16 .comment      0000007c  00000000  00000000  000634f9  2**0
                  CONTENTS, READONLY
 17 .debug_frame  00003194  00000000  00000000  00063578  2**2
                  CONTENTS, READONLY, DEBUGGING

Disassembly of section .text:

0800010c <__do_global_dtors_aux>:
 800010c:	b510      	push	{r4, lr}
 800010e:	4c05      	ldr	r4, [pc, #20]	; (8000124 <__do_global_dtors_aux+0x18>)
 8000110:	7823      	ldrb	r3, [r4, #0]
 8000112:	b933      	cbnz	r3, 8000122 <__do_global_dtors_aux+0x16>
 8000114:	4b04      	ldr	r3, [pc, #16]	; (8000128 <__do_global_dtors_aux+0x1c>)
 8000116:	b113      	cbz	r3, 800011e <__do_global_dtors_aux+0x12>
 8000118:	4804      	ldr	r0, [pc, #16]	; (800012c <__do_global_dtors_aux+0x20>)
 800011a:	f3af 8000 	nop.w
 800011e:	2301      	movs	r3, #1
 8000120:	7023      	strb	r3, [r4, #0]
 8000122:	bd10      	pop	{r4, pc}
 8000124:	20000088 	.word	0x20000088
 8000128:	00000000 	.word	0x00000000
 800012c:	08005758 	.word	0x08005758

08000130 <frame_dummy>:
 8000130:	b508      	push	{r3, lr}
 8000132:	4b03      	ldr	r3, [pc, #12]	; (8000140 <frame_dummy+0x10>)
 8000134:	b11b      	cbz	r3, 800013e <frame_dummy+0xe>
 8000136:	4903      	ldr	r1, [pc, #12]	; (8000144 <frame_dummy+0x14>)
 8000138:	4803      	ldr	r0, [pc, #12]	; (8000148 <frame_dummy+0x18>)
 800013a:	f3af 8000 	nop.w
 800013e:	bd08      	pop	{r3, pc}
 8000140:	00000000 	.word	0x00000000
 8000144:	2000008c 	.word	0x2000008c
 8000148:	08005758 	.word	0x08005758

0800014c <HAL_InitTick>:
  *       implementation  in user file.
  * @param TickPriority Tick interrupt priority.
  * @retval HAL status
  */
__weak HAL_StatusTypeDef HAL_InitTick(uint32_t TickPriority)
{
 800014c:	b538      	push	{r3, r4, r5, lr}
  /* Configure the SysTick to have interrupt in 1ms time basis*/
  if (HAL_SYSTICK_Config(SystemCoreClock / (1000U / uwTickFreq)) > 0U)
 800014e:	4b0e      	ldr	r3, [pc, #56]	; (8000188 <HAL_InitTick+0x3c>)
{
 8000150:	4605      	mov	r5, r0
  if (HAL_SYSTICK_Config(SystemCoreClock / (1000U / uwTickFreq)) > 0U)
 8000152:	7818      	ldrb	r0, [r3, #0]
 8000154:	f44f 737a 	mov.w	r3, #1000	; 0x3e8
 8000158:	fbb3 f3f0 	udiv	r3, r3, r0
 800015c:	4a0b      	ldr	r2, [pc, #44]	; (800018c <HAL_InitTick+0x40>)
 800015e:	6810      	ldr	r0, [r2, #0]
 8000160:	fbb0 f0f3 	udiv	r0, r0, r3
 8000164:	f000 f89e 	bl	80002a4 <HAL_SYSTICK_Config>
 8000168:	4604      	mov	r4, r0
 800016a:	b958      	cbnz	r0, 8000184 <HAL_InitTick+0x38>
  {
    return HAL_ERROR;
  }

  /* Configure the SysTick IRQ priority */
  if (TickPriority < (1UL << __NVIC_PRIO_BITS))
 800016c:	2d0f      	cmp	r5, #15
 800016e:	d809      	bhi.n	8000184 <HAL_InitTick+0x38>
  {
    HAL_NVIC_SetPriority(SysTick_IRQn, TickPriority, 0U);
 8000170:	4602      	mov	r2, r0
 8000172:	4629      	mov	r1, r5
 8000174:	f04f 30ff 	mov.w	r0, #4294967295
 8000178:	f000 f854 	bl	8000224 <HAL_NVIC_SetPriority>
    uwTickPrio = TickPriority;
 800017c:	4b04      	ldr	r3, [pc, #16]	; (8000190 <HAL_InitTick+0x44>)
 800017e:	4620      	mov	r0, r4
 8000180:	601d      	str	r5, [r3, #0]
 8000182:	bd38      	pop	{r3, r4, r5, pc}
    return HAL_ERROR;
 8000184:	2001      	movs	r0, #1
    return HAL_ERROR;
  }

  /* Return function status */
  return HAL_OK;
}
 8000186:	bd38      	pop	{r3, r4, r5, pc}
 8000188:	20000000 	.word	0x20000000
 800018c:	2000000c 	.word	0x2000000c
 8000190:	20000004 	.word	0x20000004

08000194 <HAL_Init>:
  __HAL_FLASH_PREFETCH_BUFFER_ENABLE();
 8000194:	4a07      	ldr	r2, [pc, #28]	; (80001b4 <HAL_Init+0x20>)
{
 8000196:	b508      	push	{r3, lr}
  __HAL_FLASH_PREFETCH_BUFFER_ENABLE();
 8000198:	6813      	ldr	r3, [r2, #0]
  HAL_NVIC_SetPriorityGrouping(NVIC_PRIORITYGROUP_4);
 800019a:	2003      	movs	r0, #3
  __HAL_FLASH_PREFETCH_BUFFER_ENABLE();
 800019c:	f043 0310 	orr.w	r3, r3, #16
 80001a0:	6013      	str	r3, [r2, #0]
  HAL_NVIC_SetPriorityGrouping(NVIC_PRIORITYGROUP_4);
 80001a2:	f000 f82d 	bl	8000200 <HAL_NVIC_SetPriorityGrouping>
  HAL_InitTick(TICK_INT_PRIORITY);
 80001a6:	2000      	movs	r0, #0
 80001a8:	f7ff ffd0 	bl	800014c <HAL_InitTick>
  HAL_MspInit();
 80001ac:	f003 fe82 	bl	8003eb4 <HAL_MspInit>
}
 80001b0:	2000      	movs	r0, #0
 80001b2:	bd08      	pop	{r3, pc}
 80001b4:	40022000 	.word	0x40022000

080001b8 <HAL_IncTick>:
  *      implementations in user file.
  * @retval None
  */
__weak void HAL_IncTick(void)
{
  uwTick += uwTickFreq;
 80001b8:	4a03      	ldr	r2, [pc, #12]	; (80001c8 <HAL_IncTick+0x10>)
 80001ba:	4b04      	ldr	r3, [pc, #16]	; (80001cc <HAL_IncTick+0x14>)
 80001bc:	6811      	ldr	r1, [r2, #0]
 80001be:	781b      	ldrb	r3, [r3, #0]
 80001c0:	440b      	add	r3, r1
 80001c2:	6013      	str	r3, [r2, #0]
 80001c4:	4770      	bx	lr
 80001c6:	bf00      	nop
 80001c8:	200002ec 	.word	0x200002ec
 80001cc:	20000000 	.word	0x20000000

080001d0 <HAL_GetTick>:
  *       implementations in user file.
  * @retval tick value
  */
__weak uint32_t HAL_GetTick(void)
{
  return uwTick;
 80001d0:	4b01      	ldr	r3, [pc, #4]	; (80001d8 <HAL_GetTick+0x8>)
 80001d2:	6818      	ldr	r0, [r3, #0]
}
 80001d4:	4770      	bx	lr
 80001d6:	bf00      	nop
 80001d8:	200002ec 	.word	0x200002ec

080001dc <HAL_Delay>:
  *       implementations in user file.
  * @param Delay specifies the delay time length, in milliseconds.
  * @retval None
  */
__weak void HAL_Delay(uint32_t Delay)
{
 80001dc:	b538      	push	{r3, r4, r5, lr}
 80001de:	4604      	mov	r4, r0
  uint32_t tickstart = HAL_GetTick();
 80001e0:	f7ff fff6 	bl	80001d0 <HAL_GetTick>
 80001e4:	4605      	mov	r5, r0
  uint32_t wait = Delay;

  /* Add a freq to guarantee minimum wait */
  if (wait < HAL_MAX_DELAY)
 80001e6:	1c63      	adds	r3, r4, #1
  {
    wait += (uint32_t)(uwTickFreq);
 80001e8:	bf1e      	ittt	ne
 80001ea:	4b04      	ldrne	r3, [pc, #16]	; (80001fc <HAL_Delay+0x20>)
 80001ec:	781b      	ldrbne	r3, [r3, #0]
 80001ee:	18e4      	addne	r4, r4, r3
  }

  while ((HAL_GetTick() - tickstart) < wait)
 80001f0:	f7ff ffee 	bl	80001d0 <HAL_GetTick>
 80001f4:	1b40      	subs	r0, r0, r5
 80001f6:	4284      	cmp	r4, r0
 80001f8:	d8fa      	bhi.n	80001f0 <HAL_Delay+0x14>
  {
  }
}
 80001fa:	bd38      	pop	{r3, r4, r5, pc}
 80001fc:	20000000 	.word	0x20000000

08000200 <HAL_NVIC_SetPriorityGrouping>:
__STATIC_INLINE void NVIC_SetPriorityGrouping(uint32_t PriorityGroup)
{
  uint32_t reg_value;
  uint32_t PriorityGroupTmp = (PriorityGroup & (uint32_t)0x07UL);             /* only values 0..7 are used          */

  reg_value  =  SCB->AIRCR;                                                   /* read old register configuration    */
 8000200:	4a07      	ldr	r2, [pc, #28]	; (8000220 <HAL_NVIC_SetPriorityGrouping+0x20>)
  reg_value &= ~((uint32_t)(SCB_AIRCR_VECTKEY_Msk | SCB_AIRCR_PRIGROUP_Msk)); /* clear bits to change               */
  reg_value  =  (reg_value                                   |
                ((uint32_t)0x5FAUL << SCB_AIRCR_VECTKEY_Pos) |
                (PriorityGroupTmp << 8U)                      );              /* Insert write key and priorty group */
 8000202:	0200      	lsls	r0, r0, #8
  reg_value  =  SCB->AIRCR;                                                   /* read old register configuration    */
 8000204:	68d3      	ldr	r3, [r2, #12]
                (PriorityGroupTmp << 8U)                      );              /* Insert write key and priorty group */
 8000206:	f400 60e0 	and.w	r0, r0, #1792	; 0x700
  reg_value &= ~((uint32_t)(SCB_AIRCR_VECTKEY_Msk | SCB_AIRCR_PRIGROUP_Msk)); /* clear bits to change               */
 800020a:	f423 63e0 	bic.w	r3, r3, #1792	; 0x700
 800020e:	041b      	lsls	r3, r3, #16
 8000210:	0c1b      	lsrs	r3, r3, #16
 8000212:	f043 63bf 	orr.w	r3, r3, #100139008	; 0x5f80000
 8000216:	f443 3300 	orr.w	r3, r3, #131072	; 0x20000
  reg_value  =  (reg_value                                   |
 800021a:	4303      	orrs	r3, r0
  SCB->AIRCR =  reg_value;
 800021c:	60d3      	str	r3, [r2, #12]
 800021e:	4770      	bx	lr
 8000220:	e000ed00 	.word	0xe000ed00

08000224 <HAL_NVIC_SetPriority>:
  \details Reads the priority grouping field from the NVIC Interrupt Controller.
  \return                Priority grouping field (SCB->AIRCR [10:8] PRIGROUP field).
 */
__STATIC_INLINE uint32_t NVIC_GetPriorityGrouping(void)
{
  return ((uint32_t)((SCB->AIRCR & SCB_AIRCR_PRIGROUP_Msk) >> SCB_AIRCR_PRIGROUP_Pos));
 8000224:	4b17      	ldr	r3, [pc, #92]	; (8000284 <HAL_NVIC_SetPriority+0x60>)
  *         This parameter can be a value between 0 and 15
  *         A lower priority value indicates a higher priority.          
  * @retval None
  */
void HAL_NVIC_SetPriority(IRQn_Type IRQn, uint32_t PreemptPriority, uint32_t SubPriority)
{ 
 8000226:	b530      	push	{r4, r5, lr}
 8000228:	68dc      	ldr	r4, [r3, #12]
 800022a:	f3c4 2402 	ubfx	r4, r4, #8, #3
{
  uint32_t PriorityGroupTmp = (PriorityGroup & (uint32_t)0x07UL);   /* only values 0..7 are used          */
  uint32_t PreemptPriorityBits;
  uint32_t SubPriorityBits;

  PreemptPriorityBits = ((7UL - PriorityGroupTmp) > (uint32_t)(__NVIC_PRIO_BITS)) ? (uint32_t)(__NVIC_PRIO_BITS) : (uint32_t)(7UL - PriorityGroupTmp);
 800022e:	f1c4 0307 	rsb	r3, r4, #7
  SubPriorityBits     = ((PriorityGroupTmp + (uint32_t)(__NVIC_PRIO_BITS)) < (uint32_t)7UL) ? (uint32_t)0UL : (uint32_t)((PriorityGroupTmp - 7UL) + (uint32_t)(__NVIC_PRIO_BITS));
 8000232:	1d25      	adds	r5, r4, #4
  PreemptPriorityBits = ((7UL - PriorityGroupTmp) > (uint32_t)(__NVIC_PRIO_BITS)) ? (uint32_t)(__NVIC_PRIO_BITS) : (uint32_t)(7UL - PriorityGroupTmp);
 8000234:	2b04      	cmp	r3, #4
 8000236:	bf28      	it	cs
 8000238:	2304      	movcs	r3, #4
  SubPriorityBits     = ((PriorityGroupTmp + (uint32_t)(__NVIC_PRIO_BITS)) < (uint32_t)7UL) ? (uint32_t)0UL : (uint32_t)((PriorityGroupTmp - 7UL) + (uint32_t)(__NVIC_PRIO_BITS));
 800023a:	2d06      	cmp	r5, #6

  return (
           ((PreemptPriority & (uint32_t)((1UL << (PreemptPriorityBits)) - 1UL)) << SubPriorityBits) |
 800023c:	f04f 0501 	mov.w	r5, #1
  SubPriorityBits     = ((PriorityGroupTmp + (uint32_t)(__NVIC_PRIO_BITS)) < (uint32_t)7UL) ? (uint32_t)0UL : (uint32_t)((PriorityGroupTmp - 7UL) + (uint32_t)(__NVIC_PRIO_BITS));
 8000240:	bf98      	it	ls
 8000242:	2400      	movls	r4, #0
           ((PreemptPriority & (uint32_t)((1UL << (PreemptPriorityBits)) - 1UL)) << SubPriorityBits) |
 8000244:	fa05 f303 	lsl.w	r3, r5, r3
 8000248:	f103 33ff 	add.w	r3, r3, #4294967295
  SubPriorityBits     = ((PriorityGroupTmp + (uint32_t)(__NVIC_PRIO_BITS)) < (uint32_t)7UL) ? (uint32_t)0UL : (uint32_t)((PriorityGroupTmp - 7UL) + (uint32_t)(__NVIC_PRIO_BITS));
 800024c:	bf88      	it	hi
 800024e:	3c03      	subhi	r4, #3
           ((PreemptPriority & (uint32_t)((1UL << (PreemptPriorityBits)) - 1UL)) << SubPriorityBits) |
 8000250:	4019      	ands	r1, r3
 8000252:	40a1      	lsls	r1, r4
           ((SubPriority     & (uint32_t)((1UL << (SubPriorityBits    )) - 1UL)))
 8000254:	fa05 f404 	lsl.w	r4, r5, r4
 8000258:	3c01      	subs	r4, #1
 800025a:	4022      	ands	r2, r4
  if ((int32_t)(IRQn) < 0)
 800025c:	2800      	cmp	r0, #0
           ((PreemptPriority & (uint32_t)((1UL << (PreemptPriorityBits)) - 1UL)) << SubPriorityBits) |
 800025e:	ea42 0201 	orr.w	r2, r2, r1
 8000262:	ea4f 1202 	mov.w	r2, r2, lsl #4
    NVIC->IP[((uint32_t)(int32_t)IRQn)]               = (uint8_t)((priority << (8U - __NVIC_PRIO_BITS)) & (uint32_t)0xFFUL);
 8000266:	bfaf      	iteee	ge
 8000268:	f100 4060 	addge.w	r0, r0, #3758096384	; 0xe0000000
    SCB->SHP[(((uint32_t)(int32_t)IRQn) & 0xFUL)-4UL] = (uint8_t)((priority << (8U - __NVIC_PRIO_BITS)) & (uint32_t)0xFFUL);
 800026c:	4b06      	ldrlt	r3, [pc, #24]	; (8000288 <HAL_NVIC_SetPriority+0x64>)
 800026e:	f000 000f 	andlt.w	r0, r0, #15
 8000272:	b2d2      	uxtblt	r2, r2
    NVIC->IP[((uint32_t)(int32_t)IRQn)]               = (uint8_t)((priority << (8U - __NVIC_PRIO_BITS)) & (uint32_t)0xFFUL);
 8000274:	bfa5      	ittet	ge
 8000276:	b2d2      	uxtbge	r2, r2
 8000278:	f500 4061 	addge.w	r0, r0, #57600	; 0xe100
    SCB->SHP[(((uint32_t)(int32_t)IRQn) & 0xFUL)-4UL] = (uint8_t)((priority << (8U - __NVIC_PRIO_BITS)) & (uint32_t)0xFFUL);
 800027c:	541a      	strblt	r2, [r3, r0]
    NVIC->IP[((uint32_t)(int32_t)IRQn)]               = (uint8_t)((priority << (8U - __NVIC_PRIO_BITS)) & (uint32_t)0xFFUL);
 800027e:	f880 2300 	strbge.w	r2, [r0, #768]	; 0x300
 8000282:	bd30      	pop	{r4, r5, pc}
 8000284:	e000ed00 	.word	0xe000ed00
 8000288:	e000ed14 	.word	0xe000ed14

0800028c <HAL_NVIC_EnableIRQ>:
  NVIC->ISER[(((uint32_t)(int32_t)IRQn) >> 5UL)] = (uint32_t)(1UL << (((uint32_t)(int32_t)IRQn) & 0x1FUL));
 800028c:	2301      	movs	r3, #1
 800028e:	0942      	lsrs	r2, r0, #5
 8000290:	f000 001f 	and.w	r0, r0, #31
 8000294:	fa03 f000 	lsl.w	r0, r3, r0
 8000298:	4b01      	ldr	r3, [pc, #4]	; (80002a0 <HAL_NVIC_EnableIRQ+0x14>)
 800029a:	f843 0022 	str.w	r0, [r3, r2, lsl #2]
 800029e:	4770      	bx	lr
 80002a0:	e000e100 	.word	0xe000e100

080002a4 <HAL_SYSTICK_Config>:
           function <b>SysTick_Config</b> is not included. In this case, the file <b><i>device</i>.h</b>
           must contain a vendor-specific implementation of this function.
 */
__STATIC_INLINE uint32_t SysTick_Config(uint32_t ticks)
{
  if ((ticks - 1UL) > SysTick_LOAD_RELOAD_Msk)
 80002a4:	3801      	subs	r0, #1
 80002a6:	f1b0 7f80 	cmp.w	r0, #16777216	; 0x1000000
 80002aa:	d20a      	bcs.n	80002c2 <HAL_SYSTICK_Config+0x1e>
    SCB->SHP[(((uint32_t)(int32_t)IRQn) & 0xFUL)-4UL] = (uint8_t)((priority << (8U - __NVIC_PRIO_BITS)) & (uint32_t)0xFFUL);
 80002ac:	21f0      	movs	r1, #240	; 0xf0
  {
    return (1UL);                                                   /* Reload value impossible */
  }

  SysTick->LOAD  = (uint32_t)(ticks - 1UL);                         /* set reload register */
 80002ae:	4b06      	ldr	r3, [pc, #24]	; (80002c8 <HAL_SYSTICK_Config+0x24>)
    SCB->SHP[(((uint32_t)(int32_t)IRQn) & 0xFUL)-4UL] = (uint8_t)((priority << (8U - __NVIC_PRIO_BITS)) & (uint32_t)0xFFUL);
 80002b0:	4a06      	ldr	r2, [pc, #24]	; (80002cc <HAL_SYSTICK_Config+0x28>)
  SysTick->LOAD  = (uint32_t)(ticks - 1UL);                         /* set reload register */
 80002b2:	6058      	str	r0, [r3, #4]
    SCB->SHP[(((uint32_t)(int32_t)IRQn) & 0xFUL)-4UL] = (uint8_t)((priority << (8U - __NVIC_PRIO_BITS)) & (uint32_t)0xFFUL);
 80002b4:	f882 1023 	strb.w	r1, [r2, #35]	; 0x23
  NVIC_SetPriority (SysTick_IRQn, (1UL << __NVIC_PRIO_BITS) - 1UL); /* set Priority for Systick Interrupt */
  SysTick->VAL   = 0UL;                                             /* Load the SysTick Counter Value */
 80002b8:	2000      	movs	r0, #0
  SysTick->CTRL  = SysTick_CTRL_CLKSOURCE_Msk |
 80002ba:	2207      	movs	r2, #7
  SysTick->VAL   = 0UL;                                             /* Load the SysTick Counter Value */
 80002bc:	6098      	str	r0, [r3, #8]
  SysTick->CTRL  = SysTick_CTRL_CLKSOURCE_Msk |
 80002be:	601a      	str	r2, [r3, #0]
 80002c0:	4770      	bx	lr
    return (1UL);                                                   /* Reload value impossible */
 80002c2:	2001      	movs	r0, #1
  *                  - 1  Function failed.
  */
uint32_t HAL_SYSTICK_Config(uint32_t TicksNumb)
{
   return SysTick_Config(TicksNumb);
}
 80002c4:	4770      	bx	lr
 80002c6:	bf00      	nop
 80002c8:	e000e010 	.word	0xe000e010
 80002cc:	e000ed00 	.word	0xe000ed00

080002d0 <HAL_SYSTICK_Callback>:
/**
  * @brief  SYSTICK callback.
  * @retval None
  */
__weak void HAL_SYSTICK_Callback(void)
{
 80002d0:	4770      	bx	lr

080002d2 <HAL_SYSTICK_IRQHandler>:
{
 80002d2:	b508      	push	{r3, lr}
  HAL_SYSTICK_Callback();
 80002d4:	f7ff fffc 	bl	80002d0 <HAL_SYSTICK_Callback>
 80002d8:	bd08      	pop	{r3, pc}
	...

080002dc <HAL_GPIO_Init>:
  * @param  GPIO_Init: pointer to a GPIO_InitTypeDef structure that contains
  *         the configuration information for the specified GPIO peripheral.
  * @retval None
  */
void HAL_GPIO_Init(GPIO_TypeDef  *GPIOx, GPIO_InitTypeDef *GPIO_Init)
{
 80002dc:	e92d 4ff7 	stmdb	sp!, {r0, r1, r2, r4, r5, r6, r7, r8, r9, sl, fp, lr}
  uint32_t position;
  uint32_t ioposition = 0x00U;
  uint32_t iocurrent = 0x00U;
  uint32_t temp = 0x00U;
  uint32_t config = 0x00U;
 80002e0:	2200      	movs	r2, #0
  assert_param(IS_GPIO_ALL_INSTANCE(GPIOx));
  assert_param(IS_GPIO_PIN(GPIO_Init->Pin));
  assert_param(IS_GPIO_MODE(GPIO_Init->Mode));

  /* Configure the port pins */
  for (position = 0U; position < GPIO_NUMBER; position++)
 80002e2:	4616      	mov	r6, r2
 80002e4:	4b65      	ldr	r3, [pc, #404]	; (800047c <HAL_GPIO_Init+0x1a0>)
    {
      /* Check the Alternate function parameters */
      assert_param(IS_GPIO_AF_INSTANCE(GPIOx));

      /* Based on the required mode, filling config variable with MODEy[1:0] and CNFy[3:2] corresponding bits */
      switch (GPIO_Init->Mode)
 80002e6:	f8df e1a4 	ldr.w	lr, [pc, #420]	; 800048c <HAL_GPIO_Init+0x1b0>
 80002ea:	f8df c1a4 	ldr.w	ip, [pc, #420]	; 8000490 <HAL_GPIO_Init+0x1b4>
    ioposition = (0x01U << position);
 80002ee:	f04f 0801 	mov.w	r8, #1
    iocurrent = (uint32_t)(GPIO_Init->Pin) & ioposition;
 80002f2:	680c      	ldr	r4, [r1, #0]
    ioposition = (0x01U << position);
 80002f4:	fa08 f806 	lsl.w	r8, r8, r6
    iocurrent = (uint32_t)(GPIO_Init->Pin) & ioposition;
 80002f8:	ea08 0404 	and.w	r4, r8, r4
    if (iocurrent == ioposition)
 80002fc:	45a0      	cmp	r8, r4
 80002fe:	d17f      	bne.n	8000400 <HAL_GPIO_Init+0x124>
      switch (GPIO_Init->Mode)
 8000300:	684d      	ldr	r5, [r1, #4]
 8000302:	2d12      	cmp	r5, #18
 8000304:	f000 80af 	beq.w	8000466 <HAL_GPIO_Init+0x18a>
 8000308:	f200 8088 	bhi.w	800041c <HAL_GPIO_Init+0x140>
 800030c:	2d02      	cmp	r5, #2
 800030e:	f000 80a7 	beq.w	8000460 <HAL_GPIO_Init+0x184>
 8000312:	d87c      	bhi.n	800040e <HAL_GPIO_Init+0x132>
 8000314:	2d00      	cmp	r5, #0
 8000316:	f000 808e 	beq.w	8000436 <HAL_GPIO_Init+0x15a>
 800031a:	2d01      	cmp	r5, #1
 800031c:	f000 809e 	beq.w	800045c <HAL_GPIO_Init+0x180>
       in order to address CRH or CRL register*/
      configregister = (iocurrent < GPIO_PIN_8) ? &GPIOx->CRL     : &GPIOx->CRH;
      registeroffset = (iocurrent < GPIO_PIN_8) ? (position << 2U) : ((position - 8U) << 2U);

      /* Apply the new configuration of the pin to the register */
      MODIFY_REG((*configregister), ((GPIO_CRL_MODE0 | GPIO_CRL_CNF0) << registeroffset), (config << registeroffset));
 8000320:	f04f 090f 	mov.w	r9, #15
      configregister = (iocurrent < GPIO_PIN_8) ? &GPIOx->CRL     : &GPIOx->CRH;
 8000324:	2cff      	cmp	r4, #255	; 0xff
 8000326:	bf93      	iteet	ls
 8000328:	4682      	movls	sl, r0
 800032a:	f106 4580 	addhi.w	r5, r6, #1073741824	; 0x40000000
 800032e:	3d08      	subhi	r5, #8
 8000330:	f8d0 b000 	ldrls.w	fp, [r0]
 8000334:	bf92      	itee	ls
 8000336:	00b5      	lslls	r5, r6, #2
 8000338:	f8d0 b004 	ldrhi.w	fp, [r0, #4]
 800033c:	00ad      	lslhi	r5, r5, #2
      MODIFY_REG((*configregister), ((GPIO_CRL_MODE0 | GPIO_CRL_CNF0) << registeroffset), (config << registeroffset));
 800033e:	fa09 f805 	lsl.w	r8, r9, r5
 8000342:	ea2b 0808 	bic.w	r8, fp, r8
 8000346:	fa02 f505 	lsl.w	r5, r2, r5
      configregister = (iocurrent < GPIO_PIN_8) ? &GPIOx->CRL     : &GPIOx->CRH;
 800034a:	bf88      	it	hi
 800034c:	f100 0a04 	addhi.w	sl, r0, #4
      MODIFY_REG((*configregister), ((GPIO_CRL_MODE0 | GPIO_CRL_CNF0) << registeroffset), (config << registeroffset));
 8000350:	ea48 0505 	orr.w	r5, r8, r5
 8000354:	f8ca 5000 	str.w	r5, [sl]

      /*--------------------- EXTI Mode Configuration ------------------------*/
      /* Configure the External Interrupt or event for the current IO */
      if ((GPIO_Init->Mode & EXTI_MODE) == EXTI_MODE)
 8000358:	f8d1 a004 	ldr.w	sl, [r1, #4]
 800035c:	f01a 5f80 	tst.w	sl, #268435456	; 0x10000000
 8000360:	d04e      	beq.n	8000400 <HAL_GPIO_Init+0x124>
      {
        /* Enable AFIO Clock */
        __HAL_RCC_AFIO_CLK_ENABLE();
 8000362:	4d47      	ldr	r5, [pc, #284]	; (8000480 <HAL_GPIO_Init+0x1a4>)
 8000364:	4f46      	ldr	r7, [pc, #280]	; (8000480 <HAL_GPIO_Init+0x1a4>)
 8000366:	69ad      	ldr	r5, [r5, #24]
 8000368:	f026 0803 	bic.w	r8, r6, #3
 800036c:	f045 0501 	orr.w	r5, r5, #1
 8000370:	61bd      	str	r5, [r7, #24]
 8000372:	69bd      	ldr	r5, [r7, #24]
 8000374:	f108 4880 	add.w	r8, r8, #1073741824	; 0x40000000
 8000378:	f005 0501 	and.w	r5, r5, #1
 800037c:	9501      	str	r5, [sp, #4]
 800037e:	f508 3880 	add.w	r8, r8, #65536	; 0x10000
        temp = AFIO->EXTICR[position >> 2U];
        CLEAR_BIT(temp, (0x0FU) << (4U * (position & 0x03U)));
 8000382:	f006 0b03 	and.w	fp, r6, #3
        __HAL_RCC_AFIO_CLK_ENABLE();
 8000386:	9d01      	ldr	r5, [sp, #4]
        CLEAR_BIT(temp, (0x0FU) << (4U * (position & 0x03U)));
 8000388:	ea4f 0b8b 	mov.w	fp, fp, lsl #2
        temp = AFIO->EXTICR[position >> 2U];
 800038c:	f8d8 5008 	ldr.w	r5, [r8, #8]
        CLEAR_BIT(temp, (0x0FU) << (4U * (position & 0x03U)));
 8000390:	fa09 f90b 	lsl.w	r9, r9, fp
 8000394:	ea25 0909 	bic.w	r9, r5, r9
        SET_BIT(temp, (GPIO_GET_INDEX(GPIOx)) << (4U * (position & 0x03U)));
 8000398:	4d3a      	ldr	r5, [pc, #232]	; (8000484 <HAL_GPIO_Init+0x1a8>)
 800039a:	42a8      	cmp	r0, r5
 800039c:	d068      	beq.n	8000470 <HAL_GPIO_Init+0x194>
 800039e:	f505 6580 	add.w	r5, r5, #1024	; 0x400
 80003a2:	42a8      	cmp	r0, r5
 80003a4:	d066      	beq.n	8000474 <HAL_GPIO_Init+0x198>
 80003a6:	f505 6580 	add.w	r5, r5, #1024	; 0x400
 80003aa:	42a8      	cmp	r0, r5
 80003ac:	d064      	beq.n	8000478 <HAL_GPIO_Init+0x19c>
 80003ae:	f505 6580 	add.w	r5, r5, #1024	; 0x400
 80003b2:	42a8      	cmp	r0, r5
 80003b4:	bf0c      	ite	eq
 80003b6:	2503      	moveq	r5, #3
 80003b8:	2504      	movne	r5, #4
 80003ba:	fa05 f50b 	lsl.w	r5, r5, fp
 80003be:	ea45 0509 	orr.w	r5, r5, r9
        AFIO->EXTICR[position >> 2U] = temp;
 80003c2:	f8c8 5008 	str.w	r5, [r8, #8]


        /* Configure the interrupt mask */
        if ((GPIO_Init->Mode & GPIO_MODE_IT) == GPIO_MODE_IT)
        {
          SET_BIT(EXTI->IMR, iocurrent);
 80003c6:	681d      	ldr	r5, [r3, #0]
        if ((GPIO_Init->Mode & GPIO_MODE_IT) == GPIO_MODE_IT)
 80003c8:	f41a 3f80 	tst.w	sl, #65536	; 0x10000
          SET_BIT(EXTI->IMR, iocurrent);
 80003cc:	bf14      	ite	ne
 80003ce:	4325      	orrne	r5, r4
        }
        else
        {
          CLEAR_BIT(EXTI->IMR, iocurrent);
 80003d0:	43a5      	biceq	r5, r4
 80003d2:	601d      	str	r5, [r3, #0]
        }

        /* Configure the event mask */
        if ((GPIO_Init->Mode & GPIO_MODE_EVT) == GPIO_MODE_EVT)
        {
          SET_BIT(EXTI->EMR, iocurrent);
 80003d4:	685d      	ldr	r5, [r3, #4]
        if ((GPIO_Init->Mode & GPIO_MODE_EVT) == GPIO_MODE_EVT)
 80003d6:	f41a 3f00 	tst.w	sl, #131072	; 0x20000
          SET_BIT(EXTI->EMR, iocurrent);
 80003da:	bf14      	ite	ne
 80003dc:	4325      	orrne	r5, r4
        }
        else
        {
          CLEAR_BIT(EXTI->EMR, iocurrent);
 80003de:	43a5      	biceq	r5, r4
 80003e0:	605d      	str	r5, [r3, #4]
        }

        /* Enable or disable the rising trigger */
        if ((GPIO_Init->Mode & RISING_EDGE) == RISING_EDGE)
        {
          SET_BIT(EXTI->RTSR, iocurrent);
 80003e2:	689d      	ldr	r5, [r3, #8]
        if ((GPIO_Init->Mode & RISING_EDGE) == RISING_EDGE)
 80003e4:	f41a 1f80 	tst.w	sl, #1048576	; 0x100000
          SET_BIT(EXTI->RTSR, iocurrent);
 80003e8:	bf14      	ite	ne
 80003ea:	4325      	orrne	r5, r4
        }
        else
        {
          CLEAR_BIT(EXTI->RTSR, iocurrent);
 80003ec:	43a5      	biceq	r5, r4
 80003ee:	609d      	str	r5, [r3, #8]
        }

        /* Enable or disable the falling trigger */
        if ((GPIO_Init->Mode & FALLING_EDGE) == FALLING_EDGE)
        {
          SET_BIT(EXTI->FTSR, iocurrent);
 80003f0:	68dd      	ldr	r5, [r3, #12]
        if ((GPIO_Init->Mode & FALLING_EDGE) == FALLING_EDGE)
 80003f2:	f41a 1f00 	tst.w	sl, #2097152	; 0x200000
          SET_BIT(EXTI->FTSR, iocurrent);
 80003f6:	bf14      	ite	ne
 80003f8:	432c      	orrne	r4, r5
        }
        else
        {
          CLEAR_BIT(EXTI->FTSR, iocurrent);
 80003fa:	ea25 0404 	biceq.w	r4, r5, r4
 80003fe:	60dc      	str	r4, [r3, #12]
  for (position = 0U; position < GPIO_NUMBER; position++)
 8000400:	3601      	adds	r6, #1
 8000402:	2e10      	cmp	r6, #16
 8000404:	f47f af73 	bne.w	80002ee <HAL_GPIO_Init+0x12>
        }
      }
    }
  }
}
 8000408:	b003      	add	sp, #12
 800040a:	e8bd 8ff0 	ldmia.w	sp!, {r4, r5, r6, r7, r8, r9, sl, fp, pc}
      switch (GPIO_Init->Mode)
 800040e:	2d03      	cmp	r5, #3
 8000410:	d022      	beq.n	8000458 <HAL_GPIO_Init+0x17c>
 8000412:	2d11      	cmp	r5, #17
 8000414:	d184      	bne.n	8000320 <HAL_GPIO_Init+0x44>
          config = GPIO_Init->Speed + GPIO_CR_CNF_GP_OUTPUT_OD;
 8000416:	68ca      	ldr	r2, [r1, #12]
 8000418:	3204      	adds	r2, #4
          break;
 800041a:	e781      	b.n	8000320 <HAL_GPIO_Init+0x44>
      switch (GPIO_Init->Mode)
 800041c:	4f1a      	ldr	r7, [pc, #104]	; (8000488 <HAL_GPIO_Init+0x1ac>)
 800041e:	42bd      	cmp	r5, r7
 8000420:	d009      	beq.n	8000436 <HAL_GPIO_Init+0x15a>
 8000422:	d812      	bhi.n	800044a <HAL_GPIO_Init+0x16e>
 8000424:	f8df 906c 	ldr.w	r9, [pc, #108]	; 8000494 <HAL_GPIO_Init+0x1b8>
 8000428:	454d      	cmp	r5, r9
 800042a:	d004      	beq.n	8000436 <HAL_GPIO_Init+0x15a>
 800042c:	f509 3980 	add.w	r9, r9, #65536	; 0x10000
 8000430:	454d      	cmp	r5, r9
 8000432:	f47f af75 	bne.w	8000320 <HAL_GPIO_Init+0x44>
          if (GPIO_Init->Pull == GPIO_NOPULL)
 8000436:	688a      	ldr	r2, [r1, #8]
 8000438:	b1c2      	cbz	r2, 800046c <HAL_GPIO_Init+0x190>
          else if (GPIO_Init->Pull == GPIO_PULLUP)
 800043a:	2a01      	cmp	r2, #1
            GPIOx->BSRR = ioposition;
 800043c:	bf0c      	ite	eq
 800043e:	f8c0 8010 	streq.w	r8, [r0, #16]
            GPIOx->BRR = ioposition;
 8000442:	f8c0 8014 	strne.w	r8, [r0, #20]
            config = GPIO_CR_MODE_INPUT + GPIO_CR_CNF_INPUT_PU_PD;
 8000446:	2208      	movs	r2, #8
 8000448:	e76a      	b.n	8000320 <HAL_GPIO_Init+0x44>
      switch (GPIO_Init->Mode)
 800044a:	4575      	cmp	r5, lr
 800044c:	d0f3      	beq.n	8000436 <HAL_GPIO_Init+0x15a>
 800044e:	4565      	cmp	r5, ip
 8000450:	d0f1      	beq.n	8000436 <HAL_GPIO_Init+0x15a>
 8000452:	f8df 9044 	ldr.w	r9, [pc, #68]	; 8000498 <HAL_GPIO_Init+0x1bc>
 8000456:	e7eb      	b.n	8000430 <HAL_GPIO_Init+0x154>
          config = GPIO_CR_MODE_INPUT + GPIO_CR_CNF_ANALOG;
 8000458:	2200      	movs	r2, #0
 800045a:	e761      	b.n	8000320 <HAL_GPIO_Init+0x44>
          config = GPIO_Init->Speed + GPIO_CR_CNF_GP_OUTPUT_PP;
 800045c:	68ca      	ldr	r2, [r1, #12]
          break;
 800045e:	e75f      	b.n	8000320 <HAL_GPIO_Init+0x44>
          config = GPIO_Init->Speed + GPIO_CR_CNF_AF_OUTPUT_PP;
 8000460:	68ca      	ldr	r2, [r1, #12]
 8000462:	3208      	adds	r2, #8
          break;
 8000464:	e75c      	b.n	8000320 <HAL_GPIO_Init+0x44>
          config = GPIO_Init->Speed + GPIO_CR_CNF_AF_OUTPUT_OD;
 8000466:	68ca      	ldr	r2, [r1, #12]
 8000468:	320c      	adds	r2, #12
          break;
 800046a:	e759      	b.n	8000320 <HAL_GPIO_Init+0x44>
            config = GPIO_CR_MODE_INPUT + GPIO_CR_CNF_INPUT_FLOATING;
 800046c:	2204      	movs	r2, #4
 800046e:	e757      	b.n	8000320 <HAL_GPIO_Init+0x44>
        SET_BIT(temp, (GPIO_GET_INDEX(GPIOx)) << (4U * (position & 0x03U)));
 8000470:	2500      	movs	r5, #0
 8000472:	e7a2      	b.n	80003ba <HAL_GPIO_Init+0xde>
 8000474:	2501      	movs	r5, #1
 8000476:	e7a0      	b.n	80003ba <HAL_GPIO_Init+0xde>
 8000478:	2502      	movs	r5, #2
 800047a:	e79e      	b.n	80003ba <HAL_GPIO_Init+0xde>
 800047c:	40010400 	.word	0x40010400
 8000480:	40021000 	.word	0x40021000
 8000484:	40010800 	.word	0x40010800
 8000488:	10210000 	.word	0x10210000
 800048c:	10310000 	.word	0x10310000
 8000490:	10320000 	.word	0x10320000
 8000494:	10110000 	.word	0x10110000
 8000498:	10220000 	.word	0x10220000

0800049c <HAL_GPIO_ReadPin>:
  GPIO_PinState bitstatus;

  /* Check the parameters */
  assert_param(IS_GPIO_PIN(GPIO_Pin));

  if ((GPIOx->IDR & GPIO_Pin) != (uint32_t)GPIO_PIN_RESET)
 800049c:	6883      	ldr	r3, [r0, #8]
 800049e:	4219      	tst	r1, r3
  else
  {
    bitstatus = GPIO_PIN_RESET;
  }
  return bitstatus;
}
 80004a0:	bf14      	ite	ne
 80004a2:	2001      	movne	r0, #1
 80004a4:	2000      	moveq	r0, #0
 80004a6:	4770      	bx	lr

080004a8 <HAL_GPIO_WritePin>:
{
  /* Check the parameters */
  assert_param(IS_GPIO_PIN(GPIO_Pin));
  assert_param(IS_GPIO_PIN_ACTION(PinState));

  if (PinState != GPIO_PIN_RESET)
 80004a8:	b10a      	cbz	r2, 80004ae <HAL_GPIO_WritePin+0x6>
  {
    GPIOx->BSRR = GPIO_Pin;
  }
  else
  {
    GPIOx->BSRR = (uint32_t)GPIO_Pin << 16U;
 80004aa:	6101      	str	r1, [r0, #16]
 80004ac:	4770      	bx	lr
 80004ae:	0409      	lsls	r1, r1, #16
 80004b0:	e7fb      	b.n	80004aa <HAL_GPIO_WritePin+0x2>
	...

080004b4 <HAL_GPIO_EXTI_IRQHandler>:
  * @brief  This function handles EXTI interrupt request.
  * @param  GPIO_Pin: Specifies the pins connected EXTI line
  * @retval None
  */
void HAL_GPIO_EXTI_IRQHandler(uint16_t GPIO_Pin)
{
 80004b4:	b508      	push	{r3, lr}
  /* EXTI line interrupt detected */
  if (__HAL_GPIO_EXTI_GET_IT(GPIO_Pin) != RESET)
 80004b6:	4b04      	ldr	r3, [pc, #16]	; (80004c8 <HAL_GPIO_EXTI_IRQHandler+0x14>)
 80004b8:	6959      	ldr	r1, [r3, #20]
 80004ba:	4201      	tst	r1, r0
 80004bc:	d002      	beq.n	80004c4 <HAL_GPIO_EXTI_IRQHandler+0x10>
  {
    __HAL_GPIO_EXTI_CLEAR_IT(GPIO_Pin);
 80004be:	6158      	str	r0, [r3, #20]
    HAL_GPIO_EXTI_Callback(GPIO_Pin);
 80004c0:	f003 fbe6 	bl	8003c90 <HAL_GPIO_EXTI_Callback>
 80004c4:	bd08      	pop	{r3, pc}
 80004c6:	bf00      	nop
 80004c8:	40010400 	.word	0x40010400

080004cc <I2C_IsAcknowledgeFailed>:
  *                the configuration information for the specified I2C.
  * @retval HAL status
  */
static HAL_StatusTypeDef I2C_IsAcknowledgeFailed(I2C_HandleTypeDef *hi2c)
{
  if(__HAL_I2C_GET_FLAG(hi2c, I2C_FLAG_AF) == SET)
 80004cc:	6802      	ldr	r2, [r0, #0]
 80004ce:	6953      	ldr	r3, [r2, #20]
 80004d0:	f413 6380 	ands.w	r3, r3, #1024	; 0x400
 80004d4:	d00d      	beq.n	80004f2 <I2C_IsAcknowledgeFailed+0x26>
  {
    /* Clear NACKF Flag */
    __HAL_I2C_CLEAR_FLAG(hi2c, I2C_FLAG_AF);
 80004d6:	f46f 6380 	mvn.w	r3, #1024	; 0x400
 80004da:	6153      	str	r3, [r2, #20]

    hi2c->ErrorCode = HAL_I2C_ERROR_AF;
 80004dc:	2304      	movs	r3, #4
    hi2c->PreviousState = I2C_STATE_NONE;
    hi2c->State= HAL_I2C_STATE_READY;
 80004de:	2220      	movs	r2, #32
    hi2c->ErrorCode = HAL_I2C_ERROR_AF;
 80004e0:	6403      	str	r3, [r0, #64]	; 0x40
    hi2c->PreviousState = I2C_STATE_NONE;
 80004e2:	2300      	movs	r3, #0
 80004e4:	6303      	str	r3, [r0, #48]	; 0x30

    /* Process Unlocked */
    __HAL_UNLOCK(hi2c);
 80004e6:	f880 303c 	strb.w	r3, [r0, #60]	; 0x3c
    hi2c->State= HAL_I2C_STATE_READY;
 80004ea:	f880 203d 	strb.w	r2, [r0, #61]	; 0x3d

    return HAL_ERROR;
 80004ee:	2001      	movs	r0, #1
 80004f0:	4770      	bx	lr
  }
  return HAL_OK;
 80004f2:	4618      	mov	r0, r3
}
 80004f4:	4770      	bx	lr

080004f6 <I2C_WaitOnMasterAddressFlagUntilTimeout>:
{
 80004f6:	e92d 43f8 	stmdb	sp!, {r3, r4, r5, r6, r7, r8, r9, lr}
 80004fa:	4604      	mov	r4, r0
 80004fc:	4617      	mov	r7, r2
 80004fe:	4699      	mov	r9, r3
  while(__HAL_I2C_GET_FLAG(hi2c, Flag) == RESET)
 8000500:	f3c1 4807 	ubfx	r8, r1, #16, #8
 8000504:	b28e      	uxth	r6, r1
 8000506:	6825      	ldr	r5, [r4, #0]
 8000508:	f1b8 0f01 	cmp.w	r8, #1
 800050c:	bf0c      	ite	eq
 800050e:	696b      	ldreq	r3, [r5, #20]
 8000510:	69ab      	ldrne	r3, [r5, #24]
 8000512:	ea36 0303 	bics.w	r3, r6, r3
 8000516:	bf14      	ite	ne
 8000518:	2001      	movne	r0, #1
 800051a:	2000      	moveq	r0, #0
 800051c:	b908      	cbnz	r0, 8000522 <I2C_WaitOnMasterAddressFlagUntilTimeout+0x2c>
}
 800051e:	e8bd 83f8 	ldmia.w	sp!, {r3, r4, r5, r6, r7, r8, r9, pc}
    if(__HAL_I2C_GET_FLAG(hi2c, I2C_FLAG_AF) == SET)
 8000522:	696b      	ldr	r3, [r5, #20]
 8000524:	055a      	lsls	r2, r3, #21
 8000526:	d512      	bpl.n	800054e <I2C_WaitOnMasterAddressFlagUntilTimeout+0x58>
      hi2c->Instance->CR1 |= I2C_CR1_STOP;
 8000528:	682b      	ldr	r3, [r5, #0]
      hi2c->State= HAL_I2C_STATE_READY;
 800052a:	2220      	movs	r2, #32
      hi2c->Instance->CR1 |= I2C_CR1_STOP;
 800052c:	f443 7300 	orr.w	r3, r3, #512	; 0x200
 8000530:	602b      	str	r3, [r5, #0]
      __HAL_I2C_CLEAR_FLAG(hi2c, I2C_FLAG_AF);
 8000532:	f46f 6380 	mvn.w	r3, #1024	; 0x400
 8000536:	616b      	str	r3, [r5, #20]
      hi2c->ErrorCode = HAL_I2C_ERROR_AF;
 8000538:	2304      	movs	r3, #4
 800053a:	6423      	str	r3, [r4, #64]	; 0x40
      hi2c->PreviousState = I2C_STATE_NONE;
 800053c:	2300      	movs	r3, #0
      return HAL_ERROR;
 800053e:	2001      	movs	r0, #1
      hi2c->PreviousState = I2C_STATE_NONE;
 8000540:	6323      	str	r3, [r4, #48]	; 0x30
      __HAL_UNLOCK(hi2c);
 8000542:	f884 303c 	strb.w	r3, [r4, #60]	; 0x3c
      hi2c->State= HAL_I2C_STATE_READY;
 8000546:	f884 203d 	strb.w	r2, [r4, #61]	; 0x3d
      return HAL_ERROR;
 800054a:	e8bd 83f8 	ldmia.w	sp!, {r3, r4, r5, r6, r7, r8, r9, pc}
    if(Timeout != HAL_MAX_DELAY)
 800054e:	1c7b      	adds	r3, r7, #1
 8000550:	d0d9      	beq.n	8000506 <I2C_WaitOnMasterAddressFlagUntilTimeout+0x10>
      if((Timeout == 0U)||((HAL_GetTick() - Tickstart ) > Timeout))
 8000552:	b94f      	cbnz	r7, 8000568 <I2C_WaitOnMasterAddressFlagUntilTimeout+0x72>
        hi2c->PreviousState = I2C_STATE_NONE;
 8000554:	2300      	movs	r3, #0
        hi2c->State= HAL_I2C_STATE_READY;
 8000556:	2220      	movs	r2, #32
        hi2c->PreviousState = I2C_STATE_NONE;
 8000558:	6323      	str	r3, [r4, #48]	; 0x30
        __HAL_UNLOCK(hi2c);
 800055a:	f884 303c 	strb.w	r3, [r4, #60]	; 0x3c
        hi2c->State= HAL_I2C_STATE_READY;
 800055e:	f884 203d 	strb.w	r2, [r4, #61]	; 0x3d
        return HAL_TIMEOUT;
 8000562:	2003      	movs	r0, #3
 8000564:	e8bd 83f8 	ldmia.w	sp!, {r3, r4, r5, r6, r7, r8, r9, pc}
      if((Timeout == 0U)||((HAL_GetTick() - Tickstart ) > Timeout))
 8000568:	f7ff fe32 	bl	80001d0 <HAL_GetTick>
 800056c:	eba0 0009 	sub.w	r0, r0, r9
 8000570:	4287      	cmp	r7, r0
 8000572:	d2c8      	bcs.n	8000506 <I2C_WaitOnMasterAddressFlagUntilTimeout+0x10>
 8000574:	e7ee      	b.n	8000554 <I2C_WaitOnMasterAddressFlagUntilTimeout+0x5e>

08000576 <I2C_WaitOnFlagUntilTimeout>:
{
 8000576:	e92d 43f8 	stmdb	sp!, {r3, r4, r5, r6, r7, r8, r9, lr}
 800057a:	4604      	mov	r4, r0
 800057c:	4690      	mov	r8, r2
 800057e:	461f      	mov	r7, r3
 8000580:	9e08      	ldr	r6, [sp, #32]
  while((__HAL_I2C_GET_FLAG(hi2c, Flag) ? SET : RESET) == Status) 
 8000582:	f3c1 4907 	ubfx	r9, r1, #16, #8
 8000586:	b28d      	uxth	r5, r1
 8000588:	6823      	ldr	r3, [r4, #0]
 800058a:	f1b9 0f01 	cmp.w	r9, #1
 800058e:	bf0c      	ite	eq
 8000590:	695b      	ldreq	r3, [r3, #20]
 8000592:	699b      	ldrne	r3, [r3, #24]
 8000594:	ea35 0303 	bics.w	r3, r5, r3
 8000598:	bf0c      	ite	eq
 800059a:	2301      	moveq	r3, #1
 800059c:	2300      	movne	r3, #0
 800059e:	4543      	cmp	r3, r8
 80005a0:	d002      	beq.n	80005a8 <I2C_WaitOnFlagUntilTimeout+0x32>
  return HAL_OK;
 80005a2:	2000      	movs	r0, #0
}
 80005a4:	e8bd 83f8 	ldmia.w	sp!, {r3, r4, r5, r6, r7, r8, r9, pc}
    if(Timeout != HAL_MAX_DELAY)
 80005a8:	1c7b      	adds	r3, r7, #1
 80005aa:	d0ed      	beq.n	8000588 <I2C_WaitOnFlagUntilTimeout+0x12>
      if((Timeout == 0U)||((HAL_GetTick() - Tickstart ) > Timeout))
 80005ac:	b95f      	cbnz	r7, 80005c6 <I2C_WaitOnFlagUntilTimeout+0x50>
        hi2c->PreviousState = I2C_STATE_NONE;
 80005ae:	2300      	movs	r3, #0
        hi2c->State= HAL_I2C_STATE_READY;
 80005b0:	2220      	movs	r2, #32
        hi2c->PreviousState = I2C_STATE_NONE;
 80005b2:	6323      	str	r3, [r4, #48]	; 0x30
        __HAL_UNLOCK(hi2c);
 80005b4:	f884 303c 	strb.w	r3, [r4, #60]	; 0x3c
        hi2c->State= HAL_I2C_STATE_READY;
 80005b8:	f884 203d 	strb.w	r2, [r4, #61]	; 0x3d
        __HAL_UNLOCK(hi2c);
 80005bc:	2003      	movs	r0, #3
        hi2c->Mode = HAL_I2C_MODE_NONE;
 80005be:	f884 303e 	strb.w	r3, [r4, #62]	; 0x3e
 80005c2:	e8bd 83f8 	ldmia.w	sp!, {r3, r4, r5, r6, r7, r8, r9, pc}
      if((Timeout == 0U)||((HAL_GetTick() - Tickstart ) > Timeout))
 80005c6:	f7ff fe03 	bl	80001d0 <HAL_GetTick>
 80005ca:	1b80      	subs	r0, r0, r6
 80005cc:	4287      	cmp	r7, r0
 80005ce:	d2db      	bcs.n	8000588 <I2C_WaitOnFlagUntilTimeout+0x12>
 80005d0:	e7ed      	b.n	80005ae <I2C_WaitOnFlagUntilTimeout+0x38>

080005d2 <I2C_WaitOnTXEFlagUntilTimeout>:
{    
 80005d2:	b570      	push	{r4, r5, r6, lr}
 80005d4:	4604      	mov	r4, r0
 80005d6:	460d      	mov	r5, r1
 80005d8:	4616      	mov	r6, r2
  while(__HAL_I2C_GET_FLAG(hi2c, I2C_FLAG_TXE) == RESET)
 80005da:	6823      	ldr	r3, [r4, #0]
 80005dc:	695b      	ldr	r3, [r3, #20]
 80005de:	061b      	lsls	r3, r3, #24
 80005e0:	d501      	bpl.n	80005e6 <I2C_WaitOnTXEFlagUntilTimeout+0x14>
  return HAL_OK;      
 80005e2:	2000      	movs	r0, #0
 80005e4:	bd70      	pop	{r4, r5, r6, pc}
    if(I2C_IsAcknowledgeFailed(hi2c) != HAL_OK)
 80005e6:	4620      	mov	r0, r4
 80005e8:	f7ff ff70 	bl	80004cc <I2C_IsAcknowledgeFailed>
 80005ec:	b9a8      	cbnz	r0, 800061a <I2C_WaitOnTXEFlagUntilTimeout+0x48>
    if(Timeout != HAL_MAX_DELAY)
 80005ee:	1c6a      	adds	r2, r5, #1
 80005f0:	d0f3      	beq.n	80005da <I2C_WaitOnTXEFlagUntilTimeout+0x8>
      if((Timeout == 0U) || ((HAL_GetTick()-Tickstart) > Timeout))
 80005f2:	b965      	cbnz	r5, 800060e <I2C_WaitOnTXEFlagUntilTimeout+0x3c>
        hi2c->ErrorCode |= HAL_I2C_ERROR_TIMEOUT;
 80005f4:	6c23      	ldr	r3, [r4, #64]	; 0x40
        hi2c->State= HAL_I2C_STATE_READY;
 80005f6:	2220      	movs	r2, #32
        hi2c->ErrorCode |= HAL_I2C_ERROR_TIMEOUT;
 80005f8:	f043 0320 	orr.w	r3, r3, #32
 80005fc:	6423      	str	r3, [r4, #64]	; 0x40
        hi2c->PreviousState = I2C_STATE_NONE;
 80005fe:	2300      	movs	r3, #0
        __HAL_UNLOCK(hi2c);
 8000600:	2003      	movs	r0, #3
        hi2c->PreviousState = I2C_STATE_NONE;
 8000602:	6323      	str	r3, [r4, #48]	; 0x30
        __HAL_UNLOCK(hi2c);
 8000604:	f884 303c 	strb.w	r3, [r4, #60]	; 0x3c
        hi2c->State= HAL_I2C_STATE_READY;
 8000608:	f884 203d 	strb.w	r2, [r4, #61]	; 0x3d
 800060c:	bd70      	pop	{r4, r5, r6, pc}
      if((Timeout == 0U) || ((HAL_GetTick()-Tickstart) > Timeout))
 800060e:	f7ff fddf 	bl	80001d0 <HAL_GetTick>
 8000612:	1b80      	subs	r0, r0, r6
 8000614:	4285      	cmp	r5, r0
 8000616:	d2e0      	bcs.n	80005da <I2C_WaitOnTXEFlagUntilTimeout+0x8>
 8000618:	e7ec      	b.n	80005f4 <I2C_WaitOnTXEFlagUntilTimeout+0x22>
      return HAL_ERROR;
 800061a:	2001      	movs	r0, #1
}
 800061c:	bd70      	pop	{r4, r5, r6, pc}

0800061e <I2C_WaitOnBTFFlagUntilTimeout>:
{  
 800061e:	b570      	push	{r4, r5, r6, lr}
 8000620:	4604      	mov	r4, r0
 8000622:	460d      	mov	r5, r1
 8000624:	4616      	mov	r6, r2
  while(__HAL_I2C_GET_FLAG(hi2c, I2C_FLAG_BTF) == RESET)
 8000626:	6823      	ldr	r3, [r4, #0]
 8000628:	695b      	ldr	r3, [r3, #20]
 800062a:	075b      	lsls	r3, r3, #29
 800062c:	d501      	bpl.n	8000632 <I2C_WaitOnBTFFlagUntilTimeout+0x14>
  return HAL_OK;
 800062e:	2000      	movs	r0, #0
 8000630:	bd70      	pop	{r4, r5, r6, pc}
    if(I2C_IsAcknowledgeFailed(hi2c) != HAL_OK)
 8000632:	4620      	mov	r0, r4
 8000634:	f7ff ff4a 	bl	80004cc <I2C_IsAcknowledgeFailed>
 8000638:	b9a8      	cbnz	r0, 8000666 <I2C_WaitOnBTFFlagUntilTimeout+0x48>
    if(Timeout != HAL_MAX_DELAY)
 800063a:	1c6a      	adds	r2, r5, #1
 800063c:	d0f3      	beq.n	8000626 <I2C_WaitOnBTFFlagUntilTimeout+0x8>
      if((Timeout == 0U) || ((HAL_GetTick()-Tickstart) > Timeout))
 800063e:	b965      	cbnz	r5, 800065a <I2C_WaitOnBTFFlagUntilTimeout+0x3c>
        hi2c->ErrorCode |= HAL_I2C_ERROR_TIMEOUT;
 8000640:	6c23      	ldr	r3, [r4, #64]	; 0x40
        hi2c->State= HAL_I2C_STATE_READY;
 8000642:	2220      	movs	r2, #32
        hi2c->ErrorCode |= HAL_I2C_ERROR_TIMEOUT;
 8000644:	f043 0320 	orr.w	r3, r3, #32
 8000648:	6423      	str	r3, [r4, #64]	; 0x40
        hi2c->PreviousState = I2C_STATE_NONE;
 800064a:	2300      	movs	r3, #0
        __HAL_UNLOCK(hi2c);
 800064c:	2003      	movs	r0, #3
        hi2c->PreviousState = I2C_STATE_NONE;
 800064e:	6323      	str	r3, [r4, #48]	; 0x30
        __HAL_UNLOCK(hi2c);
 8000650:	f884 303c 	strb.w	r3, [r4, #60]	; 0x3c
        hi2c->State= HAL_I2C_STATE_READY;
 8000654:	f884 203d 	strb.w	r2, [r4, #61]	; 0x3d
 8000658:	bd70      	pop	{r4, r5, r6, pc}
      if((Timeout == 0U) || ((HAL_GetTick()-Tickstart) > Timeout))
 800065a:	f7ff fdb9 	bl	80001d0 <HAL_GetTick>
 800065e:	1b80      	subs	r0, r0, r6
 8000660:	4285      	cmp	r5, r0
 8000662:	d2e0      	bcs.n	8000626 <I2C_WaitOnBTFFlagUntilTimeout+0x8>
 8000664:	e7ec      	b.n	8000640 <I2C_WaitOnBTFFlagUntilTimeout+0x22>
      return HAL_ERROR;
 8000666:	2001      	movs	r0, #1
}
 8000668:	bd70      	pop	{r4, r5, r6, pc}
	...

0800066c <HAL_I2C_Init>:
{
 800066c:	b538      	push	{r3, r4, r5, lr}
  if(hi2c == NULL)
 800066e:	4604      	mov	r4, r0
 8000670:	b908      	cbnz	r0, 8000676 <HAL_I2C_Init+0xa>
    return HAL_ERROR;
 8000672:	2001      	movs	r0, #1
 8000674:	bd38      	pop	{r3, r4, r5, pc}
  if(hi2c->State == HAL_I2C_STATE_RESET)
 8000676:	f890 303d 	ldrb.w	r3, [r0, #61]	; 0x3d
 800067a:	f003 02ff 	and.w	r2, r3, #255	; 0xff
 800067e:	b91b      	cbnz	r3, 8000688 <HAL_I2C_Init+0x1c>
    hi2c->Lock = HAL_UNLOCKED;
 8000680:	f880 203c 	strb.w	r2, [r0, #60]	; 0x3c
    HAL_I2C_MspInit(hi2c);
 8000684:	f003 f832 	bl	80036ec <HAL_I2C_MspInit>
  hi2c->State = HAL_I2C_STATE_BUSY;
 8000688:	2324      	movs	r3, #36	; 0x24
  __HAL_I2C_DISABLE(hi2c);
 800068a:	6822      	ldr	r2, [r4, #0]
  hi2c->State = HAL_I2C_STATE_BUSY;
 800068c:	f884 303d 	strb.w	r3, [r4, #61]	; 0x3d
  __HAL_I2C_DISABLE(hi2c);
 8000690:	6813      	ldr	r3, [r2, #0]
 8000692:	f023 0301 	bic.w	r3, r3, #1
 8000696:	6013      	str	r3, [r2, #0]
  pclk1 = HAL_RCC_GetPCLK1Freq();
 8000698:	f000 fbb8 	bl	8000e0c <HAL_RCC_GetPCLK1Freq>
  if (I2C_MIN_PCLK_FREQ(pclk1, hi2c->Init.ClockSpeed) == 1U)
 800069c:	6863      	ldr	r3, [r4, #4]
 800069e:	4a2f      	ldr	r2, [pc, #188]	; (800075c <HAL_I2C_Init+0xf0>)
 80006a0:	4293      	cmp	r3, r2
 80006a2:	d830      	bhi.n	8000706 <HAL_I2C_Init+0x9a>
 80006a4:	4a2e      	ldr	r2, [pc, #184]	; (8000760 <HAL_I2C_Init+0xf4>)
 80006a6:	4290      	cmp	r0, r2
 80006a8:	d9e3      	bls.n	8000672 <HAL_I2C_Init+0x6>
  freqrange = I2C_FREQRANGE(pclk1);
 80006aa:	4a2e      	ldr	r2, [pc, #184]	; (8000764 <HAL_I2C_Init+0xf8>)
  hi2c->Instance->CR2 = freqrange;
 80006ac:	6821      	ldr	r1, [r4, #0]
  freqrange = I2C_FREQRANGE(pclk1);
 80006ae:	fbb0 f2f2 	udiv	r2, r0, r2
  hi2c->Instance->CR2 = freqrange;
 80006b2:	604a      	str	r2, [r1, #4]
  hi2c->Instance->TRISE = I2C_RISE_TIME(freqrange, hi2c->Init.ClockSpeed);
 80006b4:	3201      	adds	r2, #1
 80006b6:	620a      	str	r2, [r1, #32]
  hi2c->Instance->CCR = I2C_SPEED(pclk1, hi2c->Init.ClockSpeed, hi2c->Init.DutyCycle);
 80006b8:	4a28      	ldr	r2, [pc, #160]	; (800075c <HAL_I2C_Init+0xf0>)
 80006ba:	3801      	subs	r0, #1
 80006bc:	4293      	cmp	r3, r2
 80006be:	d832      	bhi.n	8000726 <HAL_I2C_Init+0xba>
 80006c0:	005b      	lsls	r3, r3, #1
 80006c2:	fbb0 f0f3 	udiv	r0, r0, r3
 80006c6:	1c43      	adds	r3, r0, #1
 80006c8:	f3c3 030b 	ubfx	r3, r3, #0, #12
 80006cc:	2b04      	cmp	r3, #4
 80006ce:	bf38      	it	cc
 80006d0:	2304      	movcc	r3, #4
 80006d2:	61cb      	str	r3, [r1, #28]
  hi2c->Instance->CR1 = (hi2c->Init.GeneralCallMode | hi2c->Init.NoStretchMode);
 80006d4:	6a22      	ldr	r2, [r4, #32]
 80006d6:	69e3      	ldr	r3, [r4, #28]
  hi2c->ErrorCode = HAL_I2C_ERROR_NONE;
 80006d8:	2000      	movs	r0, #0
  hi2c->Instance->CR1 = (hi2c->Init.GeneralCallMode | hi2c->Init.NoStretchMode);
 80006da:	4313      	orrs	r3, r2
 80006dc:	600b      	str	r3, [r1, #0]
  hi2c->Instance->OAR1 = (hi2c->Init.AddressingMode | hi2c->Init.OwnAddress1);
 80006de:	68e2      	ldr	r2, [r4, #12]
 80006e0:	6923      	ldr	r3, [r4, #16]
 80006e2:	4313      	orrs	r3, r2
 80006e4:	608b      	str	r3, [r1, #8]
  hi2c->Instance->OAR2 = (hi2c->Init.DualAddressMode | hi2c->Init.OwnAddress2);
 80006e6:	69a2      	ldr	r2, [r4, #24]
 80006e8:	6963      	ldr	r3, [r4, #20]
 80006ea:	4313      	orrs	r3, r2
 80006ec:	60cb      	str	r3, [r1, #12]
  __HAL_I2C_ENABLE(hi2c);
 80006ee:	680b      	ldr	r3, [r1, #0]
 80006f0:	f043 0301 	orr.w	r3, r3, #1
 80006f4:	600b      	str	r3, [r1, #0]
  hi2c->State = HAL_I2C_STATE_READY;
 80006f6:	2320      	movs	r3, #32
  hi2c->ErrorCode = HAL_I2C_ERROR_NONE;
 80006f8:	6420      	str	r0, [r4, #64]	; 0x40
  hi2c->State = HAL_I2C_STATE_READY;
 80006fa:	f884 303d 	strb.w	r3, [r4, #61]	; 0x3d
  hi2c->PreviousState = I2C_STATE_NONE;
 80006fe:	6320      	str	r0, [r4, #48]	; 0x30
  hi2c->Mode = HAL_I2C_MODE_NONE;
 8000700:	f884 003e 	strb.w	r0, [r4, #62]	; 0x3e
  return HAL_OK;
 8000704:	bd38      	pop	{r3, r4, r5, pc}
  if (I2C_MIN_PCLK_FREQ(pclk1, hi2c->Init.ClockSpeed) == 1U)
 8000706:	4a18      	ldr	r2, [pc, #96]	; (8000768 <HAL_I2C_Init+0xfc>)
 8000708:	4290      	cmp	r0, r2
 800070a:	d9b2      	bls.n	8000672 <HAL_I2C_Init+0x6>
  freqrange = I2C_FREQRANGE(pclk1);
 800070c:	4d15      	ldr	r5, [pc, #84]	; (8000764 <HAL_I2C_Init+0xf8>)
  hi2c->Instance->TRISE = I2C_RISE_TIME(freqrange, hi2c->Init.ClockSpeed);
 800070e:	f44f 7296 	mov.w	r2, #300	; 0x12c
  freqrange = I2C_FREQRANGE(pclk1);
 8000712:	fbb0 f5f5 	udiv	r5, r0, r5
  hi2c->Instance->CR2 = freqrange;
 8000716:	6821      	ldr	r1, [r4, #0]
  hi2c->Instance->TRISE = I2C_RISE_TIME(freqrange, hi2c->Init.ClockSpeed);
 8000718:	436a      	muls	r2, r5
  hi2c->Instance->CR2 = freqrange;
 800071a:	604d      	str	r5, [r1, #4]
  hi2c->Instance->TRISE = I2C_RISE_TIME(freqrange, hi2c->Init.ClockSpeed);
 800071c:	f44f 757a 	mov.w	r5, #1000	; 0x3e8
 8000720:	fbb2 f2f5 	udiv	r2, r2, r5
 8000724:	e7c6      	b.n	80006b4 <HAL_I2C_Init+0x48>
  hi2c->Instance->CCR = I2C_SPEED(pclk1, hi2c->Init.ClockSpeed, hi2c->Init.DutyCycle);
 8000726:	68a2      	ldr	r2, [r4, #8]
 8000728:	b952      	cbnz	r2, 8000740 <HAL_I2C_Init+0xd4>
 800072a:	eb03 0343 	add.w	r3, r3, r3, lsl #1
 800072e:	fbb0 f0f3 	udiv	r0, r0, r3
 8000732:	1c43      	adds	r3, r0, #1
 8000734:	f3c3 030b 	ubfx	r3, r3, #0, #12
 8000738:	b16b      	cbz	r3, 8000756 <HAL_I2C_Init+0xea>
 800073a:	f443 4300 	orr.w	r3, r3, #32768	; 0x8000
 800073e:	e7c8      	b.n	80006d2 <HAL_I2C_Init+0x66>
 8000740:	2219      	movs	r2, #25
 8000742:	4353      	muls	r3, r2
 8000744:	fbb0 f0f3 	udiv	r0, r0, r3
 8000748:	1c43      	adds	r3, r0, #1
 800074a:	f3c3 030b 	ubfx	r3, r3, #0, #12
 800074e:	b113      	cbz	r3, 8000756 <HAL_I2C_Init+0xea>
 8000750:	f443 4340 	orr.w	r3, r3, #49152	; 0xc000
 8000754:	e7bd      	b.n	80006d2 <HAL_I2C_Init+0x66>
 8000756:	2301      	movs	r3, #1
 8000758:	e7bb      	b.n	80006d2 <HAL_I2C_Init+0x66>
 800075a:	bf00      	nop
 800075c:	000186a0 	.word	0x000186a0
 8000760:	001e847f 	.word	0x001e847f
 8000764:	000f4240 	.word	0x000f4240
 8000768:	003d08ff 	.word	0x003d08ff

0800076c <HAL_I2C_Master_Transmit>:
{
 800076c:	e92d 41ff 	stmdb	sp!, {r0, r1, r2, r3, r4, r5, r6, r7, r8, lr}
 8000770:	4604      	mov	r4, r0
 8000772:	461f      	mov	r7, r3
 8000774:	460d      	mov	r5, r1
 8000776:	4690      	mov	r8, r2
  tickstart = HAL_GetTick();
 8000778:	f7ff fd2a 	bl	80001d0 <HAL_GetTick>
  if(hi2c->State == HAL_I2C_STATE_READY)
 800077c:	f894 303d 	ldrb.w	r3, [r4, #61]	; 0x3d
  tickstart = HAL_GetTick();
 8000780:	4606      	mov	r6, r0
  if(hi2c->State == HAL_I2C_STATE_READY)
 8000782:	2b20      	cmp	r3, #32
 8000784:	d004      	beq.n	8000790 <HAL_I2C_Master_Transmit+0x24>
    return HAL_BUSY;
 8000786:	2502      	movs	r5, #2
}
 8000788:	4628      	mov	r0, r5
 800078a:	b004      	add	sp, #16
 800078c:	e8bd 81f0 	ldmia.w	sp!, {r4, r5, r6, r7, r8, pc}
    if(I2C_WaitOnFlagUntilTimeout(hi2c, I2C_FLAG_BUSY, SET, I2C_TIMEOUT_BUSY_FLAG, tickstart) != HAL_OK)
 8000790:	9000      	str	r0, [sp, #0]
 8000792:	2319      	movs	r3, #25
 8000794:	2201      	movs	r2, #1
 8000796:	495d      	ldr	r1, [pc, #372]	; (800090c <HAL_I2C_Master_Transmit+0x1a0>)
 8000798:	4620      	mov	r0, r4
 800079a:	f7ff feec 	bl	8000576 <I2C_WaitOnFlagUntilTimeout>
 800079e:	2800      	cmp	r0, #0
 80007a0:	d1f1      	bne.n	8000786 <HAL_I2C_Master_Transmit+0x1a>
    __HAL_LOCK(hi2c);
 80007a2:	f894 303c 	ldrb.w	r3, [r4, #60]	; 0x3c
 80007a6:	2b01      	cmp	r3, #1
 80007a8:	d0ed      	beq.n	8000786 <HAL_I2C_Master_Transmit+0x1a>
 80007aa:	2301      	movs	r3, #1
 80007ac:	f884 303c 	strb.w	r3, [r4, #60]	; 0x3c
    if((hi2c->Instance->CR1 & I2C_CR1_PE) != I2C_CR1_PE)
 80007b0:	6823      	ldr	r3, [r4, #0]
 80007b2:	681a      	ldr	r2, [r3, #0]
 80007b4:	07d2      	lsls	r2, r2, #31
      __HAL_I2C_ENABLE(hi2c);
 80007b6:	bf5e      	ittt	pl
 80007b8:	681a      	ldrpl	r2, [r3, #0]
 80007ba:	f042 0201 	orrpl.w	r2, r2, #1
 80007be:	601a      	strpl	r2, [r3, #0]
    hi2c->Instance->CR1 &= ~I2C_CR1_POS;
 80007c0:	681a      	ldr	r2, [r3, #0]
 80007c2:	f422 6200 	bic.w	r2, r2, #2048	; 0x800
 80007c6:	601a      	str	r2, [r3, #0]
    hi2c->State     = HAL_I2C_STATE_BUSY_TX;
 80007c8:	2221      	movs	r2, #33	; 0x21
 80007ca:	f884 203d 	strb.w	r2, [r4, #61]	; 0x3d
    hi2c->Mode      = HAL_I2C_MODE_MASTER;
 80007ce:	2210      	movs	r2, #16
 80007d0:	f884 203e 	strb.w	r2, [r4, #62]	; 0x3e
    hi2c->ErrorCode = HAL_I2C_ERROR_NONE;
 80007d4:	2200      	movs	r2, #0
 80007d6:	6422      	str	r2, [r4, #64]	; 0x40
    hi2c->XferOptions = I2C_NO_OPTION_FRAME;
 80007d8:	f5a2 3280 	sub.w	r2, r2, #65536	; 0x10000
    hi2c->XferCount   = Size;
 80007dc:	8567      	strh	r7, [r4, #42]	; 0x2a
    hi2c->XferOptions = I2C_NO_OPTION_FRAME;
 80007de:	62e2      	str	r2, [r4, #44]	; 0x2c
    hi2c->XferSize    = hi2c->XferCount;
 80007e0:	8d62      	ldrh	r2, [r4, #42]	; 0x2a
    hi2c->pBuffPtr    = pData;
 80007e2:	f8c4 8024 	str.w	r8, [r4, #36]	; 0x24
    hi2c->XferSize    = hi2c->XferCount;
 80007e6:	8522      	strh	r2, [r4, #40]	; 0x28
  uint32_t CurrentXferOptions = hi2c->XferOptions;
 80007e8:	6ae2      	ldr	r2, [r4, #44]	; 0x2c
  if((CurrentXferOptions == I2C_FIRST_AND_LAST_FRAME) || (CurrentXferOptions == I2C_FIRST_FRAME) || (CurrentXferOptions == I2C_NO_OPTION_FRAME))
 80007ea:	2a04      	cmp	r2, #4
 80007ec:	d004      	beq.n	80007f8 <HAL_I2C_Master_Transmit+0x8c>
 80007ee:	2a01      	cmp	r2, #1
 80007f0:	d002      	beq.n	80007f8 <HAL_I2C_Master_Transmit+0x8c>
 80007f2:	f512 3f80 	cmn.w	r2, #65536	; 0x10000
 80007f6:	d104      	bne.n	8000802 <HAL_I2C_Master_Transmit+0x96>
    hi2c->Instance->CR1 |= I2C_CR1_START;
 80007f8:	681a      	ldr	r2, [r3, #0]
 80007fa:	f442 7280 	orr.w	r2, r2, #256	; 0x100
 80007fe:	601a      	str	r2, [r3, #0]
 8000800:	e002      	b.n	8000808 <HAL_I2C_Master_Transmit+0x9c>
  else if(hi2c->PreviousState == I2C_STATE_MASTER_BUSY_RX)
 8000802:	6b22      	ldr	r2, [r4, #48]	; 0x30
 8000804:	2a12      	cmp	r2, #18
 8000806:	d0f7      	beq.n	80007f8 <HAL_I2C_Master_Transmit+0x8c>
  if(I2C_WaitOnFlagUntilTimeout(hi2c, I2C_FLAG_SB, RESET, Timeout, Tickstart) != HAL_OK)
 8000808:	9600      	str	r6, [sp, #0]
 800080a:	9b0a      	ldr	r3, [sp, #40]	; 0x28
 800080c:	2200      	movs	r2, #0
 800080e:	f04f 1101 	mov.w	r1, #65537	; 0x10001
 8000812:	4620      	mov	r0, r4
 8000814:	f7ff feaf 	bl	8000576 <I2C_WaitOnFlagUntilTimeout>
 8000818:	bb28      	cbnz	r0, 8000866 <HAL_I2C_Master_Transmit+0xfa>
  if(hi2c->Init.AddressingMode == I2C_ADDRESSINGMODE_7BIT)
 800081a:	6923      	ldr	r3, [r4, #16]
 800081c:	6822      	ldr	r2, [r4, #0]
 800081e:	f5b3 4f80 	cmp.w	r3, #16384	; 0x4000
 8000822:	d112      	bne.n	800084a <HAL_I2C_Master_Transmit+0xde>
    hi2c->Instance->DR = I2C_7BIT_ADD_WRITE(DevAddress);
 8000824:	f005 05fe 	and.w	r5, r5, #254	; 0xfe
 8000828:	6115      	str	r5, [r2, #16]
  if(I2C_WaitOnMasterAddressFlagUntilTimeout(hi2c, I2C_FLAG_ADDR, Timeout, Tickstart) != HAL_OK)
 800082a:	4633      	mov	r3, r6
 800082c:	9a0a      	ldr	r2, [sp, #40]	; 0x28
 800082e:	4938      	ldr	r1, [pc, #224]	; (8000910 <HAL_I2C_Master_Transmit+0x1a4>)
 8000830:	4620      	mov	r0, r4
 8000832:	f7ff fe60 	bl	80004f6 <I2C_WaitOnMasterAddressFlagUntilTimeout>
 8000836:	4605      	mov	r5, r0
 8000838:	b9a0      	cbnz	r0, 8000864 <HAL_I2C_Master_Transmit+0xf8>
    __HAL_I2C_CLEAR_ADDRFLAG(hi2c);
 800083a:	6823      	ldr	r3, [r4, #0]
 800083c:	9003      	str	r0, [sp, #12]
 800083e:	695a      	ldr	r2, [r3, #20]
 8000840:	9203      	str	r2, [sp, #12]
 8000842:	699b      	ldr	r3, [r3, #24]
 8000844:	9303      	str	r3, [sp, #12]
 8000846:	9b03      	ldr	r3, [sp, #12]
    while(hi2c->XferSize > 0U)
 8000848:	e050      	b.n	80008ec <HAL_I2C_Master_Transmit+0x180>
    hi2c->Instance->DR = I2C_10BIT_HEADER_WRITE(DevAddress);
 800084a:	11eb      	asrs	r3, r5, #7
 800084c:	f003 0306 	and.w	r3, r3, #6
 8000850:	f043 03f0 	orr.w	r3, r3, #240	; 0xf0
 8000854:	6113      	str	r3, [r2, #16]
    if(I2C_WaitOnMasterAddressFlagUntilTimeout(hi2c, I2C_FLAG_ADD10, Timeout, Tickstart) != HAL_OK)
 8000856:	492f      	ldr	r1, [pc, #188]	; (8000914 <HAL_I2C_Master_Transmit+0x1a8>)
 8000858:	4633      	mov	r3, r6
 800085a:	9a0a      	ldr	r2, [sp, #40]	; 0x28
 800085c:	4620      	mov	r0, r4
 800085e:	f7ff fe4a 	bl	80004f6 <I2C_WaitOnMasterAddressFlagUntilTimeout>
 8000862:	b148      	cbz	r0, 8000878 <HAL_I2C_Master_Transmit+0x10c>
    if(hi2c->ErrorCode == HAL_I2C_ERROR_AF)
 8000864:	6c23      	ldr	r3, [r4, #64]	; 0x40
      if(hi2c->ErrorCode == HAL_I2C_ERROR_AF)
 8000866:	6c23      	ldr	r3, [r4, #64]	; 0x40
 8000868:	2b04      	cmp	r3, #4
 800086a:	f04f 0300 	mov.w	r3, #0
 800086e:	d107      	bne.n	8000880 <HAL_I2C_Master_Transmit+0x114>
        __HAL_UNLOCK(hi2c);
 8000870:	f884 303c 	strb.w	r3, [r4, #60]	; 0x3c
          return HAL_ERROR;
 8000874:	2501      	movs	r5, #1
 8000876:	e787      	b.n	8000788 <HAL_I2C_Master_Transmit+0x1c>
    hi2c->Instance->DR = I2C_10BIT_ADDRESS(DevAddress);
 8000878:	6823      	ldr	r3, [r4, #0]
 800087a:	b2ed      	uxtb	r5, r5
 800087c:	611d      	str	r5, [r3, #16]
 800087e:	e7d4      	b.n	800082a <HAL_I2C_Master_Transmit+0xbe>
        __HAL_UNLOCK(hi2c);
 8000880:	f884 303c 	strb.w	r3, [r4, #60]	; 0x3c
          return HAL_TIMEOUT;
 8000884:	2503      	movs	r5, #3
 8000886:	e77f      	b.n	8000788 <HAL_I2C_Master_Transmit+0x1c>
      if(I2C_WaitOnTXEFlagUntilTimeout(hi2c, Timeout, tickstart) != HAL_OK)
 8000888:	4632      	mov	r2, r6
 800088a:	990a      	ldr	r1, [sp, #40]	; 0x28
 800088c:	4620      	mov	r0, r4
 800088e:	f7ff fea0 	bl	80005d2 <I2C_WaitOnTXEFlagUntilTimeout>
 8000892:	b140      	cbz	r0, 80008a6 <HAL_I2C_Master_Transmit+0x13a>
        if(hi2c->ErrorCode == HAL_I2C_ERROR_AF)
 8000894:	6c23      	ldr	r3, [r4, #64]	; 0x40
 8000896:	2b04      	cmp	r3, #4
 8000898:	d1f4      	bne.n	8000884 <HAL_I2C_Master_Transmit+0x118>
          hi2c->Instance->CR1 |= I2C_CR1_STOP;
 800089a:	6822      	ldr	r2, [r4, #0]
 800089c:	6813      	ldr	r3, [r2, #0]
 800089e:	f443 7300 	orr.w	r3, r3, #512	; 0x200
 80008a2:	6013      	str	r3, [r2, #0]
 80008a4:	e7e6      	b.n	8000874 <HAL_I2C_Master_Transmit+0x108>
      hi2c->Instance->DR = (*hi2c->pBuffPtr++);
 80008a6:	6a61      	ldr	r1, [r4, #36]	; 0x24
 80008a8:	6820      	ldr	r0, [r4, #0]
 80008aa:	1c4b      	adds	r3, r1, #1
 80008ac:	6263      	str	r3, [r4, #36]	; 0x24
 80008ae:	780b      	ldrb	r3, [r1, #0]
      hi2c->XferSize--;
 80008b0:	8d22      	ldrh	r2, [r4, #40]	; 0x28
      hi2c->Instance->DR = (*hi2c->pBuffPtr++);
 80008b2:	6103      	str	r3, [r0, #16]
      hi2c->XferCount--;
 80008b4:	8d63      	ldrh	r3, [r4, #42]	; 0x2a
 80008b6:	3b01      	subs	r3, #1
 80008b8:	b29b      	uxth	r3, r3
 80008ba:	8563      	strh	r3, [r4, #42]	; 0x2a
      if((__HAL_I2C_GET_FLAG(hi2c, I2C_FLAG_BTF) == SET) && (hi2c->XferSize != 0U))
 80008bc:	6947      	ldr	r7, [r0, #20]
      hi2c->XferSize--;
 80008be:	1e53      	subs	r3, r2, #1
 80008c0:	b29b      	uxth	r3, r3
      if((__HAL_I2C_GET_FLAG(hi2c, I2C_FLAG_BTF) == SET) && (hi2c->XferSize != 0U))
 80008c2:	077f      	lsls	r7, r7, #29
      hi2c->XferSize--;
 80008c4:	8523      	strh	r3, [r4, #40]	; 0x28
      if((__HAL_I2C_GET_FLAG(hi2c, I2C_FLAG_BTF) == SET) && (hi2c->XferSize != 0U))
 80008c6:	d50a      	bpl.n	80008de <HAL_I2C_Master_Transmit+0x172>
 80008c8:	b14b      	cbz	r3, 80008de <HAL_I2C_Master_Transmit+0x172>
        hi2c->Instance->DR = (*hi2c->pBuffPtr++);
 80008ca:	1c8b      	adds	r3, r1, #2
 80008cc:	6263      	str	r3, [r4, #36]	; 0x24
 80008ce:	784b      	ldrb	r3, [r1, #1]
        hi2c->XferSize--;
 80008d0:	3a02      	subs	r2, #2
        hi2c->Instance->DR = (*hi2c->pBuffPtr++);
 80008d2:	6103      	str	r3, [r0, #16]
        hi2c->XferCount--;
 80008d4:	8d63      	ldrh	r3, [r4, #42]	; 0x2a
        hi2c->XferSize--;
 80008d6:	8522      	strh	r2, [r4, #40]	; 0x28
        hi2c->XferCount--;
 80008d8:	3b01      	subs	r3, #1
 80008da:	b29b      	uxth	r3, r3
 80008dc:	8563      	strh	r3, [r4, #42]	; 0x2a
      if(I2C_WaitOnBTFFlagUntilTimeout(hi2c, Timeout, tickstart) != HAL_OK)
 80008de:	4632      	mov	r2, r6
 80008e0:	990a      	ldr	r1, [sp, #40]	; 0x28
 80008e2:	4620      	mov	r0, r4
 80008e4:	f7ff fe9b 	bl	800061e <I2C_WaitOnBTFFlagUntilTimeout>
 80008e8:	2800      	cmp	r0, #0
 80008ea:	d1d3      	bne.n	8000894 <HAL_I2C_Master_Transmit+0x128>
    while(hi2c->XferSize > 0U)
 80008ec:	8d23      	ldrh	r3, [r4, #40]	; 0x28
 80008ee:	2b00      	cmp	r3, #0
 80008f0:	d1ca      	bne.n	8000888 <HAL_I2C_Master_Transmit+0x11c>
    hi2c->Instance->CR1 |= I2C_CR1_STOP;
 80008f2:	6821      	ldr	r1, [r4, #0]
 80008f4:	680a      	ldr	r2, [r1, #0]
 80008f6:	f442 7200 	orr.w	r2, r2, #512	; 0x200
 80008fa:	600a      	str	r2, [r1, #0]
    hi2c->State = HAL_I2C_STATE_READY;
 80008fc:	2220      	movs	r2, #32
    __HAL_UNLOCK(hi2c);
 80008fe:	f884 303c 	strb.w	r3, [r4, #60]	; 0x3c
    hi2c->State = HAL_I2C_STATE_READY;
 8000902:	f884 203d 	strb.w	r2, [r4, #61]	; 0x3d
    hi2c->Mode = HAL_I2C_MODE_NONE;
 8000906:	f884 303e 	strb.w	r3, [r4, #62]	; 0x3e
    return HAL_OK;
 800090a:	e73d      	b.n	8000788 <HAL_I2C_Master_Transmit+0x1c>
 800090c:	00100002 	.word	0x00100002
 8000910:	00010002 	.word	0x00010002
 8000914:	00010008 	.word	0x00010008

08000918 <HAL_RCC_OscConfig>:
  /* Check the parameters */
  assert_param(RCC_OscInitStruct != NULL);
  assert_param(IS_RCC_OSCILLATORTYPE(RCC_OscInitStruct->OscillatorType));
  
  /*------------------------------- HSE Configuration ------------------------*/
  if(((RCC_OscInitStruct->OscillatorType) & RCC_OSCILLATORTYPE_HSE) == RCC_OSCILLATORTYPE_HSE)
 8000918:	6803      	ldr	r3, [r0, #0]
{
 800091a:	e92d 41f3 	stmdb	sp!, {r0, r1, r4, r5, r6, r7, r8, lr}
  if(((RCC_OscInitStruct->OscillatorType) & RCC_OSCILLATORTYPE_HSE) == RCC_OSCILLATORTYPE_HSE)
 800091e:	07db      	lsls	r3, r3, #31
{
 8000920:	4605      	mov	r5, r0
  if(((RCC_OscInitStruct->OscillatorType) & RCC_OSCILLATORTYPE_HSE) == RCC_OSCILLATORTYPE_HSE)
 8000922:	d410      	bmi.n	8000946 <HAL_RCC_OscConfig+0x2e>
        }
      }
    }
  }
  /*----------------------------- HSI Configuration --------------------------*/ 
  if(((RCC_OscInitStruct->OscillatorType) & RCC_OSCILLATORTYPE_HSI) == RCC_OSCILLATORTYPE_HSI)
 8000924:	682b      	ldr	r3, [r5, #0]
 8000926:	079f      	lsls	r7, r3, #30
 8000928:	d45e      	bmi.n	80009e8 <HAL_RCC_OscConfig+0xd0>
        }
      }
    }
  }
  /*------------------------------ LSI Configuration -------------------------*/ 
  if(((RCC_OscInitStruct->OscillatorType) & RCC_OSCILLATORTYPE_LSI) == RCC_OSCILLATORTYPE_LSI)
 800092a:	682b      	ldr	r3, [r5, #0]
 800092c:	0719      	lsls	r1, r3, #28
 800092e:	f100 8095 	bmi.w	8000a5c <HAL_RCC_OscConfig+0x144>
        }
      }
    }
  }
  /*------------------------------ LSE Configuration -------------------------*/ 
  if(((RCC_OscInitStruct->OscillatorType) & RCC_OSCILLATORTYPE_LSE) == RCC_OSCILLATORTYPE_LSE)
 8000932:	682b      	ldr	r3, [r5, #0]
 8000934:	075a      	lsls	r2, r3, #29
 8000936:	f100 80bf 	bmi.w	8000ab8 <HAL_RCC_OscConfig+0x1a0>

#endif /* RCC_CR_PLL2ON */
  /*-------------------------------- PLL Configuration -----------------------*/
  /* Check the parameters */
  assert_param(IS_RCC_PLL(RCC_OscInitStruct->PLL.PLLState));
  if ((RCC_OscInitStruct->PLL.PLLState) != RCC_PLL_NONE)
 800093a:	69ea      	ldr	r2, [r5, #28]
 800093c:	2a00      	cmp	r2, #0
 800093e:	f040 812d 	bne.w	8000b9c <HAL_RCC_OscConfig+0x284>
    {
      return HAL_ERROR;
    }
  }
  
  return HAL_OK;
 8000942:	2000      	movs	r0, #0
 8000944:	e014      	b.n	8000970 <HAL_RCC_OscConfig+0x58>
    if((__HAL_RCC_GET_SYSCLK_SOURCE() == RCC_SYSCLKSOURCE_STATUS_HSE) 
 8000946:	4c90      	ldr	r4, [pc, #576]	; (8000b88 <HAL_RCC_OscConfig+0x270>)
 8000948:	6863      	ldr	r3, [r4, #4]
 800094a:	f003 030c 	and.w	r3, r3, #12
 800094e:	2b04      	cmp	r3, #4
 8000950:	d007      	beq.n	8000962 <HAL_RCC_OscConfig+0x4a>
       || ((__HAL_RCC_GET_SYSCLK_SOURCE() == RCC_SYSCLKSOURCE_STATUS_PLLCLK) && (__HAL_RCC_GET_PLL_OSCSOURCE() == RCC_PLLSOURCE_HSE)))
 8000952:	6863      	ldr	r3, [r4, #4]
 8000954:	f003 030c 	and.w	r3, r3, #12
 8000958:	2b08      	cmp	r3, #8
 800095a:	d10c      	bne.n	8000976 <HAL_RCC_OscConfig+0x5e>
 800095c:	6863      	ldr	r3, [r4, #4]
 800095e:	03de      	lsls	r6, r3, #15
 8000960:	d509      	bpl.n	8000976 <HAL_RCC_OscConfig+0x5e>
      if((__HAL_RCC_GET_FLAG(RCC_FLAG_HSERDY) != RESET) && (RCC_OscInitStruct->HSEState == RCC_HSE_OFF))
 8000962:	6823      	ldr	r3, [r4, #0]
 8000964:	039c      	lsls	r4, r3, #14
 8000966:	d5dd      	bpl.n	8000924 <HAL_RCC_OscConfig+0xc>
 8000968:	686b      	ldr	r3, [r5, #4]
 800096a:	2b00      	cmp	r3, #0
 800096c:	d1da      	bne.n	8000924 <HAL_RCC_OscConfig+0xc>
        return HAL_ERROR;
 800096e:	2001      	movs	r0, #1
}
 8000970:	b002      	add	sp, #8
 8000972:	e8bd 81f0 	ldmia.w	sp!, {r4, r5, r6, r7, r8, pc}
      __HAL_RCC_HSE_CONFIG(RCC_OscInitStruct->HSEState);
 8000976:	686b      	ldr	r3, [r5, #4]
 8000978:	f5b3 3f80 	cmp.w	r3, #65536	; 0x10000
 800097c:	d110      	bne.n	80009a0 <HAL_RCC_OscConfig+0x88>
 800097e:	6823      	ldr	r3, [r4, #0]
 8000980:	f443 3380 	orr.w	r3, r3, #65536	; 0x10000
 8000984:	6023      	str	r3, [r4, #0]
        tickstart = HAL_GetTick();
 8000986:	f7ff fc23 	bl	80001d0 <HAL_GetTick>
 800098a:	4606      	mov	r6, r0
        while(__HAL_RCC_GET_FLAG(RCC_FLAG_HSERDY) == RESET)
 800098c:	6823      	ldr	r3, [r4, #0]
 800098e:	0398      	lsls	r0, r3, #14
 8000990:	d4c8      	bmi.n	8000924 <HAL_RCC_OscConfig+0xc>
          if((HAL_GetTick() - tickstart ) > HSE_TIMEOUT_VALUE)
 8000992:	f7ff fc1d 	bl	80001d0 <HAL_GetTick>
 8000996:	1b80      	subs	r0, r0, r6
 8000998:	2864      	cmp	r0, #100	; 0x64
 800099a:	d9f7      	bls.n	800098c <HAL_RCC_OscConfig+0x74>
            return HAL_TIMEOUT;
 800099c:	2003      	movs	r0, #3
 800099e:	e7e7      	b.n	8000970 <HAL_RCC_OscConfig+0x58>
      __HAL_RCC_HSE_CONFIG(RCC_OscInitStruct->HSEState);
 80009a0:	b99b      	cbnz	r3, 80009ca <HAL_RCC_OscConfig+0xb2>
 80009a2:	6823      	ldr	r3, [r4, #0]
 80009a4:	f423 3380 	bic.w	r3, r3, #65536	; 0x10000
 80009a8:	6023      	str	r3, [r4, #0]
 80009aa:	6823      	ldr	r3, [r4, #0]
 80009ac:	f423 2380 	bic.w	r3, r3, #262144	; 0x40000
 80009b0:	6023      	str	r3, [r4, #0]
        tickstart = HAL_GetTick();
 80009b2:	f7ff fc0d 	bl	80001d0 <HAL_GetTick>
 80009b6:	4606      	mov	r6, r0
        while(__HAL_RCC_GET_FLAG(RCC_FLAG_HSERDY) != RESET)
 80009b8:	6823      	ldr	r3, [r4, #0]
 80009ba:	0399      	lsls	r1, r3, #14
 80009bc:	d5b2      	bpl.n	8000924 <HAL_RCC_OscConfig+0xc>
           if((HAL_GetTick() - tickstart ) > HSE_TIMEOUT_VALUE)
 80009be:	f7ff fc07 	bl	80001d0 <HAL_GetTick>
 80009c2:	1b80      	subs	r0, r0, r6
 80009c4:	2864      	cmp	r0, #100	; 0x64
 80009c6:	d9f7      	bls.n	80009b8 <HAL_RCC_OscConfig+0xa0>
 80009c8:	e7e8      	b.n	800099c <HAL_RCC_OscConfig+0x84>
      __HAL_RCC_HSE_CONFIG(RCC_OscInitStruct->HSEState);
 80009ca:	f5b3 2fa0 	cmp.w	r3, #327680	; 0x50000
 80009ce:	6823      	ldr	r3, [r4, #0]
 80009d0:	d103      	bne.n	80009da <HAL_RCC_OscConfig+0xc2>
 80009d2:	f443 2380 	orr.w	r3, r3, #262144	; 0x40000
 80009d6:	6023      	str	r3, [r4, #0]
 80009d8:	e7d1      	b.n	800097e <HAL_RCC_OscConfig+0x66>
 80009da:	f423 3380 	bic.w	r3, r3, #65536	; 0x10000
 80009de:	6023      	str	r3, [r4, #0]
 80009e0:	6823      	ldr	r3, [r4, #0]
 80009e2:	f423 2380 	bic.w	r3, r3, #262144	; 0x40000
 80009e6:	e7cd      	b.n	8000984 <HAL_RCC_OscConfig+0x6c>
    if((__HAL_RCC_GET_SYSCLK_SOURCE() == RCC_SYSCLKSOURCE_STATUS_HSI) 
 80009e8:	4c67      	ldr	r4, [pc, #412]	; (8000b88 <HAL_RCC_OscConfig+0x270>)
 80009ea:	6863      	ldr	r3, [r4, #4]
 80009ec:	f013 0f0c 	tst.w	r3, #12
 80009f0:	d007      	beq.n	8000a02 <HAL_RCC_OscConfig+0xea>
       || ((__HAL_RCC_GET_SYSCLK_SOURCE() == RCC_SYSCLKSOURCE_STATUS_PLLCLK) && (__HAL_RCC_GET_PLL_OSCSOURCE() == RCC_PLLSOURCE_HSI_DIV2)))
 80009f2:	6863      	ldr	r3, [r4, #4]
 80009f4:	f003 030c 	and.w	r3, r3, #12
 80009f8:	2b08      	cmp	r3, #8
 80009fa:	d110      	bne.n	8000a1e <HAL_RCC_OscConfig+0x106>
 80009fc:	6863      	ldr	r3, [r4, #4]
 80009fe:	03da      	lsls	r2, r3, #15
 8000a00:	d40d      	bmi.n	8000a1e <HAL_RCC_OscConfig+0x106>
      if((__HAL_RCC_GET_FLAG(RCC_FLAG_HSIRDY) != RESET) && (RCC_OscInitStruct->HSIState != RCC_HSI_ON))
 8000a02:	6823      	ldr	r3, [r4, #0]
 8000a04:	079b      	lsls	r3, r3, #30
 8000a06:	d502      	bpl.n	8000a0e <HAL_RCC_OscConfig+0xf6>
 8000a08:	692b      	ldr	r3, [r5, #16]
 8000a0a:	2b01      	cmp	r3, #1
 8000a0c:	d1af      	bne.n	800096e <HAL_RCC_OscConfig+0x56>
        __HAL_RCC_HSI_CALIBRATIONVALUE_ADJUST(RCC_OscInitStruct->HSICalibrationValue);
 8000a0e:	6823      	ldr	r3, [r4, #0]
 8000a10:	696a      	ldr	r2, [r5, #20]
 8000a12:	f023 03f8 	bic.w	r3, r3, #248	; 0xf8
 8000a16:	ea43 03c2 	orr.w	r3, r3, r2, lsl #3
 8000a1a:	6023      	str	r3, [r4, #0]
 8000a1c:	e785      	b.n	800092a <HAL_RCC_OscConfig+0x12>
      if(RCC_OscInitStruct->HSIState != RCC_HSI_OFF)
 8000a1e:	692a      	ldr	r2, [r5, #16]
 8000a20:	4b5a      	ldr	r3, [pc, #360]	; (8000b8c <HAL_RCC_OscConfig+0x274>)
 8000a22:	b16a      	cbz	r2, 8000a40 <HAL_RCC_OscConfig+0x128>
        __HAL_RCC_HSI_ENABLE();
 8000a24:	2201      	movs	r2, #1
 8000a26:	601a      	str	r2, [r3, #0]
        tickstart = HAL_GetTick();
 8000a28:	f7ff fbd2 	bl	80001d0 <HAL_GetTick>
 8000a2c:	4606      	mov	r6, r0
        while(__HAL_RCC_GET_FLAG(RCC_FLAG_HSIRDY) == RESET)
 8000a2e:	6823      	ldr	r3, [r4, #0]
 8000a30:	079f      	lsls	r7, r3, #30
 8000a32:	d4ec      	bmi.n	8000a0e <HAL_RCC_OscConfig+0xf6>
          if((HAL_GetTick() - tickstart ) > HSI_TIMEOUT_VALUE)
 8000a34:	f7ff fbcc 	bl	80001d0 <HAL_GetTick>
 8000a38:	1b80      	subs	r0, r0, r6
 8000a3a:	2802      	cmp	r0, #2
 8000a3c:	d9f7      	bls.n	8000a2e <HAL_RCC_OscConfig+0x116>
 8000a3e:	e7ad      	b.n	800099c <HAL_RCC_OscConfig+0x84>
        __HAL_RCC_HSI_DISABLE();
 8000a40:	601a      	str	r2, [r3, #0]
        tickstart = HAL_GetTick();
 8000a42:	f7ff fbc5 	bl	80001d0 <HAL_GetTick>
 8000a46:	4606      	mov	r6, r0
        while(__HAL_RCC_GET_FLAG(RCC_FLAG_HSIRDY) != RESET)
 8000a48:	6823      	ldr	r3, [r4, #0]
 8000a4a:	0798      	lsls	r0, r3, #30
 8000a4c:	f57f af6d 	bpl.w	800092a <HAL_RCC_OscConfig+0x12>
          if((HAL_GetTick() - tickstart ) > HSI_TIMEOUT_VALUE)
 8000a50:	f7ff fbbe 	bl	80001d0 <HAL_GetTick>
 8000a54:	1b80      	subs	r0, r0, r6
 8000a56:	2802      	cmp	r0, #2
 8000a58:	d9f6      	bls.n	8000a48 <HAL_RCC_OscConfig+0x130>
 8000a5a:	e79f      	b.n	800099c <HAL_RCC_OscConfig+0x84>
    if(RCC_OscInitStruct->LSIState != RCC_LSI_OFF)
 8000a5c:	69aa      	ldr	r2, [r5, #24]
 8000a5e:	4c4a      	ldr	r4, [pc, #296]	; (8000b88 <HAL_RCC_OscConfig+0x270>)
 8000a60:	4b4b      	ldr	r3, [pc, #300]	; (8000b90 <HAL_RCC_OscConfig+0x278>)
 8000a62:	b1da      	cbz	r2, 8000a9c <HAL_RCC_OscConfig+0x184>
      __HAL_RCC_LSI_ENABLE();
 8000a64:	2201      	movs	r2, #1
 8000a66:	601a      	str	r2, [r3, #0]
      tickstart = HAL_GetTick();
 8000a68:	f7ff fbb2 	bl	80001d0 <HAL_GetTick>
 8000a6c:	4606      	mov	r6, r0
      while(__HAL_RCC_GET_FLAG(RCC_FLAG_LSIRDY) == RESET)
 8000a6e:	6a63      	ldr	r3, [r4, #36]	; 0x24
 8000a70:	079b      	lsls	r3, r3, #30
 8000a72:	d50d      	bpl.n	8000a90 <HAL_RCC_OscConfig+0x178>
  * @param  mdelay: specifies the delay time length, in milliseconds.
  * @retval None
  */
static void RCC_Delay(uint32_t mdelay)
{
  __IO uint32_t Delay = mdelay * (SystemCoreClock / 8U / 1000U);
 8000a74:	f44f 52fa 	mov.w	r2, #8000	; 0x1f40
 8000a78:	4b46      	ldr	r3, [pc, #280]	; (8000b94 <HAL_RCC_OscConfig+0x27c>)
 8000a7a:	681b      	ldr	r3, [r3, #0]
 8000a7c:	fbb3 f3f2 	udiv	r3, r3, r2
 8000a80:	9301      	str	r3, [sp, #4]
  \brief   No Operation
  \details No Operation does nothing. This instruction can be used for code alignment purposes.
 */
__attribute__((always_inline)) __STATIC_INLINE void __NOP(void)
{
  __ASM volatile ("nop");
 8000a82:	bf00      	nop
  do 
  {
    __NOP();
  } 
  while (Delay --);
 8000a84:	9b01      	ldr	r3, [sp, #4]
 8000a86:	1e5a      	subs	r2, r3, #1
 8000a88:	9201      	str	r2, [sp, #4]
 8000a8a:	2b00      	cmp	r3, #0
 8000a8c:	d1f9      	bne.n	8000a82 <HAL_RCC_OscConfig+0x16a>
 8000a8e:	e750      	b.n	8000932 <HAL_RCC_OscConfig+0x1a>
        if((HAL_GetTick() - tickstart ) > LSI_TIMEOUT_VALUE)
 8000a90:	f7ff fb9e 	bl	80001d0 <HAL_GetTick>
 8000a94:	1b80      	subs	r0, r0, r6
 8000a96:	2802      	cmp	r0, #2
 8000a98:	d9e9      	bls.n	8000a6e <HAL_RCC_OscConfig+0x156>
 8000a9a:	e77f      	b.n	800099c <HAL_RCC_OscConfig+0x84>
      __HAL_RCC_LSI_DISABLE();
 8000a9c:	601a      	str	r2, [r3, #0]
      tickstart = HAL_GetTick();
 8000a9e:	f7ff fb97 	bl	80001d0 <HAL_GetTick>
 8000aa2:	4606      	mov	r6, r0
      while(__HAL_RCC_GET_FLAG(RCC_FLAG_LSIRDY) != RESET)
 8000aa4:	6a63      	ldr	r3, [r4, #36]	; 0x24
 8000aa6:	079f      	lsls	r7, r3, #30
 8000aa8:	f57f af43 	bpl.w	8000932 <HAL_RCC_OscConfig+0x1a>
        if((HAL_GetTick() - tickstart ) > LSI_TIMEOUT_VALUE)
 8000aac:	f7ff fb90 	bl	80001d0 <HAL_GetTick>
 8000ab0:	1b80      	subs	r0, r0, r6
 8000ab2:	2802      	cmp	r0, #2
 8000ab4:	d9f6      	bls.n	8000aa4 <HAL_RCC_OscConfig+0x18c>
 8000ab6:	e771      	b.n	800099c <HAL_RCC_OscConfig+0x84>
    if(__HAL_RCC_PWR_IS_CLK_DISABLED())
 8000ab8:	4c33      	ldr	r4, [pc, #204]	; (8000b88 <HAL_RCC_OscConfig+0x270>)
 8000aba:	69e3      	ldr	r3, [r4, #28]
 8000abc:	00d8      	lsls	r0, r3, #3
 8000abe:	d424      	bmi.n	8000b0a <HAL_RCC_OscConfig+0x1f2>
      pwrclkchanged = SET;
 8000ac0:	2701      	movs	r7, #1
      __HAL_RCC_PWR_CLK_ENABLE();
 8000ac2:	69e3      	ldr	r3, [r4, #28]
 8000ac4:	f043 5380 	orr.w	r3, r3, #268435456	; 0x10000000
 8000ac8:	61e3      	str	r3, [r4, #28]
 8000aca:	69e3      	ldr	r3, [r4, #28]
 8000acc:	f003 5380 	and.w	r3, r3, #268435456	; 0x10000000
 8000ad0:	9300      	str	r3, [sp, #0]
 8000ad2:	9b00      	ldr	r3, [sp, #0]
    if(HAL_IS_BIT_CLR(PWR->CR, PWR_CR_DBP))
 8000ad4:	4e30      	ldr	r6, [pc, #192]	; (8000b98 <HAL_RCC_OscConfig+0x280>)
 8000ad6:	6833      	ldr	r3, [r6, #0]
 8000ad8:	05d9      	lsls	r1, r3, #23
 8000ada:	d518      	bpl.n	8000b0e <HAL_RCC_OscConfig+0x1f6>
    __HAL_RCC_LSE_CONFIG(RCC_OscInitStruct->LSEState);
 8000adc:	68eb      	ldr	r3, [r5, #12]
 8000ade:	2b01      	cmp	r3, #1
 8000ae0:	d126      	bne.n	8000b30 <HAL_RCC_OscConfig+0x218>
 8000ae2:	6a23      	ldr	r3, [r4, #32]
 8000ae4:	f043 0301 	orr.w	r3, r3, #1
 8000ae8:	6223      	str	r3, [r4, #32]
      tickstart = HAL_GetTick();
 8000aea:	f7ff fb71 	bl	80001d0 <HAL_GetTick>
        if((HAL_GetTick() - tickstart ) > RCC_LSE_TIMEOUT_VALUE)
 8000aee:	f241 3688 	movw	r6, #5000	; 0x1388
      tickstart = HAL_GetTick();
 8000af2:	4680      	mov	r8, r0
      while(__HAL_RCC_GET_FLAG(RCC_FLAG_LSERDY) == RESET)
 8000af4:	6a23      	ldr	r3, [r4, #32]
 8000af6:	079b      	lsls	r3, r3, #30
 8000af8:	d53f      	bpl.n	8000b7a <HAL_RCC_OscConfig+0x262>
    if(pwrclkchanged == SET)
 8000afa:	2f00      	cmp	r7, #0
 8000afc:	f43f af1d 	beq.w	800093a <HAL_RCC_OscConfig+0x22>
      __HAL_RCC_PWR_CLK_DISABLE();
 8000b00:	69e3      	ldr	r3, [r4, #28]
 8000b02:	f023 5380 	bic.w	r3, r3, #268435456	; 0x10000000
 8000b06:	61e3      	str	r3, [r4, #28]
 8000b08:	e717      	b.n	800093a <HAL_RCC_OscConfig+0x22>
    FlagStatus       pwrclkchanged = RESET;
 8000b0a:	2700      	movs	r7, #0
 8000b0c:	e7e2      	b.n	8000ad4 <HAL_RCC_OscConfig+0x1bc>
      SET_BIT(PWR->CR, PWR_CR_DBP);
 8000b0e:	6833      	ldr	r3, [r6, #0]
 8000b10:	f443 7380 	orr.w	r3, r3, #256	; 0x100
 8000b14:	6033      	str	r3, [r6, #0]
      tickstart = HAL_GetTick();
 8000b16:	f7ff fb5b 	bl	80001d0 <HAL_GetTick>
 8000b1a:	4680      	mov	r8, r0
      while(HAL_IS_BIT_CLR(PWR->CR, PWR_CR_DBP))
 8000b1c:	6833      	ldr	r3, [r6, #0]
 8000b1e:	05da      	lsls	r2, r3, #23
 8000b20:	d4dc      	bmi.n	8000adc <HAL_RCC_OscConfig+0x1c4>
        if((HAL_GetTick() - tickstart) > RCC_DBP_TIMEOUT_VALUE)
 8000b22:	f7ff fb55 	bl	80001d0 <HAL_GetTick>
 8000b26:	eba0 0008 	sub.w	r0, r0, r8
 8000b2a:	2864      	cmp	r0, #100	; 0x64
 8000b2c:	d9f6      	bls.n	8000b1c <HAL_RCC_OscConfig+0x204>
 8000b2e:	e735      	b.n	800099c <HAL_RCC_OscConfig+0x84>
    __HAL_RCC_LSE_CONFIG(RCC_OscInitStruct->LSEState);
 8000b30:	b9ab      	cbnz	r3, 8000b5e <HAL_RCC_OscConfig+0x246>
 8000b32:	6a23      	ldr	r3, [r4, #32]
        if((HAL_GetTick() - tickstart ) > RCC_LSE_TIMEOUT_VALUE)
 8000b34:	f241 3888 	movw	r8, #5000	; 0x1388
    __HAL_RCC_LSE_CONFIG(RCC_OscInitStruct->LSEState);
 8000b38:	f023 0301 	bic.w	r3, r3, #1
 8000b3c:	6223      	str	r3, [r4, #32]
 8000b3e:	6a23      	ldr	r3, [r4, #32]
 8000b40:	f023 0304 	bic.w	r3, r3, #4
 8000b44:	6223      	str	r3, [r4, #32]
      tickstart = HAL_GetTick();
 8000b46:	f7ff fb43 	bl	80001d0 <HAL_GetTick>
 8000b4a:	4606      	mov	r6, r0
      while(__HAL_RCC_GET_FLAG(RCC_FLAG_LSERDY) != RESET)
 8000b4c:	6a23      	ldr	r3, [r4, #32]
 8000b4e:	0798      	lsls	r0, r3, #30
 8000b50:	d5d3      	bpl.n	8000afa <HAL_RCC_OscConfig+0x1e2>
        if((HAL_GetTick() - tickstart ) > RCC_LSE_TIMEOUT_VALUE)
 8000b52:	f7ff fb3d 	bl	80001d0 <HAL_GetTick>
 8000b56:	1b80      	subs	r0, r0, r6
 8000b58:	4540      	cmp	r0, r8
 8000b5a:	d9f7      	bls.n	8000b4c <HAL_RCC_OscConfig+0x234>
 8000b5c:	e71e      	b.n	800099c <HAL_RCC_OscConfig+0x84>
    __HAL_RCC_LSE_CONFIG(RCC_OscInitStruct->LSEState);
 8000b5e:	2b05      	cmp	r3, #5
 8000b60:	6a23      	ldr	r3, [r4, #32]
 8000b62:	d103      	bne.n	8000b6c <HAL_RCC_OscConfig+0x254>
 8000b64:	f043 0304 	orr.w	r3, r3, #4
 8000b68:	6223      	str	r3, [r4, #32]
 8000b6a:	e7ba      	b.n	8000ae2 <HAL_RCC_OscConfig+0x1ca>
 8000b6c:	f023 0301 	bic.w	r3, r3, #1
 8000b70:	6223      	str	r3, [r4, #32]
 8000b72:	6a23      	ldr	r3, [r4, #32]
 8000b74:	f023 0304 	bic.w	r3, r3, #4
 8000b78:	e7b6      	b.n	8000ae8 <HAL_RCC_OscConfig+0x1d0>
        if((HAL_GetTick() - tickstart ) > RCC_LSE_TIMEOUT_VALUE)
 8000b7a:	f7ff fb29 	bl	80001d0 <HAL_GetTick>
 8000b7e:	eba0 0008 	sub.w	r0, r0, r8
 8000b82:	42b0      	cmp	r0, r6
 8000b84:	d9b6      	bls.n	8000af4 <HAL_RCC_OscConfig+0x1dc>
 8000b86:	e709      	b.n	800099c <HAL_RCC_OscConfig+0x84>
 8000b88:	40021000 	.word	0x40021000
 8000b8c:	42420000 	.word	0x42420000
 8000b90:	42420480 	.word	0x42420480
 8000b94:	2000000c 	.word	0x2000000c
 8000b98:	40007000 	.word	0x40007000
    if(__HAL_RCC_GET_SYSCLK_SOURCE() != RCC_SYSCLKSOURCE_STATUS_PLLCLK)
 8000b9c:	4c22      	ldr	r4, [pc, #136]	; (8000c28 <HAL_RCC_OscConfig+0x310>)
 8000b9e:	6863      	ldr	r3, [r4, #4]
 8000ba0:	f003 030c 	and.w	r3, r3, #12
 8000ba4:	2b08      	cmp	r3, #8
 8000ba6:	f43f aee2 	beq.w	800096e <HAL_RCC_OscConfig+0x56>
 8000baa:	2300      	movs	r3, #0
 8000bac:	4e1f      	ldr	r6, [pc, #124]	; (8000c2c <HAL_RCC_OscConfig+0x314>)
      if((RCC_OscInitStruct->PLL.PLLState) == RCC_PLL_ON)
 8000bae:	2a02      	cmp	r2, #2
        __HAL_RCC_PLL_DISABLE();
 8000bb0:	6033      	str	r3, [r6, #0]
      if((RCC_OscInitStruct->PLL.PLLState) == RCC_PLL_ON)
 8000bb2:	d12b      	bne.n	8000c0c <HAL_RCC_OscConfig+0x2f4>
        tickstart = HAL_GetTick();
 8000bb4:	f7ff fb0c 	bl	80001d0 <HAL_GetTick>
 8000bb8:	4607      	mov	r7, r0
        while(__HAL_RCC_GET_FLAG(RCC_FLAG_PLLRDY)  != RESET)
 8000bba:	6823      	ldr	r3, [r4, #0]
 8000bbc:	0199      	lsls	r1, r3, #6
 8000bbe:	d41f      	bmi.n	8000c00 <HAL_RCC_OscConfig+0x2e8>
        if(RCC_OscInitStruct->PLL.PLLSource == RCC_PLLSOURCE_HSE)
 8000bc0:	6a2b      	ldr	r3, [r5, #32]
 8000bc2:	f5b3 3f80 	cmp.w	r3, #65536	; 0x10000
 8000bc6:	d105      	bne.n	8000bd4 <HAL_RCC_OscConfig+0x2bc>
          __HAL_RCC_HSE_PREDIV_CONFIG(RCC_OscInitStruct->HSEPredivValue);
 8000bc8:	6862      	ldr	r2, [r4, #4]
 8000bca:	68a9      	ldr	r1, [r5, #8]
 8000bcc:	f422 3200 	bic.w	r2, r2, #131072	; 0x20000
 8000bd0:	430a      	orrs	r2, r1
 8000bd2:	6062      	str	r2, [r4, #4]
        __HAL_RCC_PLL_CONFIG(RCC_OscInitStruct->PLL.PLLSource,
 8000bd4:	6a69      	ldr	r1, [r5, #36]	; 0x24
 8000bd6:	6862      	ldr	r2, [r4, #4]
 8000bd8:	430b      	orrs	r3, r1
 8000bda:	f422 1274 	bic.w	r2, r2, #3997696	; 0x3d0000
 8000bde:	4313      	orrs	r3, r2
 8000be0:	6063      	str	r3, [r4, #4]
        __HAL_RCC_PLL_ENABLE();
 8000be2:	2301      	movs	r3, #1
 8000be4:	6033      	str	r3, [r6, #0]
        tickstart = HAL_GetTick();
 8000be6:	f7ff faf3 	bl	80001d0 <HAL_GetTick>
 8000bea:	4605      	mov	r5, r0
        while(__HAL_RCC_GET_FLAG(RCC_FLAG_PLLRDY)  == RESET)
 8000bec:	6823      	ldr	r3, [r4, #0]
 8000bee:	019a      	lsls	r2, r3, #6
 8000bf0:	f53f aea7 	bmi.w	8000942 <HAL_RCC_OscConfig+0x2a>
          if((HAL_GetTick() - tickstart ) > PLL_TIMEOUT_VALUE)
 8000bf4:	f7ff faec 	bl	80001d0 <HAL_GetTick>
 8000bf8:	1b40      	subs	r0, r0, r5
 8000bfa:	2802      	cmp	r0, #2
 8000bfc:	d9f6      	bls.n	8000bec <HAL_RCC_OscConfig+0x2d4>
 8000bfe:	e6cd      	b.n	800099c <HAL_RCC_OscConfig+0x84>
          if((HAL_GetTick() - tickstart ) > PLL_TIMEOUT_VALUE)
 8000c00:	f7ff fae6 	bl	80001d0 <HAL_GetTick>
 8000c04:	1bc0      	subs	r0, r0, r7
 8000c06:	2802      	cmp	r0, #2
 8000c08:	d9d7      	bls.n	8000bba <HAL_RCC_OscConfig+0x2a2>
 8000c0a:	e6c7      	b.n	800099c <HAL_RCC_OscConfig+0x84>
        tickstart = HAL_GetTick();
 8000c0c:	f7ff fae0 	bl	80001d0 <HAL_GetTick>
 8000c10:	4605      	mov	r5, r0
        while(__HAL_RCC_GET_FLAG(RCC_FLAG_PLLRDY)  != RESET)
 8000c12:	6823      	ldr	r3, [r4, #0]
 8000c14:	019b      	lsls	r3, r3, #6
 8000c16:	f57f ae94 	bpl.w	8000942 <HAL_RCC_OscConfig+0x2a>
          if((HAL_GetTick() - tickstart ) > PLL_TIMEOUT_VALUE)
 8000c1a:	f7ff fad9 	bl	80001d0 <HAL_GetTick>
 8000c1e:	1b40      	subs	r0, r0, r5
 8000c20:	2802      	cmp	r0, #2
 8000c22:	d9f6      	bls.n	8000c12 <HAL_RCC_OscConfig+0x2fa>
 8000c24:	e6ba      	b.n	800099c <HAL_RCC_OscConfig+0x84>
 8000c26:	bf00      	nop
 8000c28:	40021000 	.word	0x40021000
 8000c2c:	42420060 	.word	0x42420060

08000c30 <HAL_RCC_GetSysClockFreq>:
{
 8000c30:	b530      	push	{r4, r5, lr}
  const uint8_t aPLLMULFactorTable[16] = {2, 3, 4, 5, 6, 7, 8, 9, 10, 11, 12, 13, 14, 15, 16, 16};
 8000c32:	4b19      	ldr	r3, [pc, #100]	; (8000c98 <HAL_RCC_GetSysClockFreq+0x68>)
{
 8000c34:	b087      	sub	sp, #28
  const uint8_t aPLLMULFactorTable[16] = {2, 3, 4, 5, 6, 7, 8, 9, 10, 11, 12, 13, 14, 15, 16, 16};
 8000c36:	ac02      	add	r4, sp, #8
 8000c38:	f103 0510 	add.w	r5, r3, #16
 8000c3c:	4622      	mov	r2, r4
 8000c3e:	6818      	ldr	r0, [r3, #0]
 8000c40:	6859      	ldr	r1, [r3, #4]
 8000c42:	3308      	adds	r3, #8
 8000c44:	c203      	stmia	r2!, {r0, r1}
 8000c46:	42ab      	cmp	r3, r5
 8000c48:	4614      	mov	r4, r2
 8000c4a:	d1f7      	bne.n	8000c3c <HAL_RCC_GetSysClockFreq+0xc>
  const uint8_t aPredivFactorTable[2] = {1, 2};
 8000c4c:	2301      	movs	r3, #1
 8000c4e:	f88d 3004 	strb.w	r3, [sp, #4]
 8000c52:	2302      	movs	r3, #2
  tmpreg = RCC->CFGR;
 8000c54:	4911      	ldr	r1, [pc, #68]	; (8000c9c <HAL_RCC_GetSysClockFreq+0x6c>)
  const uint8_t aPredivFactorTable[2] = {1, 2};
 8000c56:	f88d 3005 	strb.w	r3, [sp, #5]
  tmpreg = RCC->CFGR;
 8000c5a:	684b      	ldr	r3, [r1, #4]
  switch (tmpreg & RCC_CFGR_SWS)
 8000c5c:	f003 020c 	and.w	r2, r3, #12
 8000c60:	2a08      	cmp	r2, #8
 8000c62:	d117      	bne.n	8000c94 <HAL_RCC_GetSysClockFreq+0x64>
      pllmul = aPLLMULFactorTable[(uint32_t)(tmpreg & RCC_CFGR_PLLMULL) >> RCC_CFGR_PLLMULL_Pos];
 8000c64:	f3c3 4283 	ubfx	r2, r3, #18, #4
 8000c68:	a806      	add	r0, sp, #24
 8000c6a:	4402      	add	r2, r0
      if ((tmpreg & RCC_CFGR_PLLSRC) != RCC_PLLSOURCE_HSI_DIV2)
 8000c6c:	03db      	lsls	r3, r3, #15
      pllmul = aPLLMULFactorTable[(uint32_t)(tmpreg & RCC_CFGR_PLLMULL) >> RCC_CFGR_PLLMULL_Pos];
 8000c6e:	f812 2c10 	ldrb.w	r2, [r2, #-16]
      if ((tmpreg & RCC_CFGR_PLLSRC) != RCC_PLLSOURCE_HSI_DIV2)
 8000c72:	d50c      	bpl.n	8000c8e <HAL_RCC_GetSysClockFreq+0x5e>
        prediv = aPredivFactorTable[(uint32_t)(RCC->CFGR & RCC_CFGR_PLLXTPRE) >> RCC_CFGR_PLLXTPRE_Pos];
 8000c74:	684b      	ldr	r3, [r1, #4]
        pllclk = (uint32_t)((HSE_VALUE  * pllmul) / prediv);
 8000c76:	480a      	ldr	r0, [pc, #40]	; (8000ca0 <HAL_RCC_GetSysClockFreq+0x70>)
        prediv = aPredivFactorTable[(uint32_t)(RCC->CFGR & RCC_CFGR_PLLXTPRE) >> RCC_CFGR_PLLXTPRE_Pos];
 8000c78:	f3c3 4340 	ubfx	r3, r3, #17, #1
        pllclk = (uint32_t)((HSE_VALUE  * pllmul) / prediv);
 8000c7c:	4350      	muls	r0, r2
        prediv = aPredivFactorTable[(uint32_t)(RCC->CFGR & RCC_CFGR_PLLXTPRE) >> RCC_CFGR_PLLXTPRE_Pos];
 8000c7e:	aa06      	add	r2, sp, #24
 8000c80:	4413      	add	r3, r2
 8000c82:	f813 3c14 	ldrb.w	r3, [r3, #-20]
        pllclk = (uint32_t)((HSE_VALUE  * pllmul) / prediv);
 8000c86:	fbb0 f0f3 	udiv	r0, r0, r3
}
 8000c8a:	b007      	add	sp, #28
 8000c8c:	bd30      	pop	{r4, r5, pc}
        pllclk = (uint32_t)((HSI_VALUE >> 1) * pllmul);
 8000c8e:	4805      	ldr	r0, [pc, #20]	; (8000ca4 <HAL_RCC_GetSysClockFreq+0x74>)
 8000c90:	4350      	muls	r0, r2
 8000c92:	e7fa      	b.n	8000c8a <HAL_RCC_GetSysClockFreq+0x5a>
      sysclockfreq = HSE_VALUE;
 8000c94:	4802      	ldr	r0, [pc, #8]	; (8000ca0 <HAL_RCC_GetSysClockFreq+0x70>)
  return sysclockfreq;
 8000c96:	e7f8      	b.n	8000c8a <HAL_RCC_GetSysClockFreq+0x5a>
 8000c98:	08005770 	.word	0x08005770
 8000c9c:	40021000 	.word	0x40021000
 8000ca0:	007a1200 	.word	0x007a1200
 8000ca4:	003d0900 	.word	0x003d0900

08000ca8 <HAL_RCC_ClockConfig>:
  if(FLatency > (FLASH->ACR & FLASH_ACR_LATENCY))
 8000ca8:	4a54      	ldr	r2, [pc, #336]	; (8000dfc <HAL_RCC_ClockConfig+0x154>)
{
 8000caa:	e92d 41f0 	stmdb	sp!, {r4, r5, r6, r7, r8, lr}
  if(FLatency > (FLASH->ACR & FLASH_ACR_LATENCY))
 8000cae:	6813      	ldr	r3, [r2, #0]
{
 8000cb0:	4605      	mov	r5, r0
  if(FLatency > (FLASH->ACR & FLASH_ACR_LATENCY))
 8000cb2:	f003 0307 	and.w	r3, r3, #7
 8000cb6:	428b      	cmp	r3, r1
{
 8000cb8:	460e      	mov	r6, r1
  if(FLatency > (FLASH->ACR & FLASH_ACR_LATENCY))
 8000cba:	d32a      	bcc.n	8000d12 <HAL_RCC_ClockConfig+0x6a>
  if(((RCC_ClkInitStruct->ClockType) & RCC_CLOCKTYPE_HCLK) == RCC_CLOCKTYPE_HCLK)
 8000cbc:	6829      	ldr	r1, [r5, #0]
 8000cbe:	078c      	lsls	r4, r1, #30
 8000cc0:	d434      	bmi.n	8000d2c <HAL_RCC_ClockConfig+0x84>
  if(((RCC_ClkInitStruct->ClockType) & RCC_CLOCKTYPE_SYSCLK) == RCC_CLOCKTYPE_SYSCLK)
 8000cc2:	07ca      	lsls	r2, r1, #31
 8000cc4:	d447      	bmi.n	8000d56 <HAL_RCC_ClockConfig+0xae>
  if(FLatency < (FLASH->ACR & FLASH_ACR_LATENCY))
 8000cc6:	4a4d      	ldr	r2, [pc, #308]	; (8000dfc <HAL_RCC_ClockConfig+0x154>)
 8000cc8:	6813      	ldr	r3, [r2, #0]
 8000cca:	f003 0307 	and.w	r3, r3, #7
 8000cce:	429e      	cmp	r6, r3
 8000cd0:	f0c0 8082 	bcc.w	8000dd8 <HAL_RCC_ClockConfig+0x130>
  if(((RCC_ClkInitStruct->ClockType) & RCC_CLOCKTYPE_PCLK1) == RCC_CLOCKTYPE_PCLK1)
 8000cd4:	682a      	ldr	r2, [r5, #0]
 8000cd6:	4c4a      	ldr	r4, [pc, #296]	; (8000e00 <HAL_RCC_ClockConfig+0x158>)
 8000cd8:	f012 0f04 	tst.w	r2, #4
 8000cdc:	f040 8087 	bne.w	8000dee <HAL_RCC_ClockConfig+0x146>
  if(((RCC_ClkInitStruct->ClockType) & RCC_CLOCKTYPE_PCLK2) == RCC_CLOCKTYPE_PCLK2)
 8000ce0:	0713      	lsls	r3, r2, #28
 8000ce2:	d506      	bpl.n	8000cf2 <HAL_RCC_ClockConfig+0x4a>
    MODIFY_REG(RCC->CFGR, RCC_CFGR_PPRE2, ((RCC_ClkInitStruct->APB2CLKDivider) << 3));
 8000ce4:	6863      	ldr	r3, [r4, #4]
 8000ce6:	692a      	ldr	r2, [r5, #16]
 8000ce8:	f423 5360 	bic.w	r3, r3, #14336	; 0x3800
 8000cec:	ea43 03c2 	orr.w	r3, r3, r2, lsl #3
 8000cf0:	6063      	str	r3, [r4, #4]
  SystemCoreClock = HAL_RCC_GetSysClockFreq() >> AHBPrescTable[(RCC->CFGR & RCC_CFGR_HPRE)>> RCC_CFGR_HPRE_Pos];
 8000cf2:	f7ff ff9d 	bl	8000c30 <HAL_RCC_GetSysClockFreq>
 8000cf6:	6863      	ldr	r3, [r4, #4]
 8000cf8:	4a42      	ldr	r2, [pc, #264]	; (8000e04 <HAL_RCC_ClockConfig+0x15c>)
 8000cfa:	f3c3 1303 	ubfx	r3, r3, #4, #4
 8000cfe:	5cd3      	ldrb	r3, [r2, r3]
 8000d00:	40d8      	lsrs	r0, r3
 8000d02:	4b41      	ldr	r3, [pc, #260]	; (8000e08 <HAL_RCC_ClockConfig+0x160>)
 8000d04:	6018      	str	r0, [r3, #0]
  HAL_InitTick (TICK_INT_PRIORITY);
 8000d06:	2000      	movs	r0, #0
 8000d08:	f7ff fa20 	bl	800014c <HAL_InitTick>
  return HAL_OK;
 8000d0c:	2000      	movs	r0, #0
}
 8000d0e:	e8bd 81f0 	ldmia.w	sp!, {r4, r5, r6, r7, r8, pc}
    __HAL_FLASH_SET_LATENCY(FLatency);
 8000d12:	6813      	ldr	r3, [r2, #0]
 8000d14:	f023 0307 	bic.w	r3, r3, #7
 8000d18:	430b      	orrs	r3, r1
 8000d1a:	6013      	str	r3, [r2, #0]
    if((FLASH->ACR & FLASH_ACR_LATENCY) != FLatency)
 8000d1c:	6813      	ldr	r3, [r2, #0]
 8000d1e:	f003 0307 	and.w	r3, r3, #7
 8000d22:	4299      	cmp	r1, r3
 8000d24:	d0ca      	beq.n	8000cbc <HAL_RCC_ClockConfig+0x14>
      return HAL_ERROR;
 8000d26:	2001      	movs	r0, #1
 8000d28:	e8bd 81f0 	ldmia.w	sp!, {r4, r5, r6, r7, r8, pc}
 8000d2c:	4b34      	ldr	r3, [pc, #208]	; (8000e00 <HAL_RCC_ClockConfig+0x158>)
    if(((RCC_ClkInitStruct->ClockType) & RCC_CLOCKTYPE_PCLK1) == RCC_CLOCKTYPE_PCLK1)
 8000d2e:	f011 0f04 	tst.w	r1, #4
      MODIFY_REG(RCC->CFGR, RCC_CFGR_PPRE1, RCC_HCLK_DIV16);
 8000d32:	bf1e      	ittt	ne
 8000d34:	685a      	ldrne	r2, [r3, #4]
 8000d36:	f442 62e0 	orrne.w	r2, r2, #1792	; 0x700
 8000d3a:	605a      	strne	r2, [r3, #4]
    if(((RCC_ClkInitStruct->ClockType) & RCC_CLOCKTYPE_PCLK2) == RCC_CLOCKTYPE_PCLK2)
 8000d3c:	0708      	lsls	r0, r1, #28
      MODIFY_REG(RCC->CFGR, RCC_CFGR_PPRE2, (RCC_HCLK_DIV16 << 3));
 8000d3e:	bf42      	ittt	mi
 8000d40:	685a      	ldrmi	r2, [r3, #4]
 8000d42:	f442 5260 	orrmi.w	r2, r2, #14336	; 0x3800
 8000d46:	605a      	strmi	r2, [r3, #4]
    MODIFY_REG(RCC->CFGR, RCC_CFGR_HPRE, RCC_ClkInitStruct->AHBCLKDivider);
 8000d48:	685a      	ldr	r2, [r3, #4]
 8000d4a:	68a8      	ldr	r0, [r5, #8]
 8000d4c:	f022 02f0 	bic.w	r2, r2, #240	; 0xf0
 8000d50:	4302      	orrs	r2, r0
 8000d52:	605a      	str	r2, [r3, #4]
 8000d54:	e7b5      	b.n	8000cc2 <HAL_RCC_ClockConfig+0x1a>
    if(RCC_ClkInitStruct->SYSCLKSource == RCC_SYSCLKSOURCE_HSE)
 8000d56:	686a      	ldr	r2, [r5, #4]
 8000d58:	4c29      	ldr	r4, [pc, #164]	; (8000e00 <HAL_RCC_ClockConfig+0x158>)
 8000d5a:	2a01      	cmp	r2, #1
      if(__HAL_RCC_GET_FLAG(RCC_FLAG_HSERDY) == RESET)
 8000d5c:	6823      	ldr	r3, [r4, #0]
    if(RCC_ClkInitStruct->SYSCLKSource == RCC_SYSCLKSOURCE_HSE)
 8000d5e:	d11c      	bne.n	8000d9a <HAL_RCC_ClockConfig+0xf2>
      if(__HAL_RCC_GET_FLAG(RCC_FLAG_HSERDY) == RESET)
 8000d60:	f413 3f00 	tst.w	r3, #131072	; 0x20000
      if(__HAL_RCC_GET_FLAG(RCC_FLAG_HSIRDY) == RESET)
 8000d64:	d0df      	beq.n	8000d26 <HAL_RCC_ClockConfig+0x7e>
    __HAL_RCC_SYSCLK_CONFIG(RCC_ClkInitStruct->SYSCLKSource);
 8000d66:	6863      	ldr	r3, [r4, #4]
        if((HAL_GetTick() - tickstart ) > CLOCKSWITCH_TIMEOUT_VALUE)
 8000d68:	f241 3888 	movw	r8, #5000	; 0x1388
    __HAL_RCC_SYSCLK_CONFIG(RCC_ClkInitStruct->SYSCLKSource);
 8000d6c:	f023 0303 	bic.w	r3, r3, #3
 8000d70:	4313      	orrs	r3, r2
 8000d72:	6063      	str	r3, [r4, #4]
    tickstart = HAL_GetTick();
 8000d74:	f7ff fa2c 	bl	80001d0 <HAL_GetTick>
    if(RCC_ClkInitStruct->SYSCLKSource == RCC_SYSCLKSOURCE_HSE)
 8000d78:	686b      	ldr	r3, [r5, #4]
    tickstart = HAL_GetTick();
 8000d7a:	4607      	mov	r7, r0
    if(RCC_ClkInitStruct->SYSCLKSource == RCC_SYSCLKSOURCE_HSE)
 8000d7c:	2b01      	cmp	r3, #1
 8000d7e:	d114      	bne.n	8000daa <HAL_RCC_ClockConfig+0x102>
      while (__HAL_RCC_GET_SYSCLK_SOURCE() != RCC_SYSCLKSOURCE_STATUS_HSE)
 8000d80:	6863      	ldr	r3, [r4, #4]
 8000d82:	f003 030c 	and.w	r3, r3, #12
 8000d86:	2b04      	cmp	r3, #4
 8000d88:	d09d      	beq.n	8000cc6 <HAL_RCC_ClockConfig+0x1e>
        if((HAL_GetTick() - tickstart ) > CLOCKSWITCH_TIMEOUT_VALUE)
 8000d8a:	f7ff fa21 	bl	80001d0 <HAL_GetTick>
 8000d8e:	1bc0      	subs	r0, r0, r7
 8000d90:	4540      	cmp	r0, r8
 8000d92:	d9f5      	bls.n	8000d80 <HAL_RCC_ClockConfig+0xd8>
          return HAL_TIMEOUT;
 8000d94:	2003      	movs	r0, #3
 8000d96:	e8bd 81f0 	ldmia.w	sp!, {r4, r5, r6, r7, r8, pc}
    else if(RCC_ClkInitStruct->SYSCLKSource == RCC_SYSCLKSOURCE_PLLCLK)
 8000d9a:	2a02      	cmp	r2, #2
 8000d9c:	d102      	bne.n	8000da4 <HAL_RCC_ClockConfig+0xfc>
      if(__HAL_RCC_GET_FLAG(RCC_FLAG_PLLRDY) == RESET)
 8000d9e:	f013 7f00 	tst.w	r3, #33554432	; 0x2000000
 8000da2:	e7df      	b.n	8000d64 <HAL_RCC_ClockConfig+0xbc>
      if(__HAL_RCC_GET_FLAG(RCC_FLAG_HSIRDY) == RESET)
 8000da4:	f013 0f02 	tst.w	r3, #2
 8000da8:	e7dc      	b.n	8000d64 <HAL_RCC_ClockConfig+0xbc>
    else if(RCC_ClkInitStruct->SYSCLKSource == RCC_SYSCLKSOURCE_PLLCLK)
 8000daa:	2b02      	cmp	r3, #2
 8000dac:	d10f      	bne.n	8000dce <HAL_RCC_ClockConfig+0x126>
      while (__HAL_RCC_GET_SYSCLK_SOURCE() != RCC_SYSCLKSOURCE_STATUS_PLLCLK)
 8000dae:	6863      	ldr	r3, [r4, #4]
 8000db0:	f003 030c 	and.w	r3, r3, #12
 8000db4:	2b08      	cmp	r3, #8
 8000db6:	d086      	beq.n	8000cc6 <HAL_RCC_ClockConfig+0x1e>
        if((HAL_GetTick() - tickstart ) > CLOCKSWITCH_TIMEOUT_VALUE)
 8000db8:	f7ff fa0a 	bl	80001d0 <HAL_GetTick>
 8000dbc:	1bc0      	subs	r0, r0, r7
 8000dbe:	4540      	cmp	r0, r8
 8000dc0:	d9f5      	bls.n	8000dae <HAL_RCC_ClockConfig+0x106>
 8000dc2:	e7e7      	b.n	8000d94 <HAL_RCC_ClockConfig+0xec>
        if((HAL_GetTick() - tickstart ) > CLOCKSWITCH_TIMEOUT_VALUE)
 8000dc4:	f7ff fa04 	bl	80001d0 <HAL_GetTick>
 8000dc8:	1bc0      	subs	r0, r0, r7
 8000dca:	4540      	cmp	r0, r8
 8000dcc:	d8e2      	bhi.n	8000d94 <HAL_RCC_ClockConfig+0xec>
      while (__HAL_RCC_GET_SYSCLK_SOURCE() != RCC_SYSCLKSOURCE_STATUS_HSI)
 8000dce:	6863      	ldr	r3, [r4, #4]
 8000dd0:	f013 0f0c 	tst.w	r3, #12
 8000dd4:	d1f6      	bne.n	8000dc4 <HAL_RCC_ClockConfig+0x11c>
 8000dd6:	e776      	b.n	8000cc6 <HAL_RCC_ClockConfig+0x1e>
    __HAL_FLASH_SET_LATENCY(FLatency);
 8000dd8:	6813      	ldr	r3, [r2, #0]
 8000dda:	f023 0307 	bic.w	r3, r3, #7
 8000dde:	4333      	orrs	r3, r6
 8000de0:	6013      	str	r3, [r2, #0]
    if((FLASH->ACR & FLASH_ACR_LATENCY) != FLatency)
 8000de2:	6813      	ldr	r3, [r2, #0]
 8000de4:	f003 0307 	and.w	r3, r3, #7
 8000de8:	429e      	cmp	r6, r3
 8000dea:	d19c      	bne.n	8000d26 <HAL_RCC_ClockConfig+0x7e>
 8000dec:	e772      	b.n	8000cd4 <HAL_RCC_ClockConfig+0x2c>
    MODIFY_REG(RCC->CFGR, RCC_CFGR_PPRE1, RCC_ClkInitStruct->APB1CLKDivider);
 8000dee:	6863      	ldr	r3, [r4, #4]
 8000df0:	68e9      	ldr	r1, [r5, #12]
 8000df2:	f423 63e0 	bic.w	r3, r3, #1792	; 0x700
 8000df6:	430b      	orrs	r3, r1
 8000df8:	6063      	str	r3, [r4, #4]
 8000dfa:	e771      	b.n	8000ce0 <HAL_RCC_ClockConfig+0x38>
 8000dfc:	40022000 	.word	0x40022000
 8000e00:	40021000 	.word	0x40021000
 8000e04:	08005d64 	.word	0x08005d64
 8000e08:	2000000c 	.word	0x2000000c

08000e0c <HAL_RCC_GetPCLK1Freq>:
  return (HAL_RCC_GetHCLKFreq() >> APBPrescTable[(RCC->CFGR & RCC_CFGR_PPRE1) >> RCC_CFGR_PPRE1_Pos]);
 8000e0c:	4b04      	ldr	r3, [pc, #16]	; (8000e20 <HAL_RCC_GetPCLK1Freq+0x14>)
 8000e0e:	4a05      	ldr	r2, [pc, #20]	; (8000e24 <HAL_RCC_GetPCLK1Freq+0x18>)
 8000e10:	685b      	ldr	r3, [r3, #4]
 8000e12:	f3c3 2302 	ubfx	r3, r3, #8, #3
 8000e16:	5cd3      	ldrb	r3, [r2, r3]
 8000e18:	4a03      	ldr	r2, [pc, #12]	; (8000e28 <HAL_RCC_GetPCLK1Freq+0x1c>)
 8000e1a:	6810      	ldr	r0, [r2, #0]
}    
 8000e1c:	40d8      	lsrs	r0, r3
 8000e1e:	4770      	bx	lr
 8000e20:	40021000 	.word	0x40021000
 8000e24:	08005d74 	.word	0x08005d74
 8000e28:	2000000c 	.word	0x2000000c

08000e2c <HAL_RCC_GetPCLK2Freq>:
  return (HAL_RCC_GetHCLKFreq()>> APBPrescTable[(RCC->CFGR & RCC_CFGR_PPRE2) >> RCC_CFGR_PPRE2_Pos]);
 8000e2c:	4b04      	ldr	r3, [pc, #16]	; (8000e40 <HAL_RCC_GetPCLK2Freq+0x14>)
 8000e2e:	4a05      	ldr	r2, [pc, #20]	; (8000e44 <HAL_RCC_GetPCLK2Freq+0x18>)
 8000e30:	685b      	ldr	r3, [r3, #4]
 8000e32:	f3c3 23c2 	ubfx	r3, r3, #11, #3
 8000e36:	5cd3      	ldrb	r3, [r2, r3]
 8000e38:	4a03      	ldr	r2, [pc, #12]	; (8000e48 <HAL_RCC_GetPCLK2Freq+0x1c>)
 8000e3a:	6810      	ldr	r0, [r2, #0]
} 
 8000e3c:	40d8      	lsrs	r0, r3
 8000e3e:	4770      	bx	lr
 8000e40:	40021000 	.word	0x40021000
 8000e44:	08005d74 	.word	0x08005d74
 8000e48:	2000000c 	.word	0x2000000c

08000e4c <SPI_WaitFlagStateUntilTimeout>:
  * @param Timeout: Timeout duration
  * @param Tickstart: tick start value
  * @retval HAL status
  */
static HAL_StatusTypeDef SPI_WaitFlagStateUntilTimeout(SPI_HandleTypeDef *hspi, uint32_t Flag, uint32_t State, uint32_t Timeout, uint32_t Tickstart)
{
 8000e4c:	e92d 41f0 	stmdb	sp!, {r4, r5, r6, r7, r8, lr}
 8000e50:	4604      	mov	r4, r0
 8000e52:	4688      	mov	r8, r1
 8000e54:	4617      	mov	r7, r2
 8000e56:	461d      	mov	r5, r3
 8000e58:	9e06      	ldr	r6, [sp, #24]
  while((((hspi->Instance->SR & Flag) == (Flag)) ? SET : RESET) != State)
 8000e5a:	6822      	ldr	r2, [r4, #0]
 8000e5c:	6893      	ldr	r3, [r2, #8]
 8000e5e:	ea38 0303 	bics.w	r3, r8, r3
 8000e62:	bf0c      	ite	eq
 8000e64:	2301      	moveq	r3, #1
 8000e66:	2300      	movne	r3, #0
 8000e68:	429f      	cmp	r7, r3
 8000e6a:	d102      	bne.n	8000e72 <SPI_WaitFlagStateUntilTimeout+0x26>
        return HAL_TIMEOUT;
      }
    }
  }

  return HAL_OK;
 8000e6c:	2000      	movs	r0, #0
}
 8000e6e:	e8bd 81f0 	ldmia.w	sp!, {r4, r5, r6, r7, r8, pc}
    if(Timeout != HAL_MAX_DELAY)
 8000e72:	1c6b      	adds	r3, r5, #1
 8000e74:	d0f2      	beq.n	8000e5c <SPI_WaitFlagStateUntilTimeout+0x10>
      if((Timeout == 0U) || ((HAL_GetTick()-Tickstart) >= Timeout))
 8000e76:	bb55      	cbnz	r5, 8000ece <SPI_WaitFlagStateUntilTimeout+0x82>
        __HAL_SPI_DISABLE_IT(hspi, (SPI_IT_TXE | SPI_IT_RXNE | SPI_IT_ERR));
 8000e78:	6823      	ldr	r3, [r4, #0]
 8000e7a:	685a      	ldr	r2, [r3, #4]
 8000e7c:	f022 02e0 	bic.w	r2, r2, #224	; 0xe0
 8000e80:	605a      	str	r2, [r3, #4]
        if((hspi->Init.Mode == SPI_MODE_MASTER)&&((hspi->Init.Direction == SPI_DIRECTION_1LINE)||(hspi->Init.Direction == SPI_DIRECTION_2LINES_RXONLY)))
 8000e82:	6862      	ldr	r2, [r4, #4]
 8000e84:	f5b2 7f82 	cmp.w	r2, #260	; 0x104
 8000e88:	d10a      	bne.n	8000ea0 <SPI_WaitFlagStateUntilTimeout+0x54>
 8000e8a:	68a2      	ldr	r2, [r4, #8]
 8000e8c:	f5b2 4f00 	cmp.w	r2, #32768	; 0x8000
 8000e90:	d002      	beq.n	8000e98 <SPI_WaitFlagStateUntilTimeout+0x4c>
 8000e92:	f5b2 6f80 	cmp.w	r2, #1024	; 0x400
 8000e96:	d103      	bne.n	8000ea0 <SPI_WaitFlagStateUntilTimeout+0x54>
          __HAL_SPI_DISABLE(hspi);
 8000e98:	681a      	ldr	r2, [r3, #0]
 8000e9a:	f022 0240 	bic.w	r2, r2, #64	; 0x40
 8000e9e:	601a      	str	r2, [r3, #0]
        if(hspi->Init.CRCCalculation == SPI_CRCCALCULATION_ENABLE)
 8000ea0:	6aa2      	ldr	r2, [r4, #40]	; 0x28
 8000ea2:	f5b2 5f00 	cmp.w	r2, #8192	; 0x2000
 8000ea6:	d109      	bne.n	8000ebc <SPI_WaitFlagStateUntilTimeout+0x70>
          SPI_RESET_CRC(hspi);
 8000ea8:	681a      	ldr	r2, [r3, #0]
 8000eaa:	f422 5200 	bic.w	r2, r2, #8192	; 0x2000
 8000eae:	0412      	lsls	r2, r2, #16
 8000eb0:	0c12      	lsrs	r2, r2, #16
 8000eb2:	601a      	str	r2, [r3, #0]
 8000eb4:	681a      	ldr	r2, [r3, #0]
 8000eb6:	f442 5200 	orr.w	r2, r2, #8192	; 0x2000
 8000eba:	601a      	str	r2, [r3, #0]
        hspi->State= HAL_SPI_STATE_READY;
 8000ebc:	2301      	movs	r3, #1
 8000ebe:	f884 3051 	strb.w	r3, [r4, #81]	; 0x51
        __HAL_UNLOCK(hspi);
 8000ec2:	2300      	movs	r3, #0
 8000ec4:	2003      	movs	r0, #3
 8000ec6:	f884 3050 	strb.w	r3, [r4, #80]	; 0x50
 8000eca:	e8bd 81f0 	ldmia.w	sp!, {r4, r5, r6, r7, r8, pc}
      if((Timeout == 0U) || ((HAL_GetTick()-Tickstart) >= Timeout))
 8000ece:	f7ff f97f 	bl	80001d0 <HAL_GetTick>
 8000ed2:	1b80      	subs	r0, r0, r6
 8000ed4:	4285      	cmp	r5, r0
 8000ed6:	d8c0      	bhi.n	8000e5a <SPI_WaitFlagStateUntilTimeout+0xe>
 8000ed8:	e7ce      	b.n	8000e78 <SPI_WaitFlagStateUntilTimeout+0x2c>

08000eda <SPI_CheckFlag_BSY>:
  * @param Timeout: Timeout duration
  * @param Tickstart: tick start value
  * @retval HAL status
  */
static HAL_StatusTypeDef SPI_CheckFlag_BSY(SPI_HandleTypeDef *hspi, uint32_t Timeout, uint32_t Tickstart)
{
 8000eda:	b513      	push	{r0, r1, r4, lr}
  /* Control the BSY flag */
  if(SPI_WaitFlagStateUntilTimeout(hspi, SPI_FLAG_BSY, RESET, Timeout, Tickstart) != HAL_OK)
 8000edc:	460b      	mov	r3, r1
 8000ede:	9200      	str	r2, [sp, #0]
 8000ee0:	2180      	movs	r1, #128	; 0x80
 8000ee2:	2200      	movs	r2, #0
{
 8000ee4:	4604      	mov	r4, r0
  if(SPI_WaitFlagStateUntilTimeout(hspi, SPI_FLAG_BSY, RESET, Timeout, Tickstart) != HAL_OK)
 8000ee6:	f7ff ffb1 	bl	8000e4c <SPI_WaitFlagStateUntilTimeout>
 8000eea:	b120      	cbz	r0, 8000ef6 <SPI_CheckFlag_BSY+0x1c>
  {
    SET_BIT(hspi->ErrorCode, HAL_SPI_ERROR_FLAG);
    return HAL_TIMEOUT;
 8000eec:	2003      	movs	r0, #3
    SET_BIT(hspi->ErrorCode, HAL_SPI_ERROR_FLAG);
 8000eee:	6d63      	ldr	r3, [r4, #84]	; 0x54
 8000ef0:	f043 0320 	orr.w	r3, r3, #32
 8000ef4:	6563      	str	r3, [r4, #84]	; 0x54
  }
  return HAL_OK;
}
 8000ef6:	b002      	add	sp, #8
 8000ef8:	bd10      	pop	{r4, pc}

08000efa <HAL_SPI_Transmit>:
{
 8000efa:	e92d 41ff 	stmdb	sp!, {r0, r1, r2, r3, r4, r5, r6, r7, r8, lr}
 8000efe:	461e      	mov	r6, r3
  __HAL_LOCK(hspi);
 8000f00:	f890 3050 	ldrb.w	r3, [r0, #80]	; 0x50
{
 8000f04:	4604      	mov	r4, r0
  __HAL_LOCK(hspi);
 8000f06:	2b01      	cmp	r3, #1
{
 8000f08:	460d      	mov	r5, r1
 8000f0a:	4690      	mov	r8, r2
  __HAL_LOCK(hspi);
 8000f0c:	f000 809c 	beq.w	8001048 <HAL_SPI_Transmit+0x14e>
 8000f10:	2301      	movs	r3, #1
 8000f12:	f880 3050 	strb.w	r3, [r0, #80]	; 0x50
  tickstart = HAL_GetTick();
 8000f16:	f7ff f95b 	bl	80001d0 <HAL_GetTick>
 8000f1a:	4607      	mov	r7, r0
  if(hspi->State != HAL_SPI_STATE_READY)
 8000f1c:	f894 0051 	ldrb.w	r0, [r4, #81]	; 0x51
 8000f20:	b2c0      	uxtb	r0, r0
 8000f22:	2801      	cmp	r0, #1
 8000f24:	f040 808e 	bne.w	8001044 <HAL_SPI_Transmit+0x14a>
  if((pData == NULL ) || (Size == 0U))
 8000f28:	2d00      	cmp	r5, #0
 8000f2a:	d04e      	beq.n	8000fca <HAL_SPI_Transmit+0xd0>
 8000f2c:	f1b8 0f00 	cmp.w	r8, #0
 8000f30:	d04b      	beq.n	8000fca <HAL_SPI_Transmit+0xd0>
  hspi->State       = HAL_SPI_STATE_BUSY_TX;
 8000f32:	2303      	movs	r3, #3
 8000f34:	f884 3051 	strb.w	r3, [r4, #81]	; 0x51
  hspi->ErrorCode   = HAL_SPI_ERROR_NONE;
 8000f38:	2300      	movs	r3, #0
 8000f3a:	6563      	str	r3, [r4, #84]	; 0x54
  hspi->pRxBuffPtr  = (uint8_t *)NULL;
 8000f3c:	63a3      	str	r3, [r4, #56]	; 0x38
  hspi->TxXferCount = Size;
 8000f3e:	f8a4 8036 	strh.w	r8, [r4, #54]	; 0x36
  hspi->RxXferSize  = 0U;
 8000f42:	87a3      	strh	r3, [r4, #60]	; 0x3c
  hspi->RxXferCount = 0U;
 8000f44:	87e3      	strh	r3, [r4, #62]	; 0x3e
  hspi->TxISR       = NULL;
 8000f46:	6463      	str	r3, [r4, #68]	; 0x44
  hspi->RxISR       = NULL;
 8000f48:	6423      	str	r3, [r4, #64]	; 0x40
  if(hspi->Init.Direction == SPI_DIRECTION_1LINE)
 8000f4a:	68a3      	ldr	r3, [r4, #8]
  hspi->pTxBuffPtr  = (uint8_t *)pData;
 8000f4c:	6325      	str	r5, [r4, #48]	; 0x30
  if(hspi->Init.Direction == SPI_DIRECTION_1LINE)
 8000f4e:	f5b3 4f00 	cmp.w	r3, #32768	; 0x8000
 8000f52:	6823      	ldr	r3, [r4, #0]
  hspi->TxXferSize  = Size;
 8000f54:	f8a4 8034 	strh.w	r8, [r4, #52]	; 0x34
    SPI_1LINE_TX(hspi);
 8000f58:	bf02      	ittt	eq
 8000f5a:	681a      	ldreq	r2, [r3, #0]
 8000f5c:	f442 4280 	orreq.w	r2, r2, #16384	; 0x4000
 8000f60:	601a      	streq	r2, [r3, #0]
  if((hspi->Instance->CR1 & SPI_CR1_SPE) != SPI_CR1_SPE)
 8000f62:	681a      	ldr	r2, [r3, #0]
 8000f64:	0652      	lsls	r2, r2, #25
    __HAL_SPI_ENABLE(hspi);
 8000f66:	bf5e      	ittt	pl
 8000f68:	681a      	ldrpl	r2, [r3, #0]
 8000f6a:	f042 0240 	orrpl.w	r2, r2, #64	; 0x40
 8000f6e:	601a      	strpl	r2, [r3, #0]
  if(hspi->Init.DataSize == SPI_DATASIZE_16BIT)
 8000f70:	68e2      	ldr	r2, [r4, #12]
 8000f72:	f5b2 6f00 	cmp.w	r2, #2048	; 0x800
 8000f76:	6862      	ldr	r2, [r4, #4]
 8000f78:	d138      	bne.n	8000fec <HAL_SPI_Transmit+0xf2>
    if((hspi->Init.Mode == SPI_MODE_SLAVE) || (hspi->TxXferCount == 0x01))
 8000f7a:	b11a      	cbz	r2, 8000f84 <HAL_SPI_Transmit+0x8a>
 8000f7c:	8ee2      	ldrh	r2, [r4, #54]	; 0x36
 8000f7e:	b292      	uxth	r2, r2
 8000f80:	2a01      	cmp	r2, #1
 8000f82:	d106      	bne.n	8000f92 <HAL_SPI_Transmit+0x98>
          hspi->Instance->DR = *((uint16_t *)pData);
 8000f84:	f835 2b02 	ldrh.w	r2, [r5], #2
 8000f88:	60da      	str	r2, [r3, #12]
          hspi->TxXferCount--;
 8000f8a:	8ee3      	ldrh	r3, [r4, #54]	; 0x36
 8000f8c:	3b01      	subs	r3, #1
 8000f8e:	b29b      	uxth	r3, r3
 8000f90:	86e3      	strh	r3, [r4, #54]	; 0x36
    while (hspi->TxXferCount > 0U)
 8000f92:	8ee3      	ldrh	r3, [r4, #54]	; 0x36
 8000f94:	b29b      	uxth	r3, r3
 8000f96:	b993      	cbnz	r3, 8000fbe <HAL_SPI_Transmit+0xc4>
  if(SPI_WaitFlagStateUntilTimeout(hspi, SPI_FLAG_TXE, SET, Timeout, tickstart) != HAL_OK)
 8000f98:	9700      	str	r7, [sp, #0]
 8000f9a:	4633      	mov	r3, r6
 8000f9c:	2201      	movs	r2, #1
 8000f9e:	2102      	movs	r1, #2
 8000fa0:	4620      	mov	r0, r4
 8000fa2:	f7ff ff53 	bl	8000e4c <SPI_WaitFlagStateUntilTimeout>
 8000fa6:	b978      	cbnz	r0, 8000fc8 <HAL_SPI_Transmit+0xce>
  if(SPI_CheckFlag_BSY(hspi, Timeout, tickstart) != HAL_OK)
 8000fa8:	463a      	mov	r2, r7
 8000faa:	4631      	mov	r1, r6
 8000fac:	4620      	mov	r0, r4
 8000fae:	f7ff ff94 	bl	8000eda <SPI_CheckFlag_BSY>
 8000fb2:	2800      	cmp	r0, #0
 8000fb4:	d038      	beq.n	8001028 <HAL_SPI_Transmit+0x12e>
    hspi->ErrorCode = HAL_SPI_ERROR_FLAG;
 8000fb6:	2320      	movs	r3, #32
    errorcode = HAL_ERROR;
 8000fb8:	2001      	movs	r0, #1
    hspi->ErrorCode = HAL_SPI_ERROR_FLAG;
 8000fba:	6563      	str	r3, [r4, #84]	; 0x54
    goto error;
 8000fbc:	e005      	b.n	8000fca <HAL_SPI_Transmit+0xd0>
      if(__HAL_SPI_GET_FLAG(hspi, SPI_FLAG_TXE))
 8000fbe:	6823      	ldr	r3, [r4, #0]
 8000fc0:	689a      	ldr	r2, [r3, #8]
 8000fc2:	0790      	lsls	r0, r2, #30
 8000fc4:	d4de      	bmi.n	8000f84 <HAL_SPI_Transmit+0x8a>
        if((Timeout == 0U) || ((Timeout != HAL_MAX_DELAY) && ((HAL_GetTick()-tickstart) >=  Timeout)))
 8000fc6:	b94e      	cbnz	r6, 8000fdc <HAL_SPI_Transmit+0xe2>
          errorcode = HAL_TIMEOUT;
 8000fc8:	2003      	movs	r0, #3
  hspi->State = HAL_SPI_STATE_READY;
 8000fca:	2301      	movs	r3, #1
 8000fcc:	f884 3051 	strb.w	r3, [r4, #81]	; 0x51
  __HAL_UNLOCK(hspi);
 8000fd0:	2300      	movs	r3, #0
 8000fd2:	f884 3050 	strb.w	r3, [r4, #80]	; 0x50
}
 8000fd6:	b004      	add	sp, #16
 8000fd8:	e8bd 81f0 	ldmia.w	sp!, {r4, r5, r6, r7, r8, pc}
        if((Timeout == 0U) || ((Timeout != HAL_MAX_DELAY) && ((HAL_GetTick()-tickstart) >=  Timeout)))
 8000fdc:	1c71      	adds	r1, r6, #1
 8000fde:	d0d8      	beq.n	8000f92 <HAL_SPI_Transmit+0x98>
 8000fe0:	f7ff f8f6 	bl	80001d0 <HAL_GetTick>
 8000fe4:	1bc0      	subs	r0, r0, r7
 8000fe6:	4286      	cmp	r6, r0
 8000fe8:	d8d3      	bhi.n	8000f92 <HAL_SPI_Transmit+0x98>
 8000fea:	e7ed      	b.n	8000fc8 <HAL_SPI_Transmit+0xce>
    if((hspi->Init.Mode == SPI_MODE_SLAVE)|| (hspi->TxXferCount == 0x01))
 8000fec:	b11a      	cbz	r2, 8000ff6 <HAL_SPI_Transmit+0xfc>
 8000fee:	8ee2      	ldrh	r2, [r4, #54]	; 0x36
 8000ff0:	b292      	uxth	r2, r2
 8000ff2:	2a01      	cmp	r2, #1
 8000ff4:	d106      	bne.n	8001004 <HAL_SPI_Transmit+0x10a>
        *((__IO uint8_t*)&hspi->Instance->DR) = (*pData);
 8000ff6:	f815 2b01 	ldrb.w	r2, [r5], #1
 8000ffa:	731a      	strb	r2, [r3, #12]
        hspi->TxXferCount--;
 8000ffc:	8ee3      	ldrh	r3, [r4, #54]	; 0x36
 8000ffe:	3b01      	subs	r3, #1
 8001000:	b29b      	uxth	r3, r3
 8001002:	86e3      	strh	r3, [r4, #54]	; 0x36
    while (hspi->TxXferCount > 0U)
 8001004:	8ee3      	ldrh	r3, [r4, #54]	; 0x36
 8001006:	b29b      	uxth	r3, r3
 8001008:	2b00      	cmp	r3, #0
 800100a:	d0c5      	beq.n	8000f98 <HAL_SPI_Transmit+0x9e>
      if(__HAL_SPI_GET_FLAG(hspi, SPI_FLAG_TXE))
 800100c:	6823      	ldr	r3, [r4, #0]
 800100e:	689a      	ldr	r2, [r3, #8]
 8001010:	0792      	lsls	r2, r2, #30
 8001012:	d4f0      	bmi.n	8000ff6 <HAL_SPI_Transmit+0xfc>
        if((Timeout == 0U) || ((Timeout != HAL_MAX_DELAY) && ((HAL_GetTick()-tickstart) >=  Timeout)))
 8001014:	2e00      	cmp	r6, #0
 8001016:	d0d7      	beq.n	8000fc8 <HAL_SPI_Transmit+0xce>
 8001018:	1c73      	adds	r3, r6, #1
 800101a:	d0f3      	beq.n	8001004 <HAL_SPI_Transmit+0x10a>
 800101c:	f7ff f8d8 	bl	80001d0 <HAL_GetTick>
 8001020:	1bc0      	subs	r0, r0, r7
 8001022:	4286      	cmp	r6, r0
 8001024:	d8ee      	bhi.n	8001004 <HAL_SPI_Transmit+0x10a>
 8001026:	e7cf      	b.n	8000fc8 <HAL_SPI_Transmit+0xce>
  if(hspi->Init.Direction == SPI_DIRECTION_2LINES)
 8001028:	68a3      	ldr	r3, [r4, #8]
 800102a:	b933      	cbnz	r3, 800103a <HAL_SPI_Transmit+0x140>
    __HAL_SPI_CLEAR_OVRFLAG(hspi);
 800102c:	9303      	str	r3, [sp, #12]
 800102e:	6823      	ldr	r3, [r4, #0]
 8001030:	68da      	ldr	r2, [r3, #12]
 8001032:	9203      	str	r2, [sp, #12]
 8001034:	689b      	ldr	r3, [r3, #8]
 8001036:	9303      	str	r3, [sp, #12]
 8001038:	9b03      	ldr	r3, [sp, #12]
  if(hspi->ErrorCode != HAL_SPI_ERROR_NONE)
 800103a:	6d60      	ldr	r0, [r4, #84]	; 0x54
    errorcode = HAL_BUSY;
 800103c:	3000      	adds	r0, #0
 800103e:	bf18      	it	ne
 8001040:	2001      	movne	r0, #1
 8001042:	e7c2      	b.n	8000fca <HAL_SPI_Transmit+0xd0>
 8001044:	2002      	movs	r0, #2
 8001046:	e7c0      	b.n	8000fca <HAL_SPI_Transmit+0xd0>
  __HAL_LOCK(hspi);
 8001048:	2002      	movs	r0, #2
 800104a:	e7c4      	b.n	8000fd6 <HAL_SPI_Transmit+0xdc>

0800104c <HAL_SPI_TransmitReceive>:
{
 800104c:	e92d 43f0 	stmdb	sp!, {r4, r5, r6, r7, r8, r9, lr}
 8001050:	4699      	mov	r9, r3
  __HAL_LOCK(hspi);
 8001052:	f890 3050 	ldrb.w	r3, [r0, #80]	; 0x50
{
 8001056:	b085      	sub	sp, #20
  __HAL_LOCK(hspi);
 8001058:	2b01      	cmp	r3, #1
{
 800105a:	4604      	mov	r4, r0
 800105c:	460d      	mov	r5, r1
 800105e:	4616      	mov	r6, r2
 8001060:	9f0c      	ldr	r7, [sp, #48]	; 0x30
  __HAL_LOCK(hspi);
 8001062:	f000 80ee 	beq.w	8001242 <HAL_SPI_TransmitReceive+0x1f6>
 8001066:	2301      	movs	r3, #1
 8001068:	f880 3050 	strb.w	r3, [r0, #80]	; 0x50
  tickstart = HAL_GetTick();
 800106c:	f7ff f8b0 	bl	80001d0 <HAL_GetTick>
  tmp  = hspi->State;
 8001070:	f894 3051 	ldrb.w	r3, [r4, #81]	; 0x51
  tickstart = HAL_GetTick();
 8001074:	4680      	mov	r8, r0
  tmp  = hspi->State;
 8001076:	b2db      	uxtb	r3, r3
  if(!((tmp == HAL_SPI_STATE_READY) || \
 8001078:	2b01      	cmp	r3, #1
  tmp1 = hspi->Init.Mode;
 800107a:	6861      	ldr	r1, [r4, #4]
  if(!((tmp == HAL_SPI_STATE_READY) || \
 800107c:	d00a      	beq.n	8001094 <HAL_SPI_TransmitReceive+0x48>
 800107e:	f5b1 7f82 	cmp.w	r1, #260	; 0x104
 8001082:	f040 80dc 	bne.w	800123e <HAL_SPI_TransmitReceive+0x1f2>
    ((tmp1 == SPI_MODE_MASTER) && (hspi->Init.Direction == SPI_DIRECTION_2LINES) && (tmp == HAL_SPI_STATE_BUSY_RX))))
 8001086:	68a2      	ldr	r2, [r4, #8]
 8001088:	2a00      	cmp	r2, #0
 800108a:	f040 80d8 	bne.w	800123e <HAL_SPI_TransmitReceive+0x1f2>
 800108e:	2b04      	cmp	r3, #4
 8001090:	f040 80d5 	bne.w	800123e <HAL_SPI_TransmitReceive+0x1f2>
  if((pTxData == NULL) || (pRxData == NULL) || (Size == 0U))
 8001094:	2d00      	cmp	r5, #0
 8001096:	d04e      	beq.n	8001136 <HAL_SPI_TransmitReceive+0xea>
 8001098:	2e00      	cmp	r6, #0
 800109a:	d04c      	beq.n	8001136 <HAL_SPI_TransmitReceive+0xea>
 800109c:	f1b9 0f00 	cmp.w	r9, #0
 80010a0:	d049      	beq.n	8001136 <HAL_SPI_TransmitReceive+0xea>
  if(hspi->State == HAL_SPI_STATE_READY)
 80010a2:	f894 3051 	ldrb.w	r3, [r4, #81]	; 0x51
  hspi->pRxBuffPtr  = (uint8_t *)pRxData;
 80010a6:	63a6      	str	r6, [r4, #56]	; 0x38
  if(hspi->State == HAL_SPI_STATE_READY)
 80010a8:	2b01      	cmp	r3, #1
    hspi->State = HAL_SPI_STATE_BUSY_TX_RX;
 80010aa:	bf04      	itt	eq
 80010ac:	2305      	moveq	r3, #5
 80010ae:	f884 3051 	strbeq.w	r3, [r4, #81]	; 0x51
  hspi->ErrorCode   = HAL_SPI_ERROR_NONE;
 80010b2:	2300      	movs	r3, #0
 80010b4:	6563      	str	r3, [r4, #84]	; 0x54
  hspi->RxISR       = NULL;
 80010b6:	6423      	str	r3, [r4, #64]	; 0x40
  hspi->TxISR       = NULL;
 80010b8:	6463      	str	r3, [r4, #68]	; 0x44
  if((hspi->Instance->CR1 &SPI_CR1_SPE) != SPI_CR1_SPE)
 80010ba:	6823      	ldr	r3, [r4, #0]
  hspi->RxXferCount = Size;
 80010bc:	f8a4 903e 	strh.w	r9, [r4, #62]	; 0x3e
  hspi->TxXferCount = Size;
 80010c0:	f8a4 9036 	strh.w	r9, [r4, #54]	; 0x36
  if((hspi->Instance->CR1 &SPI_CR1_SPE) != SPI_CR1_SPE)
 80010c4:	681a      	ldr	r2, [r3, #0]
  hspi->RxXferSize  = Size;
 80010c6:	f8a4 903c 	strh.w	r9, [r4, #60]	; 0x3c
  if((hspi->Instance->CR1 &SPI_CR1_SPE) != SPI_CR1_SPE)
 80010ca:	0650      	lsls	r0, r2, #25
    __HAL_SPI_ENABLE(hspi);
 80010cc:	bf58      	it	pl
 80010ce:	681a      	ldrpl	r2, [r3, #0]
  hspi->pTxBuffPtr  = (uint8_t *)pTxData;
 80010d0:	6325      	str	r5, [r4, #48]	; 0x30
    __HAL_SPI_ENABLE(hspi);
 80010d2:	bf58      	it	pl
 80010d4:	f042 0240 	orrpl.w	r2, r2, #64	; 0x40
  hspi->TxXferSize  = Size;
 80010d8:	f8a4 9034 	strh.w	r9, [r4, #52]	; 0x34
    __HAL_SPI_ENABLE(hspi);
 80010dc:	bf58      	it	pl
 80010de:	601a      	strpl	r2, [r3, #0]
  if(hspi->Init.DataSize == SPI_DATASIZE_16BIT)
 80010e0:	68e2      	ldr	r2, [r4, #12]
 80010e2:	f5b2 6f00 	cmp.w	r2, #2048	; 0x800
 80010e6:	d15d      	bne.n	80011a4 <HAL_SPI_TransmitReceive+0x158>
    if((hspi->Init.Mode == SPI_MODE_SLAVE) || (hspi->TxXferCount == 0x01U))
 80010e8:	b119      	cbz	r1, 80010f2 <HAL_SPI_TransmitReceive+0xa6>
 80010ea:	8ee2      	ldrh	r2, [r4, #54]	; 0x36
 80010ec:	b292      	uxth	r2, r2
 80010ee:	2a01      	cmp	r2, #1
 80010f0:	d106      	bne.n	8001100 <HAL_SPI_TransmitReceive+0xb4>
      hspi->Instance->DR = *((uint16_t *)pTxData);
 80010f2:	f835 2b02 	ldrh.w	r2, [r5], #2
 80010f6:	60da      	str	r2, [r3, #12]
      hspi->TxXferCount--;
 80010f8:	8ee3      	ldrh	r3, [r4, #54]	; 0x36
 80010fa:	3b01      	subs	r3, #1
 80010fc:	b29b      	uxth	r3, r3
 80010fe:	86e3      	strh	r3, [r4, #54]	; 0x36
        txallowed = 1U;
 8001100:	f04f 0901 	mov.w	r9, #1
    while ((hspi->TxXferCount > 0U) || (hspi->RxXferCount > 0U))
 8001104:	8ee3      	ldrh	r3, [r4, #54]	; 0x36
 8001106:	b29b      	uxth	r3, r3
 8001108:	b9bb      	cbnz	r3, 800113a <HAL_SPI_TransmitReceive+0xee>
 800110a:	8fe3      	ldrh	r3, [r4, #62]	; 0x3e
 800110c:	b29b      	uxth	r3, r3
 800110e:	b9a3      	cbnz	r3, 800113a <HAL_SPI_TransmitReceive+0xee>
  if(SPI_WaitFlagStateUntilTimeout(hspi, SPI_FLAG_TXE, SET, Timeout, tickstart) != HAL_OK)
 8001110:	f8cd 8000 	str.w	r8, [sp]
 8001114:	463b      	mov	r3, r7
 8001116:	2201      	movs	r2, #1
 8001118:	2102      	movs	r1, #2
 800111a:	4620      	mov	r0, r4
 800111c:	f7ff fe96 	bl	8000e4c <SPI_WaitFlagStateUntilTimeout>
 8001120:	2800      	cmp	r0, #0
 8001122:	d135      	bne.n	8001190 <HAL_SPI_TransmitReceive+0x144>
  if(SPI_CheckFlag_BSY(hspi, Timeout, tickstart) != HAL_OK)
 8001124:	4642      	mov	r2, r8
 8001126:	4639      	mov	r1, r7
 8001128:	4620      	mov	r0, r4
 800112a:	f7ff fed6 	bl	8000eda <SPI_CheckFlag_BSY>
 800112e:	2800      	cmp	r0, #0
 8001130:	d07a      	beq.n	8001228 <HAL_SPI_TransmitReceive+0x1dc>
    hspi->ErrorCode = HAL_SPI_ERROR_FLAG;
 8001132:	2320      	movs	r3, #32
 8001134:	6563      	str	r3, [r4, #84]	; 0x54
    errorcode = HAL_ERROR;
 8001136:	2001      	movs	r0, #1
 8001138:	e02b      	b.n	8001192 <HAL_SPI_TransmitReceive+0x146>
      if(txallowed && (hspi->TxXferCount > 0U) && (__HAL_SPI_GET_FLAG(hspi, SPI_FLAG_TXE)))
 800113a:	f1b9 0f00 	cmp.w	r9, #0
 800113e:	d00f      	beq.n	8001160 <HAL_SPI_TransmitReceive+0x114>
 8001140:	8ee3      	ldrh	r3, [r4, #54]	; 0x36
 8001142:	b29b      	uxth	r3, r3
 8001144:	b163      	cbz	r3, 8001160 <HAL_SPI_TransmitReceive+0x114>
 8001146:	6823      	ldr	r3, [r4, #0]
 8001148:	689a      	ldr	r2, [r3, #8]
 800114a:	0791      	lsls	r1, r2, #30
 800114c:	d508      	bpl.n	8001160 <HAL_SPI_TransmitReceive+0x114>
        txallowed = 0U;
 800114e:	f04f 0900 	mov.w	r9, #0
        hspi->Instance->DR = *((uint16_t *)pTxData);
 8001152:	f835 2b02 	ldrh.w	r2, [r5], #2
 8001156:	60da      	str	r2, [r3, #12]
        hspi->TxXferCount--;
 8001158:	8ee3      	ldrh	r3, [r4, #54]	; 0x36
 800115a:	3b01      	subs	r3, #1
 800115c:	b29b      	uxth	r3, r3
 800115e:	86e3      	strh	r3, [r4, #54]	; 0x36
      if((hspi->RxXferCount > 0U) && (__HAL_SPI_GET_FLAG(hspi, SPI_FLAG_RXNE)))
 8001160:	8fe3      	ldrh	r3, [r4, #62]	; 0x3e
 8001162:	b29b      	uxth	r3, r3
 8001164:	b163      	cbz	r3, 8001180 <HAL_SPI_TransmitReceive+0x134>
 8001166:	6823      	ldr	r3, [r4, #0]
 8001168:	689a      	ldr	r2, [r3, #8]
 800116a:	07d2      	lsls	r2, r2, #31
 800116c:	d508      	bpl.n	8001180 <HAL_SPI_TransmitReceive+0x134>
        txallowed = 1U;
 800116e:	f04f 0901 	mov.w	r9, #1
        *((uint16_t *)pRxData) = hspi->Instance->DR;
 8001172:	68db      	ldr	r3, [r3, #12]
 8001174:	f826 3b02 	strh.w	r3, [r6], #2
        hspi->RxXferCount--;
 8001178:	8fe3      	ldrh	r3, [r4, #62]	; 0x3e
 800117a:	3b01      	subs	r3, #1
 800117c:	b29b      	uxth	r3, r3
 800117e:	87e3      	strh	r3, [r4, #62]	; 0x3e
      if((Timeout != HAL_MAX_DELAY) && ((HAL_GetTick()-tickstart) >=  Timeout))
 8001180:	1c78      	adds	r0, r7, #1
 8001182:	d0bf      	beq.n	8001104 <HAL_SPI_TransmitReceive+0xb8>
 8001184:	f7ff f824 	bl	80001d0 <HAL_GetTick>
 8001188:	eba0 0008 	sub.w	r0, r0, r8
 800118c:	4287      	cmp	r7, r0
 800118e:	d8b9      	bhi.n	8001104 <HAL_SPI_TransmitReceive+0xb8>
        errorcode = HAL_TIMEOUT;
 8001190:	2003      	movs	r0, #3
  hspi->State = HAL_SPI_STATE_READY;
 8001192:	2301      	movs	r3, #1
 8001194:	f884 3051 	strb.w	r3, [r4, #81]	; 0x51
  __HAL_UNLOCK(hspi);
 8001198:	2300      	movs	r3, #0
 800119a:	f884 3050 	strb.w	r3, [r4, #80]	; 0x50
}
 800119e:	b005      	add	sp, #20
 80011a0:	e8bd 83f0 	ldmia.w	sp!, {r4, r5, r6, r7, r8, r9, pc}
    if((hspi->Init.Mode == SPI_MODE_SLAVE) || (hspi->TxXferCount == 0x01U))
 80011a4:	b119      	cbz	r1, 80011ae <HAL_SPI_TransmitReceive+0x162>
 80011a6:	8ee2      	ldrh	r2, [r4, #54]	; 0x36
 80011a8:	b292      	uxth	r2, r2
 80011aa:	2a01      	cmp	r2, #1
 80011ac:	d106      	bne.n	80011bc <HAL_SPI_TransmitReceive+0x170>
      *((__IO uint8_t*)&hspi->Instance->DR) = (*pTxData);
 80011ae:	f815 2b01 	ldrb.w	r2, [r5], #1
 80011b2:	731a      	strb	r2, [r3, #12]
      hspi->TxXferCount--;
 80011b4:	8ee3      	ldrh	r3, [r4, #54]	; 0x36
 80011b6:	3b01      	subs	r3, #1
 80011b8:	b29b      	uxth	r3, r3
 80011ba:	86e3      	strh	r3, [r4, #54]	; 0x36
        txallowed = 1U;
 80011bc:	f04f 0901 	mov.w	r9, #1
    while((hspi->TxXferCount > 0U) || (hspi->RxXferCount > 0U))
 80011c0:	8ee3      	ldrh	r3, [r4, #54]	; 0x36
 80011c2:	b29b      	uxth	r3, r3
 80011c4:	b91b      	cbnz	r3, 80011ce <HAL_SPI_TransmitReceive+0x182>
 80011c6:	8fe3      	ldrh	r3, [r4, #62]	; 0x3e
 80011c8:	b29b      	uxth	r3, r3
 80011ca:	2b00      	cmp	r3, #0
 80011cc:	d0a0      	beq.n	8001110 <HAL_SPI_TransmitReceive+0xc4>
      if(txallowed && (hspi->TxXferCount > 0U) && (__HAL_SPI_GET_FLAG(hspi, SPI_FLAG_TXE)))
 80011ce:	f1b9 0f00 	cmp.w	r9, #0
 80011d2:	d00f      	beq.n	80011f4 <HAL_SPI_TransmitReceive+0x1a8>
 80011d4:	8ee3      	ldrh	r3, [r4, #54]	; 0x36
 80011d6:	b29b      	uxth	r3, r3
 80011d8:	b163      	cbz	r3, 80011f4 <HAL_SPI_TransmitReceive+0x1a8>
 80011da:	6823      	ldr	r3, [r4, #0]
 80011dc:	689a      	ldr	r2, [r3, #8]
 80011de:	0791      	lsls	r1, r2, #30
 80011e0:	d508      	bpl.n	80011f4 <HAL_SPI_TransmitReceive+0x1a8>
        txallowed = 0U;
 80011e2:	f04f 0900 	mov.w	r9, #0
        *(__IO uint8_t *)&hspi->Instance->DR = (*pTxData++);
 80011e6:	782a      	ldrb	r2, [r5, #0]
 80011e8:	3501      	adds	r5, #1
 80011ea:	731a      	strb	r2, [r3, #12]
        hspi->TxXferCount--;
 80011ec:	8ee3      	ldrh	r3, [r4, #54]	; 0x36
 80011ee:	3b01      	subs	r3, #1
 80011f0:	b29b      	uxth	r3, r3
 80011f2:	86e3      	strh	r3, [r4, #54]	; 0x36
      if((hspi->RxXferCount > 0U) && (__HAL_SPI_GET_FLAG(hspi, SPI_FLAG_RXNE)))
 80011f4:	8fe3      	ldrh	r3, [r4, #62]	; 0x3e
 80011f6:	b29b      	uxth	r3, r3
 80011f8:	b16b      	cbz	r3, 8001216 <HAL_SPI_TransmitReceive+0x1ca>
 80011fa:	6823      	ldr	r3, [r4, #0]
 80011fc:	689a      	ldr	r2, [r3, #8]
 80011fe:	07d2      	lsls	r2, r2, #31
 8001200:	d509      	bpl.n	8001216 <HAL_SPI_TransmitReceive+0x1ca>
        txallowed = 1U;
 8001202:	f04f 0901 	mov.w	r9, #1
        (*(uint8_t *)pRxData++) = hspi->Instance->DR;
 8001206:	68db      	ldr	r3, [r3, #12]
 8001208:	3601      	adds	r6, #1
 800120a:	f806 3c01 	strb.w	r3, [r6, #-1]
        hspi->RxXferCount--;
 800120e:	8fe3      	ldrh	r3, [r4, #62]	; 0x3e
 8001210:	3b01      	subs	r3, #1
 8001212:	b29b      	uxth	r3, r3
 8001214:	87e3      	strh	r3, [r4, #62]	; 0x3e
      if((Timeout != HAL_MAX_DELAY) && ((HAL_GetTick()-tickstart) >=  Timeout))
 8001216:	1c7b      	adds	r3, r7, #1
 8001218:	d0d2      	beq.n	80011c0 <HAL_SPI_TransmitReceive+0x174>
 800121a:	f7fe ffd9 	bl	80001d0 <HAL_GetTick>
 800121e:	eba0 0008 	sub.w	r0, r0, r8
 8001222:	4287      	cmp	r7, r0
 8001224:	d8cc      	bhi.n	80011c0 <HAL_SPI_TransmitReceive+0x174>
 8001226:	e7b3      	b.n	8001190 <HAL_SPI_TransmitReceive+0x144>
  if(hspi->Init.Direction == SPI_DIRECTION_2LINES)
 8001228:	68a3      	ldr	r3, [r4, #8]
 800122a:	2b00      	cmp	r3, #0
 800122c:	d1b1      	bne.n	8001192 <HAL_SPI_TransmitReceive+0x146>
    __HAL_SPI_CLEAR_OVRFLAG(hspi);
 800122e:	6823      	ldr	r3, [r4, #0]
 8001230:	9003      	str	r0, [sp, #12]
 8001232:	68da      	ldr	r2, [r3, #12]
 8001234:	9203      	str	r2, [sp, #12]
 8001236:	689b      	ldr	r3, [r3, #8]
 8001238:	9303      	str	r3, [sp, #12]
 800123a:	9b03      	ldr	r3, [sp, #12]
 800123c:	e7a9      	b.n	8001192 <HAL_SPI_TransmitReceive+0x146>
    errorcode = HAL_BUSY;
 800123e:	2002      	movs	r0, #2
 8001240:	e7a7      	b.n	8001192 <HAL_SPI_TransmitReceive+0x146>
  __HAL_LOCK(hspi);
 8001242:	2002      	movs	r0, #2
 8001244:	e7ab      	b.n	800119e <HAL_SPI_TransmitReceive+0x152>

08001246 <HAL_SPI_GetState>:
  return hspi->State;
 8001246:	f890 0051 	ldrb.w	r0, [r0, #81]	; 0x51
}
 800124a:	4770      	bx	lr

0800124c <HAL_SPI_Init>:
  * @param  hspi: pointer to a SPI_HandleTypeDef structure that contains
  *                the configuration information for SPI module.
  * @retval HAL status
  */
HAL_StatusTypeDef HAL_SPI_Init(SPI_HandleTypeDef *hspi)
{
 800124c:	b510      	push	{r4, lr}
  /* Check the SPI handle allocation */
  if(hspi == NULL)
 800124e:	4604      	mov	r4, r0
 8001250:	2800      	cmp	r0, #0
 8001252:	d034      	beq.n	80012be <HAL_SPI_Init+0x72>
  if(hspi->Init.CRCCalculation == SPI_CRCCALCULATION_ENABLE)
  {
    assert_param(IS_SPI_CRC_POLYNOMIAL(hspi->Init.CRCPolynomial));
  }
#else
  hspi->Init.CRCCalculation = SPI_CRCCALCULATION_DISABLE;
 8001254:	2300      	movs	r3, #0
 8001256:	6283      	str	r3, [r0, #40]	; 0x28
#endif /* USE_SPI_CRC */

  if(hspi->State == HAL_SPI_STATE_RESET)
 8001258:	f890 3051 	ldrb.w	r3, [r0, #81]	; 0x51
 800125c:	b90b      	cbnz	r3, 8001262 <HAL_SPI_Init+0x16>
  {
    /* Init the low level hardware : GPIO, CLOCK, NVIC... */
    HAL_SPI_MspInit(hspi);
 800125e:	f002 fdbf 	bl	8003de0 <HAL_SPI_MspInit>
  }
  
  hspi->State = HAL_SPI_STATE_BUSY;
 8001262:	2302      	movs	r3, #2

  /* Disble the selected SPI peripheral */
  __HAL_SPI_DISABLE(hspi);
 8001264:	6821      	ldr	r1, [r4, #0]
  hspi->State = HAL_SPI_STATE_BUSY;
 8001266:	f884 3051 	strb.w	r3, [r4, #81]	; 0x51
  __HAL_SPI_DISABLE(hspi);
 800126a:	680b      	ldr	r3, [r1, #0]

  /*----------------------- SPIx CR1 & CR2 Configuration ---------------------*/
  /* Configure : SPI Mode, Communication Mode, Data size, Clock polarity and phase, NSS management,
  Communication speed, First bit and CRC calculation state */
  WRITE_REG(hspi->Instance->CR1, (hspi->Init.Mode | hspi->Init.Direction | hspi->Init.DataSize |
 800126c:	68a0      	ldr	r0, [r4, #8]
  __HAL_SPI_DISABLE(hspi);
 800126e:	f023 0340 	bic.w	r3, r3, #64	; 0x40
 8001272:	600b      	str	r3, [r1, #0]
  WRITE_REG(hspi->Instance->CR1, (hspi->Init.Mode | hspi->Init.Direction | hspi->Init.DataSize |
 8001274:	6863      	ldr	r3, [r4, #4]
 8001276:	69a2      	ldr	r2, [r4, #24]
 8001278:	4303      	orrs	r3, r0
 800127a:	68e0      	ldr	r0, [r4, #12]
 800127c:	4303      	orrs	r3, r0
 800127e:	6920      	ldr	r0, [r4, #16]
 8001280:	4303      	orrs	r3, r0
 8001282:	6960      	ldr	r0, [r4, #20]
 8001284:	4303      	orrs	r3, r0
 8001286:	69e0      	ldr	r0, [r4, #28]
 8001288:	4303      	orrs	r3, r0
 800128a:	6a20      	ldr	r0, [r4, #32]
 800128c:	4303      	orrs	r3, r0
 800128e:	6aa0      	ldr	r0, [r4, #40]	; 0x28
 8001290:	4303      	orrs	r3, r0
 8001292:	f402 7000 	and.w	r0, r2, #512	; 0x200
 8001296:	4303      	orrs	r3, r0
 8001298:	600b      	str	r3, [r1, #0]
                                  hspi->Init.CLKPolarity | hspi->Init.CLKPhase | (hspi->Init.NSS & SPI_CR1_SSM) |
                                  hspi->Init.BaudRatePrescaler | hspi->Init.FirstBit  | hspi->Init.CRCCalculation) );

  /* Configure : NSS management */
  WRITE_REG(hspi->Instance->CR2, (((hspi->Init.NSS >> 16U) & SPI_CR2_SSOE) | hspi->Init.TIMode));
 800129a:	0c12      	lsrs	r2, r2, #16
 800129c:	6a63      	ldr	r3, [r4, #36]	; 0x24
 800129e:	f002 0204 	and.w	r2, r2, #4
 80012a2:	431a      	orrs	r2, r3

  /*---------------------------- SPIx CRCPOLY Configuration ------------------*/
  /* Configure : CRC Polynomial */
  WRITE_REG(hspi->Instance->CRCPR, hspi->Init.CRCPolynomial);
 80012a4:	6ae3      	ldr	r3, [r4, #44]	; 0x2c
  WRITE_REG(hspi->Instance->CR2, (((hspi->Init.NSS >> 16U) & SPI_CR2_SSOE) | hspi->Init.TIMode));
 80012a6:	604a      	str	r2, [r1, #4]
  WRITE_REG(hspi->Instance->CRCPR, hspi->Init.CRCPolynomial);
 80012a8:	610b      	str	r3, [r1, #16]

#if defined(SPI_I2SCFGR_I2SMOD)
  /* Activate the SPI mode (Make sure that I2SMOD bit in I2SCFGR register is reset) */
  CLEAR_BIT(hspi->Instance->I2SCFGR, SPI_I2SCFGR_I2SMOD);
 80012aa:	69cb      	ldr	r3, [r1, #28]
#else
  uCRCErrorWorkaroundCheck = 0U;
#endif /* STM32F101xE || STM32F103xE */
#endif /* USE_SPI_CRC */

  hspi->ErrorCode = HAL_SPI_ERROR_NONE;
 80012ac:	2000      	movs	r0, #0
  CLEAR_BIT(hspi->Instance->I2SCFGR, SPI_I2SCFGR_I2SMOD);
 80012ae:	f423 6300 	bic.w	r3, r3, #2048	; 0x800
 80012b2:	61cb      	str	r3, [r1, #28]
  hspi->State = HAL_SPI_STATE_READY;
 80012b4:	2301      	movs	r3, #1
  hspi->ErrorCode = HAL_SPI_ERROR_NONE;
 80012b6:	6560      	str	r0, [r4, #84]	; 0x54
  hspi->State = HAL_SPI_STATE_READY;
 80012b8:	f884 3051 	strb.w	r3, [r4, #81]	; 0x51
  
  return HAL_OK;
 80012bc:	bd10      	pop	{r4, pc}
    return HAL_ERROR;
 80012be:	2001      	movs	r0, #1
}
 80012c0:	bd10      	pop	{r4, pc}
	...

080012c4 <UART_SetConfig>:
  * @param  huart: pointer to a UART_HandleTypeDef structure that contains
  *                the configuration information for the specified UART module.
  * @retval None
  */
static void UART_SetConfig(UART_HandleTypeDef *huart)
{
 80012c4:	e92d 47f0 	stmdb	sp!, {r4, r5, r6, r7, r8, r9, sl, lr}
  assert_param(IS_UART_MODE(huart->Init.Mode));

  /*------- UART-associated USART registers setting : CR2 Configuration ------*/
  /* Configure the UART Stop Bits: Set STOP[13:12] bits according 
   * to huart->Init.StopBits value */
  MODIFY_REG(huart->Instance->CR2, USART_CR2_STOP, huart->Init.StopBits);
 80012c8:	6805      	ldr	r5, [r0, #0]
 80012ca:	68c2      	ldr	r2, [r0, #12]
 80012cc:	692b      	ldr	r3, [r5, #16]
  tmpreg |= (uint32_t)huart->Init.WordLength | huart->Init.Parity | huart->Init.Mode | huart->Init.OverSampling;
  MODIFY_REG(huart->Instance->CR1, 
             (uint32_t)(USART_CR1_M | USART_CR1_PCE | USART_CR1_PS | USART_CR1_TE | USART_CR1_RE | USART_CR1_OVER8), 
             tmpreg);
#else
  tmpreg |= (uint32_t)huart->Init.WordLength | huart->Init.Parity | huart->Init.Mode;
 80012ce:	6901      	ldr	r1, [r0, #16]
  MODIFY_REG(huart->Instance->CR2, USART_CR2_STOP, huart->Init.StopBits);
 80012d0:	f423 5340 	bic.w	r3, r3, #12288	; 0x3000
 80012d4:	4313      	orrs	r3, r2
 80012d6:	612b      	str	r3, [r5, #16]
  tmpreg |= (uint32_t)huart->Init.WordLength | huart->Init.Parity | huart->Init.Mode;
 80012d8:	6883      	ldr	r3, [r0, #8]
  MODIFY_REG(huart->Instance->CR1, 
 80012da:	68ea      	ldr	r2, [r5, #12]
  tmpreg |= (uint32_t)huart->Init.WordLength | huart->Init.Parity | huart->Init.Mode;
 80012dc:	430b      	orrs	r3, r1
 80012de:	6941      	ldr	r1, [r0, #20]
  MODIFY_REG(huart->Instance->CR1, 
 80012e0:	f422 52b0 	bic.w	r2, r2, #5632	; 0x1600
 80012e4:	f022 020c 	bic.w	r2, r2, #12
  tmpreg |= (uint32_t)huart->Init.WordLength | huart->Init.Parity | huart->Init.Mode;
 80012e8:	430b      	orrs	r3, r1
  MODIFY_REG(huart->Instance->CR1, 
 80012ea:	4313      	orrs	r3, r2
 80012ec:	60eb      	str	r3, [r5, #12]
             tmpreg);
#endif /* USART_CR1_OVER8 */

  /*------- UART-associated USART registers setting : CR3 Configuration ------*/
  /* Configure the UART HFC: Set CTSE and RTSE bits according to huart->Init.HwFlowCtl value */
  MODIFY_REG(huart->Instance->CR3, (USART_CR3_RTSE | USART_CR3_CTSE), huart->Init.HwFlowCtl);
 80012ee:	696b      	ldr	r3, [r5, #20]
 80012f0:	6982      	ldr	r2, [r0, #24]
 80012f2:	f423 7340 	bic.w	r3, r3, #768	; 0x300
 80012f6:	4313      	orrs	r3, r2
 80012f8:	616b      	str	r3, [r5, #20]
      huart->Instance->BRR = UART_BRR_SAMPLING16(HAL_RCC_GetPCLK1Freq(), huart->Init.BaudRate);
    }
  }
#else
  /*-------------------------- USART BRR Configuration ---------------------*/
  if(huart->Instance == USART1)
 80012fa:	4b40      	ldr	r3, [pc, #256]	; (80013fc <UART_SetConfig+0x138>)
{
 80012fc:	4681      	mov	r9, r0
  if(huart->Instance == USART1)
 80012fe:	429d      	cmp	r5, r3
 8001300:	f04f 0419 	mov.w	r4, #25
 8001304:	d146      	bne.n	8001394 <UART_SetConfig+0xd0>
  {
    huart->Instance->BRR = UART_BRR_SAMPLING16(HAL_RCC_GetPCLK2Freq(), huart->Init.BaudRate);
 8001306:	f7ff fd91 	bl	8000e2c <HAL_RCC_GetPCLK2Freq>
 800130a:	fb04 f300 	mul.w	r3, r4, r0
 800130e:	f8d9 6004 	ldr.w	r6, [r9, #4]
 8001312:	f04f 0864 	mov.w	r8, #100	; 0x64
 8001316:	00b6      	lsls	r6, r6, #2
 8001318:	fbb3 f3f6 	udiv	r3, r3, r6
 800131c:	fbb3 f3f8 	udiv	r3, r3, r8
 8001320:	011e      	lsls	r6, r3, #4
 8001322:	f7ff fd83 	bl	8000e2c <HAL_RCC_GetPCLK2Freq>
 8001326:	4360      	muls	r0, r4
 8001328:	f8d9 3004 	ldr.w	r3, [r9, #4]
 800132c:	009b      	lsls	r3, r3, #2
 800132e:	fbb0 f7f3 	udiv	r7, r0, r3
 8001332:	f7ff fd7b 	bl	8000e2c <HAL_RCC_GetPCLK2Freq>
 8001336:	4360      	muls	r0, r4
 8001338:	f8d9 3004 	ldr.w	r3, [r9, #4]
 800133c:	009b      	lsls	r3, r3, #2
 800133e:	fbb0 f3f3 	udiv	r3, r0, r3
 8001342:	fbb3 f3f8 	udiv	r3, r3, r8
 8001346:	fb08 7313 	mls	r3, r8, r3, r7
 800134a:	011b      	lsls	r3, r3, #4
 800134c:	3332      	adds	r3, #50	; 0x32
 800134e:	fbb3 f3f8 	udiv	r3, r3, r8
 8001352:	f003 07f0 	and.w	r7, r3, #240	; 0xf0
 8001356:	f7ff fd69 	bl	8000e2c <HAL_RCC_GetPCLK2Freq>
 800135a:	4360      	muls	r0, r4
 800135c:	f8d9 2004 	ldr.w	r2, [r9, #4]
 8001360:	0092      	lsls	r2, r2, #2
 8001362:	fbb0 faf2 	udiv	sl, r0, r2
 8001366:	f7ff fd61 	bl	8000e2c <HAL_RCC_GetPCLK2Freq>
  }
  else
  {
    huart->Instance->BRR = UART_BRR_SAMPLING16(HAL_RCC_GetPCLK1Freq(), huart->Init.BaudRate);
 800136a:	4360      	muls	r0, r4
 800136c:	f8d9 3004 	ldr.w	r3, [r9, #4]
 8001370:	009b      	lsls	r3, r3, #2
 8001372:	fbb0 f3f3 	udiv	r3, r0, r3
 8001376:	fbb3 f3f8 	udiv	r3, r3, r8
 800137a:	fb08 a313 	mls	r3, r8, r3, sl
 800137e:	011b      	lsls	r3, r3, #4
 8001380:	3332      	adds	r3, #50	; 0x32
 8001382:	fbb3 f3f8 	udiv	r3, r3, r8
 8001386:	f003 030f 	and.w	r3, r3, #15
 800138a:	433b      	orrs	r3, r7
 800138c:	4433      	add	r3, r6
 800138e:	60ab      	str	r3, [r5, #8]
 8001390:	e8bd 87f0 	ldmia.w	sp!, {r4, r5, r6, r7, r8, r9, sl, pc}
 8001394:	f7ff fd3a 	bl	8000e0c <HAL_RCC_GetPCLK1Freq>
 8001398:	fb04 f300 	mul.w	r3, r4, r0
 800139c:	f8d9 6004 	ldr.w	r6, [r9, #4]
 80013a0:	f04f 0864 	mov.w	r8, #100	; 0x64
 80013a4:	00b6      	lsls	r6, r6, #2
 80013a6:	fbb3 f3f6 	udiv	r3, r3, r6
 80013aa:	fbb3 f3f8 	udiv	r3, r3, r8
 80013ae:	011e      	lsls	r6, r3, #4
 80013b0:	f7ff fd2c 	bl	8000e0c <HAL_RCC_GetPCLK1Freq>
 80013b4:	4360      	muls	r0, r4
 80013b6:	f8d9 3004 	ldr.w	r3, [r9, #4]
 80013ba:	009b      	lsls	r3, r3, #2
 80013bc:	fbb0 f7f3 	udiv	r7, r0, r3
 80013c0:	f7ff fd24 	bl	8000e0c <HAL_RCC_GetPCLK1Freq>
 80013c4:	4360      	muls	r0, r4
 80013c6:	f8d9 3004 	ldr.w	r3, [r9, #4]
 80013ca:	009b      	lsls	r3, r3, #2
 80013cc:	fbb0 f3f3 	udiv	r3, r0, r3
 80013d0:	fbb3 f3f8 	udiv	r3, r3, r8
 80013d4:	fb08 7313 	mls	r3, r8, r3, r7
 80013d8:	011b      	lsls	r3, r3, #4
 80013da:	3332      	adds	r3, #50	; 0x32
 80013dc:	fbb3 f3f8 	udiv	r3, r3, r8
 80013e0:	f003 07f0 	and.w	r7, r3, #240	; 0xf0
 80013e4:	f7ff fd12 	bl	8000e0c <HAL_RCC_GetPCLK1Freq>
 80013e8:	4360      	muls	r0, r4
 80013ea:	f8d9 2004 	ldr.w	r2, [r9, #4]
 80013ee:	0092      	lsls	r2, r2, #2
 80013f0:	fbb0 faf2 	udiv	sl, r0, r2
 80013f4:	f7ff fd0a 	bl	8000e0c <HAL_RCC_GetPCLK1Freq>
 80013f8:	e7b7      	b.n	800136a <UART_SetConfig+0xa6>
 80013fa:	bf00      	nop
 80013fc:	40013800 	.word	0x40013800

08001400 <UART_WaitOnFlagUntilTimeout.constprop.3>:
static HAL_StatusTypeDef UART_WaitOnFlagUntilTimeout(UART_HandleTypeDef *huart, uint32_t Flag, FlagStatus Status, uint32_t Tickstart, uint32_t Timeout)
 8001400:	b5f8      	push	{r3, r4, r5, r6, r7, lr}
 8001402:	4604      	mov	r4, r0
 8001404:	460e      	mov	r6, r1
 8001406:	4617      	mov	r7, r2
 8001408:	461d      	mov	r5, r3
  while((__HAL_UART_GET_FLAG(huart, Flag) ? SET : RESET) == Status) 
 800140a:	6821      	ldr	r1, [r4, #0]
 800140c:	680b      	ldr	r3, [r1, #0]
 800140e:	ea36 0303 	bics.w	r3, r6, r3
 8001412:	d101      	bne.n	8001418 <UART_WaitOnFlagUntilTimeout.constprop.3+0x18>
  return HAL_OK;
 8001414:	2000      	movs	r0, #0
}
 8001416:	bdf8      	pop	{r3, r4, r5, r6, r7, pc}
    if(Timeout != HAL_MAX_DELAY)
 8001418:	1c6b      	adds	r3, r5, #1
 800141a:	d0f7      	beq.n	800140c <UART_WaitOnFlagUntilTimeout.constprop.3+0xc>
      if((Timeout == 0U)||((HAL_GetTick() - Tickstart ) > Timeout))
 800141c:	b995      	cbnz	r5, 8001444 <UART_WaitOnFlagUntilTimeout.constprop.3+0x44>
        CLEAR_BIT(huart->Instance->CR1, (USART_CR1_RXNEIE | USART_CR1_PEIE | USART_CR1_TXEIE));
 800141e:	6823      	ldr	r3, [r4, #0]
        __HAL_UNLOCK(huart);
 8001420:	2003      	movs	r0, #3
        CLEAR_BIT(huart->Instance->CR1, (USART_CR1_RXNEIE | USART_CR1_PEIE | USART_CR1_TXEIE));
 8001422:	68da      	ldr	r2, [r3, #12]
 8001424:	f422 72d0 	bic.w	r2, r2, #416	; 0x1a0
 8001428:	60da      	str	r2, [r3, #12]
        CLEAR_BIT(huart->Instance->CR3, USART_CR3_EIE);
 800142a:	695a      	ldr	r2, [r3, #20]
 800142c:	f022 0201 	bic.w	r2, r2, #1
 8001430:	615a      	str	r2, [r3, #20]
        huart->gState  = HAL_UART_STATE_READY;
 8001432:	2320      	movs	r3, #32
 8001434:	f884 3039 	strb.w	r3, [r4, #57]	; 0x39
        huart->RxState = HAL_UART_STATE_READY;
 8001438:	f884 303a 	strb.w	r3, [r4, #58]	; 0x3a
        __HAL_UNLOCK(huart);
 800143c:	2300      	movs	r3, #0
 800143e:	f884 3038 	strb.w	r3, [r4, #56]	; 0x38
 8001442:	bdf8      	pop	{r3, r4, r5, r6, r7, pc}
      if((Timeout == 0U)||((HAL_GetTick() - Tickstart ) > Timeout))
 8001444:	f7fe fec4 	bl	80001d0 <HAL_GetTick>
 8001448:	1bc0      	subs	r0, r0, r7
 800144a:	4285      	cmp	r5, r0
 800144c:	d2dd      	bcs.n	800140a <UART_WaitOnFlagUntilTimeout.constprop.3+0xa>
 800144e:	e7e6      	b.n	800141e <UART_WaitOnFlagUntilTimeout.constprop.3+0x1e>

08001450 <HAL_UART_Init>:
{
 8001450:	b510      	push	{r4, lr}
  if(huart == NULL)
 8001452:	4604      	mov	r4, r0
 8001454:	b340      	cbz	r0, 80014a8 <HAL_UART_Init+0x58>
  if(huart->gState == HAL_UART_STATE_RESET)
 8001456:	f890 3039 	ldrb.w	r3, [r0, #57]	; 0x39
 800145a:	f003 02ff 	and.w	r2, r3, #255	; 0xff
 800145e:	b91b      	cbnz	r3, 8001468 <HAL_UART_Init+0x18>
    huart->Lock = HAL_UNLOCKED;
 8001460:	f880 2038 	strb.w	r2, [r0, #56]	; 0x38
    HAL_UART_MspInit(huart);
 8001464:	f002 fdfc 	bl	8004060 <HAL_UART_MspInit>
  huart->gState = HAL_UART_STATE_BUSY;
 8001468:	2324      	movs	r3, #36	; 0x24
  __HAL_UART_DISABLE(huart);
 800146a:	6822      	ldr	r2, [r4, #0]
  huart->gState = HAL_UART_STATE_BUSY;
 800146c:	f884 3039 	strb.w	r3, [r4, #57]	; 0x39
  __HAL_UART_DISABLE(huart);
 8001470:	68d3      	ldr	r3, [r2, #12]
  UART_SetConfig(huart);
 8001472:	4620      	mov	r0, r4
  __HAL_UART_DISABLE(huart);
 8001474:	f423 5300 	bic.w	r3, r3, #8192	; 0x2000
 8001478:	60d3      	str	r3, [r2, #12]
  UART_SetConfig(huart);
 800147a:	f7ff ff23 	bl	80012c4 <UART_SetConfig>
  CLEAR_BIT(huart->Instance->CR2, (USART_CR2_LINEN | USART_CR2_CLKEN));
 800147e:	6823      	ldr	r3, [r4, #0]
  huart->ErrorCode = HAL_UART_ERROR_NONE;
 8001480:	2000      	movs	r0, #0
  CLEAR_BIT(huart->Instance->CR2, (USART_CR2_LINEN | USART_CR2_CLKEN));
 8001482:	691a      	ldr	r2, [r3, #16]
 8001484:	f422 4290 	bic.w	r2, r2, #18432	; 0x4800
 8001488:	611a      	str	r2, [r3, #16]
  CLEAR_BIT(huart->Instance->CR3, (USART_CR3_SCEN | USART_CR3_HDSEL | USART_CR3_IREN));
 800148a:	695a      	ldr	r2, [r3, #20]
 800148c:	f022 022a 	bic.w	r2, r2, #42	; 0x2a
 8001490:	615a      	str	r2, [r3, #20]
  __HAL_UART_ENABLE(huart);
 8001492:	68da      	ldr	r2, [r3, #12]
 8001494:	f442 5200 	orr.w	r2, r2, #8192	; 0x2000
 8001498:	60da      	str	r2, [r3, #12]
  huart->gState= HAL_UART_STATE_READY;
 800149a:	2320      	movs	r3, #32
  huart->ErrorCode = HAL_UART_ERROR_NONE;
 800149c:	63e0      	str	r0, [r4, #60]	; 0x3c
  huart->gState= HAL_UART_STATE_READY;
 800149e:	f884 3039 	strb.w	r3, [r4, #57]	; 0x39
  huart->RxState= HAL_UART_STATE_READY;
 80014a2:	f884 303a 	strb.w	r3, [r4, #58]	; 0x3a
  return HAL_OK;
 80014a6:	bd10      	pop	{r4, pc}
    return HAL_ERROR;
 80014a8:	2001      	movs	r0, #1
}
 80014aa:	bd10      	pop	{r4, pc}

080014ac <HAL_UART_Transmit>:
{
 80014ac:	e92d 41f0 	stmdb	sp!, {r4, r5, r6, r7, r8, lr}
 80014b0:	461f      	mov	r7, r3
  if(huart->gState == HAL_UART_STATE_READY)
 80014b2:	f890 3039 	ldrb.w	r3, [r0, #57]	; 0x39
{
 80014b6:	4604      	mov	r4, r0
  if(huart->gState == HAL_UART_STATE_READY)
 80014b8:	2b20      	cmp	r3, #32
{
 80014ba:	460d      	mov	r5, r1
 80014bc:	4690      	mov	r8, r2
  if(huart->gState == HAL_UART_STATE_READY)
 80014be:	d14e      	bne.n	800155e <HAL_UART_Transmit+0xb2>
    if((pData == NULL) || (Size == 0U))
 80014c0:	2900      	cmp	r1, #0
 80014c2:	d049      	beq.n	8001558 <HAL_UART_Transmit+0xac>
 80014c4:	2a00      	cmp	r2, #0
 80014c6:	d047      	beq.n	8001558 <HAL_UART_Transmit+0xac>
    __HAL_LOCK(huart);
 80014c8:	f890 3038 	ldrb.w	r3, [r0, #56]	; 0x38
 80014cc:	2b01      	cmp	r3, #1
 80014ce:	d046      	beq.n	800155e <HAL_UART_Transmit+0xb2>
 80014d0:	2301      	movs	r3, #1
 80014d2:	f880 3038 	strb.w	r3, [r0, #56]	; 0x38
    huart->ErrorCode = HAL_UART_ERROR_NONE;
 80014d6:	2300      	movs	r3, #0
 80014d8:	63c3      	str	r3, [r0, #60]	; 0x3c
    huart->gState = HAL_UART_STATE_BUSY_TX;
 80014da:	2321      	movs	r3, #33	; 0x21
 80014dc:	f880 3039 	strb.w	r3, [r0, #57]	; 0x39
    tickstart = HAL_GetTick();
 80014e0:	f7fe fe76 	bl	80001d0 <HAL_GetTick>
 80014e4:	4606      	mov	r6, r0
    huart->TxXferSize = Size;
 80014e6:	f8a4 8024 	strh.w	r8, [r4, #36]	; 0x24
    huart->TxXferCount = Size;
 80014ea:	f8a4 8026 	strh.w	r8, [r4, #38]	; 0x26
    while(huart->TxXferCount > 0U)
 80014ee:	8ce3      	ldrh	r3, [r4, #38]	; 0x26
 80014f0:	b29b      	uxth	r3, r3
 80014f2:	b96b      	cbnz	r3, 8001510 <HAL_UART_Transmit+0x64>
    if(UART_WaitOnFlagUntilTimeout(huart, UART_FLAG_TC, RESET, tickstart, Timeout) != HAL_OK)
 80014f4:	463b      	mov	r3, r7
 80014f6:	4632      	mov	r2, r6
 80014f8:	2140      	movs	r1, #64	; 0x40
 80014fa:	4620      	mov	r0, r4
 80014fc:	f7ff ff80 	bl	8001400 <UART_WaitOnFlagUntilTimeout.constprop.3>
 8001500:	b9a8      	cbnz	r0, 800152e <HAL_UART_Transmit+0x82>
    huart->gState = HAL_UART_STATE_READY;
 8001502:	2320      	movs	r3, #32
    __HAL_UNLOCK(huart);
 8001504:	f884 0038 	strb.w	r0, [r4, #56]	; 0x38
    huart->gState = HAL_UART_STATE_READY;
 8001508:	f884 3039 	strb.w	r3, [r4, #57]	; 0x39
    return HAL_OK;
 800150c:	e8bd 81f0 	ldmia.w	sp!, {r4, r5, r6, r7, r8, pc}
      huart->TxXferCount--;
 8001510:	8ce3      	ldrh	r3, [r4, #38]	; 0x26
        if(UART_WaitOnFlagUntilTimeout(huart, UART_FLAG_TXE, RESET, tickstart, Timeout) != HAL_OK)
 8001512:	4632      	mov	r2, r6
      huart->TxXferCount--;
 8001514:	3b01      	subs	r3, #1
 8001516:	b29b      	uxth	r3, r3
 8001518:	84e3      	strh	r3, [r4, #38]	; 0x26
      if(huart->Init.WordLength == UART_WORDLENGTH_9B)
 800151a:	68a3      	ldr	r3, [r4, #8]
        if(UART_WaitOnFlagUntilTimeout(huart, UART_FLAG_TXE, RESET, tickstart, Timeout) != HAL_OK)
 800151c:	2180      	movs	r1, #128	; 0x80
      if(huart->Init.WordLength == UART_WORDLENGTH_9B)
 800151e:	f5b3 5f80 	cmp.w	r3, #4096	; 0x1000
        if(UART_WaitOnFlagUntilTimeout(huart, UART_FLAG_TXE, RESET, tickstart, Timeout) != HAL_OK)
 8001522:	4620      	mov	r0, r4
 8001524:	463b      	mov	r3, r7
      if(huart->Init.WordLength == UART_WORDLENGTH_9B)
 8001526:	d10e      	bne.n	8001546 <HAL_UART_Transmit+0x9a>
        if(UART_WaitOnFlagUntilTimeout(huart, UART_FLAG_TXE, RESET, tickstart, Timeout) != HAL_OK)
 8001528:	f7ff ff6a 	bl	8001400 <UART_WaitOnFlagUntilTimeout.constprop.3>
 800152c:	b110      	cbz	r0, 8001534 <HAL_UART_Transmit+0x88>
          return HAL_TIMEOUT;
 800152e:	2003      	movs	r0, #3
 8001530:	e8bd 81f0 	ldmia.w	sp!, {r4, r5, r6, r7, r8, pc}
        huart->Instance->DR = (*tmp & (uint16_t)0x01FF);
 8001534:	882b      	ldrh	r3, [r5, #0]
 8001536:	6822      	ldr	r2, [r4, #0]
 8001538:	f3c3 0308 	ubfx	r3, r3, #0, #9
 800153c:	6053      	str	r3, [r2, #4]
        if(huart->Init.Parity == UART_PARITY_NONE)
 800153e:	6923      	ldr	r3, [r4, #16]
 8001540:	b943      	cbnz	r3, 8001554 <HAL_UART_Transmit+0xa8>
          pData +=2U;
 8001542:	3502      	adds	r5, #2
 8001544:	e7d3      	b.n	80014ee <HAL_UART_Transmit+0x42>
        if(UART_WaitOnFlagUntilTimeout(huart, UART_FLAG_TXE, RESET, tickstart, Timeout) != HAL_OK)
 8001546:	f7ff ff5b 	bl	8001400 <UART_WaitOnFlagUntilTimeout.constprop.3>
 800154a:	2800      	cmp	r0, #0
 800154c:	d1ef      	bne.n	800152e <HAL_UART_Transmit+0x82>
        huart->Instance->DR = (*pData++ & (uint8_t)0xFF);
 800154e:	6823      	ldr	r3, [r4, #0]
 8001550:	782a      	ldrb	r2, [r5, #0]
 8001552:	605a      	str	r2, [r3, #4]
 8001554:	3501      	adds	r5, #1
 8001556:	e7ca      	b.n	80014ee <HAL_UART_Transmit+0x42>
      return  HAL_ERROR;
 8001558:	2001      	movs	r0, #1
 800155a:	e8bd 81f0 	ldmia.w	sp!, {r4, r5, r6, r7, r8, pc}
    return HAL_BUSY;
 800155e:	2002      	movs	r0, #2
}
 8001560:	e8bd 81f0 	ldmia.w	sp!, {r4, r5, r6, r7, r8, pc}

08001564 <disk_status>:
	BYTE pdrv		/* Physical drive nmuber to identify the drive */
)
{
  DSTATUS stat;
  
  stat = disk.drv[pdrv]->disk_status(disk.lun[pdrv]);
 8001564:	4b03      	ldr	r3, [pc, #12]	; (8001574 <disk_status+0x10>)
 8001566:	181a      	adds	r2, r3, r0
 8001568:	eb03 0380 	add.w	r3, r3, r0, lsl #2
 800156c:	685b      	ldr	r3, [r3, #4]
 800156e:	7a10      	ldrb	r0, [r2, #8]
 8001570:	685b      	ldr	r3, [r3, #4]
 8001572:	4718      	bx	r3
 8001574:	200002c4 	.word	0x200002c4

08001578 <disk_initialize>:
	BYTE pdrv				/* Physical drive nmuber to identify the drive */
)
{
  DSTATUS stat = RES_OK;
  
  if(disk.is_initialized[pdrv] == 0)
 8001578:	4b06      	ldr	r3, [pc, #24]	; (8001594 <disk_initialize+0x1c>)
 800157a:	5c1a      	ldrb	r2, [r3, r0]
 800157c:	b942      	cbnz	r2, 8001590 <disk_initialize+0x18>
  { 
    disk.is_initialized[pdrv] = 1;
 800157e:	2201      	movs	r2, #1
 8001580:	541a      	strb	r2, [r3, r0]
    stat = disk.drv[pdrv]->disk_initialize(disk.lun[pdrv]);
 8001582:	181a      	adds	r2, r3, r0
 8001584:	eb03 0380 	add.w	r3, r3, r0, lsl #2
 8001588:	685b      	ldr	r3, [r3, #4]
 800158a:	7a10      	ldrb	r0, [r2, #8]
 800158c:	681b      	ldr	r3, [r3, #0]
 800158e:	4718      	bx	r3
  }
  return stat;
}
 8001590:	2000      	movs	r0, #0
 8001592:	4770      	bx	lr
 8001594:	200002c4 	.word	0x200002c4

08001598 <disk_read>:
	BYTE pdrv,		/* Physical drive nmuber to identify the drive */
	BYTE *buff,		/* Data buffer to store read data */
	DWORD sector,	        /* Sector address in LBA */
	UINT count		/* Number of sectors to read */
)
{
 8001598:	b430      	push	{r4, r5}
  DRESULT res;
 
  res = disk.drv[pdrv]->disk_read(disk.lun[pdrv], buff, sector, count);
 800159a:	4c05      	ldr	r4, [pc, #20]	; (80015b0 <disk_read+0x18>)
 800159c:	1825      	adds	r5, r4, r0
 800159e:	eb04 0480 	add.w	r4, r4, r0, lsl #2
 80015a2:	6860      	ldr	r0, [r4, #4]
 80015a4:	6884      	ldr	r4, [r0, #8]
 80015a6:	7a28      	ldrb	r0, [r5, #8]
 80015a8:	46a4      	mov	ip, r4
  return res;
}
 80015aa:	bc30      	pop	{r4, r5}
  res = disk.drv[pdrv]->disk_read(disk.lun[pdrv], buff, sector, count);
 80015ac:	4760      	bx	ip
 80015ae:	bf00      	nop
 80015b0:	200002c4 	.word	0x200002c4

080015b4 <disk_write>:
	BYTE pdrv,		/* Physical drive nmuber to identify the drive */
	const BYTE *buff,	/* Data to be written */
	DWORD sector,		/* Sector address in LBA */
	UINT count        	/* Number of sectors to write */
)
{
 80015b4:	b430      	push	{r4, r5}
  DRESULT res;
  
  res = disk.drv[pdrv]->disk_write(disk.lun[pdrv], buff, sector, count);
 80015b6:	4c05      	ldr	r4, [pc, #20]	; (80015cc <disk_write+0x18>)
 80015b8:	1825      	adds	r5, r4, r0
 80015ba:	eb04 0480 	add.w	r4, r4, r0, lsl #2
 80015be:	6860      	ldr	r0, [r4, #4]
 80015c0:	68c4      	ldr	r4, [r0, #12]
 80015c2:	7a28      	ldrb	r0, [r5, #8]
 80015c4:	46a4      	mov	ip, r4
  return res;
}
 80015c6:	bc30      	pop	{r4, r5}
  res = disk.drv[pdrv]->disk_write(disk.lun[pdrv], buff, sector, count);
 80015c8:	4760      	bx	ip
 80015ca:	bf00      	nop
 80015cc:	200002c4 	.word	0x200002c4

080015d0 <disk_ioctl>:
DRESULT disk_ioctl (
	BYTE pdrv,		/* Physical drive nmuber (0..) */
	BYTE cmd,		/* Control code */
	void *buff		/* Buffer to send/receive control data */
)
{
 80015d0:	b410      	push	{r4}
  DRESULT res;

  res = disk.drv[pdrv]->disk_ioctl(disk.lun[pdrv], cmd, buff);
 80015d2:	4b04      	ldr	r3, [pc, #16]	; (80015e4 <disk_ioctl+0x14>)
 80015d4:	181c      	adds	r4, r3, r0
 80015d6:	eb03 0380 	add.w	r3, r3, r0, lsl #2
 80015da:	685b      	ldr	r3, [r3, #4]
 80015dc:	7a20      	ldrb	r0, [r4, #8]
 80015de:	691b      	ldr	r3, [r3, #16]
  return res;
}
 80015e0:	bc10      	pop	{r4}
  res = disk.drv[pdrv]->disk_ioctl(disk.lun[pdrv], cmd, buff);
 80015e2:	4718      	bx	r3
 80015e4:	200002c4 	.word	0x200002c4

080015e8 <mem_cpy>:
/* String functions                                                      */
/*-----------------------------------------------------------------------*/

/* Copy memory to memory */
static
void mem_cpy (void* dst, const void* src, UINT cnt) {
 80015e8:	3801      	subs	r0, #1
 80015ea:	440a      	add	r2, r1
		*(int*)d = *(int*)s;
		d += sizeof (int); s += sizeof (int);
		cnt -= sizeof (int);
	}
#endif
	while (cnt--)
 80015ec:	4291      	cmp	r1, r2
 80015ee:	d100      	bne.n	80015f2 <mem_cpy+0xa>
		*d++ = *s++;
}
 80015f0:	4770      	bx	lr
		*d++ = *s++;
 80015f2:	f811 3b01 	ldrb.w	r3, [r1], #1
 80015f6:	f800 3f01 	strb.w	r3, [r0, #1]!
 80015fa:	e7f7      	b.n	80015ec <mem_cpy+0x4>

080015fc <mem_set>:

/* Fill memory */
static
void mem_set (void* dst, int val, UINT cnt) {
 80015fc:	4402      	add	r2, r0
	BYTE *d = (BYTE*)dst;

	while (cnt--)
 80015fe:	4290      	cmp	r0, r2
 8001600:	d100      	bne.n	8001604 <mem_set+0x8>
		*d++ = (BYTE)val;
}
 8001602:	4770      	bx	lr
		*d++ = (BYTE)val;
 8001604:	f800 1b01 	strb.w	r1, [r0], #1
 8001608:	e7f9      	b.n	80015fe <mem_set+0x2>
	...

0800160c <chk_lock>:
static
FRESULT chk_lock (	/* Check if the file can be accessed */
	DIR* dp,		/* Directory object pointing the file to be checked */
	int acc			/* Desired access type (0:Read, 1:Write, 2:Delete/Rename) */
)
{
 800160c:	b5f0      	push	{r4, r5, r6, r7, lr}
	UINT i, be;

	/* Search file semaphore table */
	for (i = be = 0; i < _FS_LOCK; i++) {
 800160e:	2400      	movs	r4, #0
		if (Files[i].fs) {	/* Existing entry */
			if (Files[i].fs == dp->fs &&	 	/* Check if the object matched with an open object */
 8001610:	f500 5c80 	add.w	ip, r0, #4096	; 0x1000
 8001614:	4b17      	ldr	r3, [pc, #92]	; (8001674 <chk_lock+0x68>)
				Files[i].clu == dp->sclust &&
 8001616:	4665      	mov	r5, ip
				Files[i].idx == dp->index) break;
 8001618:	4660      	mov	r0, ip
	for (i = be = 0; i < _FS_LOCK; i++) {
 800161a:	4622      	mov	r2, r4
 800161c:	469e      	mov	lr, r3
				Files[i].clu == dp->sclust &&
 800161e:	3508      	adds	r5, #8
				Files[i].idx == dp->index) break;
 8001620:	3006      	adds	r0, #6
		if (Files[i].fs) {	/* Existing entry */
 8001622:	681e      	ldr	r6, [r3, #0]
 8001624:	b1b6      	cbz	r6, 8001654 <chk_lock+0x48>
			if (Files[i].fs == dp->fs &&	 	/* Check if the object matched with an open object */
 8001626:	f8dc 7000 	ldr.w	r7, [ip]
 800162a:	42be      	cmp	r6, r7
 800162c:	d113      	bne.n	8001656 <chk_lock+0x4a>
 800162e:	685f      	ldr	r7, [r3, #4]
 8001630:	682e      	ldr	r6, [r5, #0]
 8001632:	42b7      	cmp	r7, r6
 8001634:	d10f      	bne.n	8001656 <chk_lock+0x4a>
				Files[i].clu == dp->sclust &&
 8001636:	891f      	ldrh	r7, [r3, #8]
 8001638:	8806      	ldrh	r6, [r0, #0]
 800163a:	42b7      	cmp	r7, r6
 800163c:	d10b      	bne.n	8001656 <chk_lock+0x4a>
	}
	if (i == _FS_LOCK)	/* The object is not opened */
		return (be || acc == 2) ? FR_OK : FR_TOO_MANY_OPEN_FILES;	/* Is there a blank entry for new object? */

	/* The object has been opened. Reject any open against writing file and all write mode open */
	return (acc || Files[i].ctr == 0x100) ? FR_LOCKED : FR_OK;
 800163e:	b9b9      	cbnz	r1, 8001670 <chk_lock+0x64>
 8001640:	230c      	movs	r3, #12
 8001642:	fb03 e202 	mla	r2, r3, r2, lr
 8001646:	8953      	ldrh	r3, [r2, #10]
 8001648:	f5b3 7f80 	cmp.w	r3, #256	; 0x100
 800164c:	bf14      	ite	ne
 800164e:	2000      	movne	r0, #0
 8001650:	2010      	moveq	r0, #16
 8001652:	bdf0      	pop	{r4, r5, r6, r7, pc}
			be = 1;
 8001654:	2401      	movs	r4, #1
	for (i = be = 0; i < _FS_LOCK; i++) {
 8001656:	3201      	adds	r2, #1
 8001658:	2a02      	cmp	r2, #2
 800165a:	f103 030c 	add.w	r3, r3, #12
 800165e:	d1e0      	bne.n	8001622 <chk_lock+0x16>
		return (be || acc == 2) ? FR_OK : FR_TOO_MANY_OPEN_FILES;	/* Is there a blank entry for new object? */
 8001660:	b10c      	cbz	r4, 8001666 <chk_lock+0x5a>
	return (acc || Files[i].ctr == 0x100) ? FR_LOCKED : FR_OK;
 8001662:	2000      	movs	r0, #0
 8001664:	bdf0      	pop	{r4, r5, r6, r7, pc}
		return (be || acc == 2) ? FR_OK : FR_TOO_MANY_OPEN_FILES;	/* Is there a blank entry for new object? */
 8001666:	2902      	cmp	r1, #2
 8001668:	bf0c      	ite	eq
 800166a:	2000      	moveq	r0, #0
 800166c:	2012      	movne	r0, #18
 800166e:	bdf0      	pop	{r4, r5, r6, r7, pc}
	return (acc || Files[i].ctr == 0x100) ? FR_LOCKED : FR_OK;
 8001670:	2010      	movs	r0, #16
 8001672:	bdf0      	pop	{r4, r5, r6, r7, pc}
 8001674:	200000a8 	.word	0x200000a8

08001678 <inc_lock>:
static
UINT inc_lock (	/* Increment object open counter and returns its index (0:Internal error) */
	DIR* dp,	/* Directory object pointing the file to register or increment */
	int acc		/* Desired access (0:Read, 1:Write, 2:Delete/Rename) */
)
{
 8001678:	e92d 41f0 	stmdb	sp!, {r4, r5, r6, r7, r8, lr}
 800167c:	4c28      	ldr	r4, [pc, #160]	; (8001720 <inc_lock+0xa8>)
	UINT i;


	for (i = 0; i < _FS_LOCK; i++) {	/* Find the object */
		if (Files[i].fs == dp->fs &&
 800167e:	f500 5380 	add.w	r3, r0, #4096	; 0x1000
 8001682:	f8d3 e000 	ldr.w	lr, [r3]
{
 8001686:	4688      	mov	r8, r1
	for (i = 0; i < _FS_LOCK; i++) {	/* Find the object */
 8001688:	2300      	movs	r3, #0
 800168a:	4622      	mov	r2, r4
			Files[i].clu == dp->sclust &&
 800168c:	f500 5580 	add.w	r5, r0, #4096	; 0x1000
			Files[i].idx == dp->index) break;
 8001690:	f500 5680 	add.w	r6, r0, #4096	; 0x1000
			Files[i].clu == dp->sclust &&
 8001694:	3508      	adds	r5, #8
			Files[i].idx == dp->index) break;
 8001696:	3606      	adds	r6, #6
		if (Files[i].fs == dp->fs &&
 8001698:	6827      	ldr	r7, [r4, #0]
 800169a:	4577      	cmp	r7, lr
 800169c:	d108      	bne.n	80016b0 <inc_lock+0x38>
 800169e:	6829      	ldr	r1, [r5, #0]
 80016a0:	6867      	ldr	r7, [r4, #4]
 80016a2:	428f      	cmp	r7, r1
 80016a4:	d104      	bne.n	80016b0 <inc_lock+0x38>
			Files[i].clu == dp->sclust &&
 80016a6:	f8b4 c008 	ldrh.w	ip, [r4, #8]
 80016aa:	8837      	ldrh	r7, [r6, #0]
 80016ac:	45bc      	cmp	ip, r7
 80016ae:	d028      	beq.n	8001702 <inc_lock+0x8a>
	for (i = 0; i < _FS_LOCK; i++) {	/* Find the object */
 80016b0:	3301      	adds	r3, #1
 80016b2:	2b02      	cmp	r3, #2
 80016b4:	f104 040c 	add.w	r4, r4, #12
 80016b8:	d1ee      	bne.n	8001698 <inc_lock+0x20>
	}

	if (i == _FS_LOCK) {				/* Not opened. Register it as new. */
		for (i = 0; i < _FS_LOCK && Files[i].fs; i++) ;
 80016ba:	6813      	ldr	r3, [r2, #0]
 80016bc:	b113      	cbz	r3, 80016c4 <inc_lock+0x4c>
 80016be:	68d3      	ldr	r3, [r2, #12]
 80016c0:	bb53      	cbnz	r3, 8001718 <inc_lock+0xa0>
 80016c2:	2301      	movs	r3, #1
		if (i == _FS_LOCK) return 0;	/* No free entry to register (int err) */
		Files[i].fs = dp->fs;
 80016c4:	240c      	movs	r4, #12
 80016c6:	435c      	muls	r4, r3
 80016c8:	1915      	adds	r5, r2, r4
 80016ca:	f842 e004 	str.w	lr, [r2, r4]
		Files[i].clu = dp->sclust;
 80016ce:	f241 0408 	movw	r4, #4104	; 0x1008
 80016d2:	5904      	ldr	r4, [r0, r4]
 80016d4:	606c      	str	r4, [r5, #4]
		Files[i].idx = dp->index;
 80016d6:	f241 0406 	movw	r4, #4102	; 0x1006
 80016da:	5b00      	ldrh	r0, [r0, r4]
 80016dc:	8128      	strh	r0, [r5, #8]
		Files[i].ctr = 0;
 80016de:	2000      	movs	r0, #0
 80016e0:	8168      	strh	r0, [r5, #10]
	}

	if (acc && Files[i].ctr) return 0;	/* Access violation (int err) */
 80016e2:	f1b8 0f00 	cmp.w	r8, #0
 80016e6:	d114      	bne.n	8001712 <inc_lock+0x9a>

	Files[i].ctr = acc ? 0x100 : Files[i].ctr + 1;	/* Set semaphore value */
 80016e8:	210c      	movs	r1, #12
 80016ea:	fb01 2103 	mla	r1, r1, r3, r2
 80016ee:	8949      	ldrh	r1, [r1, #10]
 80016f0:	3101      	adds	r1, #1
 80016f2:	b289      	uxth	r1, r1
 80016f4:	200c      	movs	r0, #12
 80016f6:	fb00 2203 	mla	r2, r0, r3, r2

	return i + 1;
 80016fa:	1c58      	adds	r0, r3, #1
	Files[i].ctr = acc ? 0x100 : Files[i].ctr + 1;	/* Set semaphore value */
 80016fc:	8151      	strh	r1, [r2, #10]
	return i + 1;
 80016fe:	e8bd 81f0 	ldmia.w	sp!, {r4, r5, r6, r7, r8, pc}
	if (acc && Files[i].ctr) return 0;	/* Access violation (int err) */
 8001702:	f1b8 0f00 	cmp.w	r8, #0
 8001706:	d0ef      	beq.n	80016e8 <inc_lock+0x70>
 8001708:	210c      	movs	r1, #12
 800170a:	fb01 2103 	mla	r1, r1, r3, r2
 800170e:	8949      	ldrh	r1, [r1, #10]
 8001710:	b911      	cbnz	r1, 8001718 <inc_lock+0xa0>
	Files[i].ctr = acc ? 0x100 : Files[i].ctr + 1;	/* Set semaphore value */
 8001712:	f44f 7180 	mov.w	r1, #256	; 0x100
 8001716:	e7ed      	b.n	80016f4 <inc_lock+0x7c>
		if (i == _FS_LOCK) return 0;	/* No free entry to register (int err) */
 8001718:	2000      	movs	r0, #0
 800171a:	e8bd 81f0 	ldmia.w	sp!, {r4, r5, r6, r7, r8, pc}
 800171e:	bf00      	nop
 8001720:	200000a8 	.word	0x200000a8

08001724 <dec_lock>:

static
FRESULT dec_lock (	/* Decrement object open counter */
	UINT i			/* Semaphore index (1..) */
)
{
 8001724:	b530      	push	{r4, r5, lr}
	WORD n;
	FRESULT res;


	if (--i < _FS_LOCK) {	/* Shift index number origin from 0 */
 8001726:	1e45      	subs	r5, r0, #1
 8001728:	2d01      	cmp	r5, #1
 800172a:	d811      	bhi.n	8001750 <dec_lock+0x2c>
		n = Files[i].ctr;
 800172c:	220c      	movs	r2, #12
 800172e:	490a      	ldr	r1, [pc, #40]	; (8001758 <dec_lock+0x34>)
 8001730:	fb02 1305 	mla	r3, r2, r5, r1
 8001734:	895c      	ldrh	r4, [r3, #10]
		if (n == 0x100) n = 0;		/* If write mode open, delete the entry */
		if (n) n--;					/* Decrement read mode open count */
 8001736:	f424 7380 	bic.w	r3, r4, #256	; 0x100
 800173a:	b298      	uxth	r0, r3
 800173c:	b108      	cbz	r0, 8001742 <dec_lock+0x1e>
 800173e:	3c01      	subs	r4, #1
 8001740:	b2a0      	uxth	r0, r4
		Files[i].ctr = n;
 8001742:	fb02 f305 	mul.w	r3, r2, r5
 8001746:	18ca      	adds	r2, r1, r3
 8001748:	8150      	strh	r0, [r2, #10]
		if (!n) Files[i].fs = 0;	/* Delete the entry if open count gets zero */
 800174a:	b918      	cbnz	r0, 8001754 <dec_lock+0x30>
 800174c:	50c8      	str	r0, [r1, r3]
 800174e:	bd30      	pop	{r4, r5, pc}
		res = FR_OK;
	} else {
		res = FR_INT_ERR;			/* Invalid index nunber */
 8001750:	2002      	movs	r0, #2
 8001752:	bd30      	pop	{r4, r5, pc}
		res = FR_OK;
 8001754:	2000      	movs	r0, #0
	}
	return res;
}
 8001756:	bd30      	pop	{r4, r5, pc}
 8001758:	200000a8 	.word	0x200000a8

0800175c <clmt_clust>:
)
{
	DWORD cl, ncl, *tbl;


	tbl = fp->cltbl + 1;	/* Top of CLMT */
 800175c:	f241 0324 	movw	r3, #4132	; 0x1024
 8001760:	58c2      	ldr	r2, [r0, r3]
	cl = ofs / SS(fp->fs) / fp->fs->csize;	/* Cluster order from top of the file */
 8001762:	f241 030a 	movw	r3, #4106	; 0x100a
 8001766:	f500 5080 	add.w	r0, r0, #4096	; 0x1000
 800176a:	6800      	ldr	r0, [r0, #0]
	tbl = fp->cltbl + 1;	/* Top of CLMT */
 800176c:	3204      	adds	r2, #4
	cl = ofs / SS(fp->fs) / fp->fs->csize;	/* Cluster order from top of the file */
 800176e:	5ac3      	ldrh	r3, [r0, r3]
 8001770:	fbb1 f1f3 	udiv	r1, r1, r3
 8001774:	f241 0302 	movw	r3, #4098	; 0x1002
 8001778:	5cc3      	ldrb	r3, [r0, r3]
 800177a:	fbb1 f1f3 	udiv	r1, r1, r3
	for (;;) {
		ncl = *tbl++;			/* Number of cluters in the fragment */
 800177e:	6810      	ldr	r0, [r2, #0]
		if (!ncl) return 0;		/* End of table? (error) */
 8001780:	b130      	cbz	r0, 8001790 <clmt_clust+0x34>
		if (cl < ncl) break;	/* In this fragment? */
 8001782:	4281      	cmp	r1, r0
 8001784:	d302      	bcc.n	800178c <clmt_clust+0x30>
		cl -= ncl; tbl++;		/* Next fragment */
 8001786:	1a09      	subs	r1, r1, r0
 8001788:	3208      	adds	r2, #8
		ncl = *tbl++;			/* Number of cluters in the fragment */
 800178a:	e7f8      	b.n	800177e <clmt_clust+0x22>
	}
	return cl + *tbl;	/* Return the cluster number */
 800178c:	6850      	ldr	r0, [r2, #4]
 800178e:	4408      	add	r0, r1
}
 8001790:	4770      	bx	lr

08001792 <sum_sfn>:
#if _USE_LFN
static
BYTE sum_sfn (
	const BYTE* dir		/* Pointer to the SFN entry */
)
{
 8001792:	4602      	mov	r2, r0
 8001794:	f100 010b 	add.w	r1, r0, #11
	BYTE sum = 0;
 8001798:	2000      	movs	r0, #0
	UINT n = 11;

	do sum = (sum >> 1) + (sum << 7) + *dir++; while (--n);
 800179a:	01c3      	lsls	r3, r0, #7
 800179c:	ea43 0350 	orr.w	r3, r3, r0, lsr #1
 80017a0:	f812 0b01 	ldrb.w	r0, [r2], #1
 80017a4:	4403      	add	r3, r0
 80017a6:	428a      	cmp	r2, r1
 80017a8:	f003 00ff 	and.w	r0, r3, #255	; 0xff
 80017ac:	d1f5      	bne.n	800179a <sum_sfn+0x8>
	return sum;
}
 80017ae:	4770      	bx	lr

080017b0 <get_ldnumber>:
	char c;
	TCHAR tc;
#endif


	if (*path) {	/* If the pointer is not a null */
 80017b0:	6802      	ldr	r2, [r0, #0]
{
 80017b2:	b510      	push	{r4, lr}
	if (*path) {	/* If the pointer is not a null */
 80017b4:	b152      	cbz	r2, 80017cc <get_ldnumber+0x1c>
 80017b6:	4611      	mov	r1, r2
 80017b8:	460b      	mov	r3, r1
		for (tt = *path; (UINT)*tt >= (_USE_LFN ? ' ' : '!') && *tt != ':'; tt++) ;	/* Find ':' in the path */
 80017ba:	f811 4b01 	ldrb.w	r4, [r1], #1
 80017be:	2c1f      	cmp	r4, #31
 80017c0:	d90c      	bls.n	80017dc <get_ldnumber+0x2c>
 80017c2:	2c3a      	cmp	r4, #58	; 0x3a
 80017c4:	d1f8      	bne.n	80017b8 <get_ldnumber+0x8>
		if (*tt == ':') {	/* If a ':' is exist in the path name */
			tp = *path;
			i = *tp++ - '0'; 
 80017c6:	1c51      	adds	r1, r2, #1
			if (i < 10 && tp == tt) {	/* Is there a numeric drive id? */
 80017c8:	428b      	cmp	r3, r1
 80017ca:	d002      	beq.n	80017d2 <get_ldnumber+0x22>
	int vol = -1;
 80017cc:	f04f 30ff 	mov.w	r0, #4294967295
#else
		vol = 0;		/* Drive 0 */
#endif
	}
	return vol;
}
 80017d0:	bd10      	pop	{r4, pc}
				if (i < _VOLUMES) {	/* If a drive id is found, get the value and strip it */
 80017d2:	7812      	ldrb	r2, [r2, #0]
 80017d4:	2a30      	cmp	r2, #48	; 0x30
 80017d6:	d1f9      	bne.n	80017cc <get_ldnumber+0x1c>
					*path = ++tt;
 80017d8:	3301      	adds	r3, #1
 80017da:	6003      	str	r3, [r0, #0]
		vol = 0;		/* Drive 0 */
 80017dc:	2000      	movs	r0, #0
 80017de:	bd10      	pop	{r4, pc}

080017e0 <validate>:

static
FRESULT validate (	/* FR_OK(0): The object is valid, !=0: Invalid */
	void* obj		/* Pointer to the object FIL/DIR to check validity */
)
{
 80017e0:	b508      	push	{r3, lr}
	FIL *fil = (FIL*)obj;	/* Assuming offset of .fs and .id in the FIL/DIR structure is identical */


	if (!fil || !fil->fs || !fil->fs->fs_type || fil->fs->id != fil->id || (disk_status(fil->fs->drv) & STA_NOINIT))
 80017e2:	b1b8      	cbz	r0, 8001814 <validate+0x34>
 80017e4:	f500 5380 	add.w	r3, r0, #4096	; 0x1000
 80017e8:	681b      	ldr	r3, [r3, #0]
 80017ea:	b19b      	cbz	r3, 8001814 <validate+0x34>
 80017ec:	f503 5280 	add.w	r2, r3, #4096	; 0x1000
 80017f0:	7812      	ldrb	r2, [r2, #0]
 80017f2:	b17a      	cbz	r2, 8001814 <validate+0x34>
 80017f4:	f241 0206 	movw	r2, #4102	; 0x1006
 80017f8:	5a99      	ldrh	r1, [r3, r2]
 80017fa:	f241 0204 	movw	r2, #4100	; 0x1004
 80017fe:	5a82      	ldrh	r2, [r0, r2]
 8001800:	4291      	cmp	r1, r2
 8001802:	d107      	bne.n	8001814 <validate+0x34>
 8001804:	f241 0201 	movw	r2, #4097	; 0x1001
 8001808:	5c98      	ldrb	r0, [r3, r2]
 800180a:	f7ff feab 	bl	8001564 <disk_status>
 800180e:	f010 0001 	ands.w	r0, r0, #1
 8001812:	d000      	beq.n	8001816 <validate+0x36>
		return FR_INVALID_OBJECT;
 8001814:	2009      	movs	r0, #9

	ENTER_FF(fil->fs);		/* Lock file system */

	return FR_OK;
}
 8001816:	bd08      	pop	{r3, pc}

08001818 <ld_clust.isra.0>:
	cl = LD_WORD(dir + DIR_FstClusLO);
 8001818:	7eca      	ldrb	r2, [r1, #27]
 800181a:	7e8b      	ldrb	r3, [r1, #26]
	if (fs->fs_type == FS_FAT32)
 800181c:	2803      	cmp	r0, #3
	cl = LD_WORD(dir + DIR_FstClusLO);
 800181e:	ea43 2302 	orr.w	r3, r3, r2, lsl #8
		cl |= (DWORD)LD_WORD(dir + DIR_FstClusHI) << 16;
 8001822:	bf01      	itttt	eq
 8001824:	7d48      	ldrbeq	r0, [r1, #21]
 8001826:	7d0a      	ldrbeq	r2, [r1, #20]
 8001828:	ea42 2200 	orreq.w	r2, r2, r0, lsl #8
 800182c:	ea43 4302 	orreq.w	r3, r3, r2, lsl #16
}
 8001830:	4618      	mov	r0, r3
 8001832:	4770      	bx	lr

08001834 <sync_window.part.1>:
		wsect = fs->winsect;	/* Current sector number */
 8001834:	f241 032c 	movw	r3, #4140	; 0x102c
FRESULT sync_window (
 8001838:	e92d 41f0 	stmdb	sp!, {r4, r5, r6, r7, r8, lr}
		if (disk_write(fs->drv, fs->win.d8, wsect, 1) != RES_OK) {
 800183c:	f241 0701 	movw	r7, #4097	; 0x1001
		wsect = fs->winsect;	/* Current sector number */
 8001840:	58c5      	ldr	r5, [r0, r3]
FRESULT sync_window (
 8001842:	4604      	mov	r4, r0
		if (disk_write(fs->drv, fs->win.d8, wsect, 1) != RES_OK) {
 8001844:	4601      	mov	r1, r0
 8001846:	2301      	movs	r3, #1
 8001848:	462a      	mov	r2, r5
 800184a:	5dc0      	ldrb	r0, [r0, r7]
 800184c:	f7ff feb2 	bl	80015b4 <disk_write>
 8001850:	bb08      	cbnz	r0, 8001896 <sync_window.part.1+0x62>
			fs->wflag = 0;
 8001852:	f241 0304 	movw	r3, #4100	; 0x1004
 8001856:	54e0      	strb	r0, [r4, r3]
			if (wsect - fs->fatbase < fs->fsize) {		/* Is it in the FAT area? */
 8001858:	f504 5381 	add.w	r3, r4, #4128	; 0x1020
 800185c:	681a      	ldr	r2, [r3, #0]
 800185e:	f241 0318 	movw	r3, #4120	; 0x1018
 8001862:	58e1      	ldr	r1, [r4, r3]
 8001864:	1aaa      	subs	r2, r5, r2
 8001866:	428a      	cmp	r2, r1
 8001868:	d302      	bcc.n	8001870 <sync_window.part.1+0x3c>
	FRESULT res = FR_OK;
 800186a:	2000      	movs	r0, #0
 800186c:	e8bd 81f0 	ldmia.w	sp!, {r4, r5, r6, r7, r8, pc}
				for (nf = fs->n_fats; nf >= 2; nf--) {	/* Reflect the change to all FAT copies */
 8001870:	f241 0203 	movw	r2, #4099	; 0x1003
 8001874:	f814 8002 	ldrb.w	r8, [r4, r2]
					wsect += fs->fsize;
 8001878:	18e6      	adds	r6, r4, r3
				for (nf = fs->n_fats; nf >= 2; nf--) {	/* Reflect the change to all FAT copies */
 800187a:	f1b8 0f01 	cmp.w	r8, #1
 800187e:	d9f4      	bls.n	800186a <sync_window.part.1+0x36>
					wsect += fs->fsize;
 8001880:	6833      	ldr	r3, [r6, #0]
					disk_write(fs->drv, fs->win.d8, wsect, 1);
 8001882:	4621      	mov	r1, r4
					wsect += fs->fsize;
 8001884:	441d      	add	r5, r3
					disk_write(fs->drv, fs->win.d8, wsect, 1);
 8001886:	462a      	mov	r2, r5
 8001888:	2301      	movs	r3, #1
 800188a:	5de0      	ldrb	r0, [r4, r7]
 800188c:	f7ff fe92 	bl	80015b4 <disk_write>
				for (nf = fs->n_fats; nf >= 2; nf--) {	/* Reflect the change to all FAT copies */
 8001890:	f108 38ff 	add.w	r8, r8, #4294967295
 8001894:	e7f1      	b.n	800187a <sync_window.part.1+0x46>
			res = FR_DISK_ERR;
 8001896:	2001      	movs	r0, #1
}
 8001898:	e8bd 81f0 	ldmia.w	sp!, {r4, r5, r6, r7, r8, pc}

0800189c <sync_window>:
	if (fs->wflag) {	/* Write back the sector if it is dirty */
 800189c:	f241 0304 	movw	r3, #4100	; 0x1004
 80018a0:	5cc3      	ldrb	r3, [r0, r3]
 80018a2:	b10b      	cbz	r3, 80018a8 <sync_window+0xc>
 80018a4:	f7ff bfc6 	b.w	8001834 <sync_window.part.1>
}
 80018a8:	4618      	mov	r0, r3
 80018aa:	4770      	bx	lr

080018ac <sync_fs>:
{
 80018ac:	b570      	push	{r4, r5, r6, lr}
 80018ae:	4604      	mov	r4, r0
	res = sync_window(fs);
 80018b0:	f7ff fff4 	bl	800189c <sync_window>
 80018b4:	4605      	mov	r5, r0
	if (res == FR_OK) {
 80018b6:	2800      	cmp	r0, #0
 80018b8:	d15c      	bne.n	8001974 <sync_fs+0xc8>
		if (fs->fs_type == FS_FAT32 && fs->fsi_flag == 1) {
 80018ba:	f504 5380 	add.w	r3, r4, #4096	; 0x1000
 80018be:	781b      	ldrb	r3, [r3, #0]
 80018c0:	2b03      	cmp	r3, #3
 80018c2:	d14d      	bne.n	8001960 <sync_fs+0xb4>
 80018c4:	f241 0605 	movw	r6, #4101	; 0x1005
 80018c8:	5da3      	ldrb	r3, [r4, r6]
 80018ca:	2b01      	cmp	r3, #1
 80018cc:	d148      	bne.n	8001960 <sync_fs+0xb4>
			mem_set(fs->win.d8, 0, SS(fs));
 80018ce:	f241 020a 	movw	r2, #4106	; 0x100a
 80018d2:	4601      	mov	r1, r0
 80018d4:	5aa2      	ldrh	r2, [r4, r2]
 80018d6:	4620      	mov	r0, r4
 80018d8:	f7ff fe90 	bl	80015fc <mem_set>
			ST_WORD(fs->win.d8 + BS_55AA, 0xAA55);
 80018dc:	2255      	movs	r2, #85	; 0x55
 80018de:	f884 21fe 	strb.w	r2, [r4, #510]	; 0x1fe
 80018e2:	22aa      	movs	r2, #170	; 0xaa
 80018e4:	f884 21ff 	strb.w	r2, [r4, #511]	; 0x1ff
			ST_DWORD(fs->win.d8 + FSI_LeadSig, 0x41615252);
 80018e8:	2252      	movs	r2, #82	; 0x52
 80018ea:	7022      	strb	r2, [r4, #0]
 80018ec:	7062      	strb	r2, [r4, #1]
 80018ee:	2261      	movs	r2, #97	; 0x61
 80018f0:	2141      	movs	r1, #65	; 0x41
			ST_DWORD(fs->win.d8 + FSI_StrucSig, 0x61417272);
 80018f2:	2072      	movs	r0, #114	; 0x72
			ST_DWORD(fs->win.d8 + FSI_LeadSig, 0x41615252);
 80018f4:	70a2      	strb	r2, [r4, #2]
			ST_DWORD(fs->win.d8 + FSI_StrucSig, 0x61417272);
 80018f6:	f884 21e7 	strb.w	r2, [r4, #487]	; 0x1e7
			ST_DWORD(fs->win.d8 + FSI_Free_Count, fs->free_clust);
 80018fa:	f241 0210 	movw	r2, #4112	; 0x1010
			ST_DWORD(fs->win.d8 + FSI_LeadSig, 0x41615252);
 80018fe:	70e1      	strb	r1, [r4, #3]
			ST_DWORD(fs->win.d8 + FSI_StrucSig, 0x61417272);
 8001900:	f884 01e4 	strb.w	r0, [r4, #484]	; 0x1e4
 8001904:	f884 01e5 	strb.w	r0, [r4, #485]	; 0x1e5
 8001908:	f884 11e6 	strb.w	r1, [r4, #486]	; 0x1e6
			ST_DWORD(fs->win.d8 + FSI_Free_Count, fs->free_clust);
 800190c:	58a2      	ldr	r2, [r4, r2]
			disk_write(fs->drv, fs->win.d8, fs->winsect, 1);
 800190e:	f241 0001 	movw	r0, #4097	; 0x1001
			ST_DWORD(fs->win.d8 + FSI_Free_Count, fs->free_clust);
 8001912:	f3c2 2107 	ubfx	r1, r2, #8, #8
 8001916:	f884 21e8 	strb.w	r2, [r4, #488]	; 0x1e8
 800191a:	f884 11e9 	strb.w	r1, [r4, #489]	; 0x1e9
 800191e:	0c11      	lsrs	r1, r2, #16
 8001920:	0e12      	lsrs	r2, r2, #24
 8001922:	f884 21eb 	strb.w	r2, [r4, #491]	; 0x1eb
			ST_DWORD(fs->win.d8 + FSI_Nxt_Free, fs->last_clust);
 8001926:	f241 020c 	movw	r2, #4108	; 0x100c
			ST_DWORD(fs->win.d8 + FSI_Free_Count, fs->free_clust);
 800192a:	f884 11ea 	strb.w	r1, [r4, #490]	; 0x1ea
			ST_DWORD(fs->win.d8 + FSI_Nxt_Free, fs->last_clust);
 800192e:	58a2      	ldr	r2, [r4, r2]
 8001930:	f3c2 2107 	ubfx	r1, r2, #8, #8
 8001934:	f884 21ec 	strb.w	r2, [r4, #492]	; 0x1ec
 8001938:	f884 11ed 	strb.w	r1, [r4, #493]	; 0x1ed
 800193c:	0c11      	lsrs	r1, r2, #16
 800193e:	0e12      	lsrs	r2, r2, #24
 8001940:	f884 21ef 	strb.w	r2, [r4, #495]	; 0x1ef
			fs->winsect = fs->volbase + 1;
 8001944:	f241 021c 	movw	r2, #4124	; 0x101c
			ST_DWORD(fs->win.d8 + FSI_Nxt_Free, fs->last_clust);
 8001948:	f884 11ee 	strb.w	r1, [r4, #494]	; 0x1ee
			fs->winsect = fs->volbase + 1;
 800194c:	f241 012c 	movw	r1, #4140	; 0x102c
 8001950:	58a2      	ldr	r2, [r4, r2]
 8001952:	3201      	adds	r2, #1
 8001954:	5062      	str	r2, [r4, r1]
			disk_write(fs->drv, fs->win.d8, fs->winsect, 1);
 8001956:	5c20      	ldrb	r0, [r4, r0]
 8001958:	4621      	mov	r1, r4
 800195a:	f7ff fe2b 	bl	80015b4 <disk_write>
			fs->fsi_flag = 0;
 800195e:	55a5      	strb	r5, [r4, r6]
		if (disk_ioctl(fs->drv, CTRL_SYNC, 0) != RES_OK)
 8001960:	2200      	movs	r2, #0
 8001962:	f241 0301 	movw	r3, #4097	; 0x1001
 8001966:	4611      	mov	r1, r2
 8001968:	5ce0      	ldrb	r0, [r4, r3]
 800196a:	f7ff fe31 	bl	80015d0 <disk_ioctl>
 800196e:	3000      	adds	r0, #0
 8001970:	bf18      	it	ne
 8001972:	2001      	movne	r0, #1
}
 8001974:	bd70      	pop	{r4, r5, r6, pc}

08001976 <move_window>:
{
 8001976:	b5f8      	push	{r3, r4, r5, r6, r7, lr}
	if (sector != fs->winsect) {	/* Window offset changed? */
 8001978:	f241 072c 	movw	r7, #4140	; 0x102c
 800197c:	59c3      	ldr	r3, [r0, r7]
{
 800197e:	4606      	mov	r6, r0
	if (sector != fs->winsect) {	/* Window offset changed? */
 8001980:	428b      	cmp	r3, r1
{
 8001982:	460d      	mov	r5, r1
	if (sector != fs->winsect) {	/* Window offset changed? */
 8001984:	d013      	beq.n	80019ae <move_window+0x38>
		res = sync_window(fs);		/* Write-back changes */
 8001986:	f7ff ff89 	bl	800189c <sync_window>
		if (res == FR_OK) {			/* Fill sector window with new data */
 800198a:	4604      	mov	r4, r0
 800198c:	b968      	cbnz	r0, 80019aa <move_window+0x34>
			if (disk_read(fs->drv, fs->win.d8, sector, 1) != RES_OK) {
 800198e:	f241 0001 	movw	r0, #4097	; 0x1001
 8001992:	462a      	mov	r2, r5
 8001994:	2301      	movs	r3, #1
 8001996:	4631      	mov	r1, r6
 8001998:	5c30      	ldrb	r0, [r6, r0]
 800199a:	f7ff fdfd 	bl	8001598 <disk_read>
 800199e:	2800      	cmp	r0, #0
				res = FR_DISK_ERR;
 80019a0:	bf1c      	itt	ne
 80019a2:	f04f 35ff 	movne.w	r5, #4294967295
 80019a6:	2401      	movne	r4, #1
			fs->winsect = sector;
 80019a8:	51f5      	str	r5, [r6, r7]
}
 80019aa:	4620      	mov	r0, r4
 80019ac:	bdf8      	pop	{r3, r4, r5, r6, r7, pc}
	FRESULT res = FR_OK;
 80019ae:	2400      	movs	r4, #0
 80019b0:	e7fb      	b.n	80019aa <move_window+0x34>
	...

080019b4 <check_fs>:
	fs->wflag = 0; fs->winsect = 0xFFFFFFFF;	/* Invaidate window */
 80019b4:	2200      	movs	r2, #0
 80019b6:	f241 0304 	movw	r3, #4100	; 0x1004
{
 80019ba:	b510      	push	{r4, lr}
	fs->wflag = 0; fs->winsect = 0xFFFFFFFF;	/* Invaidate window */
 80019bc:	54c2      	strb	r2, [r0, r3]
 80019be:	f04f 32ff 	mov.w	r2, #4294967295
 80019c2:	f241 032c 	movw	r3, #4140	; 0x102c
 80019c6:	50c2      	str	r2, [r0, r3]
{
 80019c8:	4604      	mov	r4, r0
	if (move_window(fs, sect) != FR_OK)			/* Load boot record */
 80019ca:	f7ff ffd4 	bl	8001976 <move_window>
 80019ce:	b9c0      	cbnz	r0, 8001a02 <check_fs+0x4e>
	if (LD_WORD(&fs->win.d8[BS_55AA]) != 0xAA55)	/* Check boot record signature (always placed at offset 510 even if the sector size is >512) */
 80019d0:	f894 21ff 	ldrb.w	r2, [r4, #511]	; 0x1ff
 80019d4:	f894 31fe 	ldrb.w	r3, [r4, #510]	; 0x1fe
 80019d8:	ea43 2302 	orr.w	r3, r3, r2, lsl #8
 80019dc:	f64a 2255 	movw	r2, #43605	; 0xaa55
 80019e0:	4293      	cmp	r3, r2
 80019e2:	d110      	bne.n	8001a06 <check_fs+0x52>
	if ((LD_DWORD(&fs->win.d8[BS_FilSysType]) & 0xFFFFFF) == 0x544146)		/* Check "FAT" string */
 80019e4:	f8d4 3036 	ldr.w	r3, [r4, #54]	; 0x36
 80019e8:	4a08      	ldr	r2, [pc, #32]	; (8001a0c <check_fs+0x58>)
 80019ea:	f023 437f 	bic.w	r3, r3, #4278190080	; 0xff000000
 80019ee:	4293      	cmp	r3, r2
 80019f0:	d00a      	beq.n	8001a08 <check_fs+0x54>
	if ((LD_DWORD(&fs->win.d8[BS_FilSysType32]) & 0xFFFFFF) == 0x544146)	/* Check "FAT" string */
 80019f2:	f8d4 0052 	ldr.w	r0, [r4, #82]	; 0x52
 80019f6:	f020 407f 	bic.w	r0, r0, #4278190080	; 0xff000000
		return 3;
 80019fa:	1a80      	subs	r0, r0, r2
 80019fc:	bf18      	it	ne
 80019fe:	2001      	movne	r0, #1
 8001a00:	bd10      	pop	{r4, pc}
 8001a02:	2003      	movs	r0, #3
 8001a04:	bd10      	pop	{r4, pc}
		return 2;
 8001a06:	2002      	movs	r0, #2
}
 8001a08:	bd10      	pop	{r4, pc}
 8001a0a:	bf00      	nop
 8001a0c:	00544146 	.word	0x00544146

08001a10 <find_volume>:
{
 8001a10:	e92d 47ff 	stmdb	sp!, {r0, r1, r2, r3, r4, r5, r6, r7, r8, r9, sl, lr}
	*rfs = 0;
 8001a14:	2300      	movs	r3, #0
{
 8001a16:	4606      	mov	r6, r0
	*rfs = 0;
 8001a18:	6003      	str	r3, [r0, #0]
	vol = get_ldnumber(path);
 8001a1a:	4608      	mov	r0, r1
{
 8001a1c:	4615      	mov	r5, r2
	vol = get_ldnumber(path);
 8001a1e:	f7ff fec7 	bl	80017b0 <get_ldnumber>
	if (vol < 0) return FR_INVALID_DRIVE;
 8001a22:	1e07      	subs	r7, r0, #0
 8001a24:	f2c0 8162 	blt.w	8001cec <find_volume+0x2dc>
	fs = FatFs[vol];					/* Get pointer to the file system object */
 8001a28:	4bb4      	ldr	r3, [pc, #720]	; (8001cfc <find_volume+0x2ec>)
 8001a2a:	f853 4027 	ldr.w	r4, [r3, r7, lsl #2]
	if (!fs) return FR_NOT_ENABLED;		/* Is the file system object available? */
 8001a2e:	2c00      	cmp	r4, #0
 8001a30:	f000 815e 	beq.w	8001cf0 <find_volume+0x2e0>
	*rfs = fs;							/* Return pointer to the file system object */
 8001a34:	6034      	str	r4, [r6, #0]
	if (fs->fs_type) {					/* If the volume has been mounted */
 8001a36:	f504 5680 	add.w	r6, r4, #4096	; 0x1000
 8001a3a:	7833      	ldrb	r3, [r6, #0]
 8001a3c:	b183      	cbz	r3, 8001a60 <find_volume+0x50>
		stat = disk_status(fs->drv);
 8001a3e:	f241 0301 	movw	r3, #4097	; 0x1001
 8001a42:	5ce0      	ldrb	r0, [r4, r3]
 8001a44:	f7ff fd8e 	bl	8001564 <disk_status>
		if (!(stat & STA_NOINIT)) {		/* and the physical drive is kept initialized */
 8001a48:	07c1      	lsls	r1, r0, #31
 8001a4a:	d409      	bmi.n	8001a60 <find_volume+0x50>
			if (!_FS_READONLY && wmode && (stat & STA_PROTECT))	/* Check write protection if needed */
 8001a4c:	2d00      	cmp	r5, #0
 8001a4e:	f000 8151 	beq.w	8001cf4 <find_volume+0x2e4>
 8001a52:	f010 0004 	ands.w	r0, r0, #4
 8001a56:	d000      	beq.n	8001a5a <find_volume+0x4a>
				return FR_WRITE_PROTECTED;
 8001a58:	200a      	movs	r0, #10
}
 8001a5a:	b004      	add	sp, #16
 8001a5c:	e8bd 87f0 	ldmia.w	sp!, {r4, r5, r6, r7, r8, r9, sl, pc}
	fs->fs_type = 0;					/* Clear the file system object */
 8001a60:	2300      	movs	r3, #0
 8001a62:	7033      	strb	r3, [r6, #0]
	fs->drv = LD2PD(vol);				/* Bind the logical drive and a physical drive */
 8001a64:	f241 0301 	movw	r3, #4097	; 0x1001
 8001a68:	b2f8      	uxtb	r0, r7
 8001a6a:	54e0      	strb	r0, [r4, r3]
	stat = disk_initialize(fs->drv);	/* Initialize the physical drive */
 8001a6c:	f7ff fd84 	bl	8001578 <disk_initialize>
	if (stat & STA_NOINIT)				/* Check if the initialization succeeded */
 8001a70:	07c2      	lsls	r2, r0, #31
 8001a72:	f100 8141 	bmi.w	8001cf8 <find_volume+0x2e8>
	if (!_FS_READONLY && wmode && (stat & STA_PROTECT))	/* Check disk write protection if needed */
 8001a76:	b10d      	cbz	r5, 8001a7c <find_volume+0x6c>
 8001a78:	0743      	lsls	r3, r0, #29
 8001a7a:	d4ed      	bmi.n	8001a58 <find_volume+0x48>
	if (disk_ioctl(fs->drv, GET_SECTOR_SIZE, &SS(fs)) != RES_OK
 8001a7c:	f241 0301 	movw	r3, #4097	; 0x1001
 8001a80:	f241 050a 	movw	r5, #4106	; 0x100a
 8001a84:	2102      	movs	r1, #2
 8001a86:	1962      	adds	r2, r4, r5
 8001a88:	5ce0      	ldrb	r0, [r4, r3]
 8001a8a:	f7ff fda1 	bl	80015d0 <disk_ioctl>
 8001a8e:	4607      	mov	r7, r0
 8001a90:	b108      	cbz	r0, 8001a96 <find_volume+0x86>
		|| SS(fs) < _MIN_SS || SS(fs) > _MAX_SS) return FR_DISK_ERR;
 8001a92:	2001      	movs	r0, #1
 8001a94:	e7e1      	b.n	8001a5a <find_volume+0x4a>
 8001a96:	5b63      	ldrh	r3, [r4, r5]
 8001a98:	f5a3 7300 	sub.w	r3, r3, #512	; 0x200
 8001a9c:	b29b      	uxth	r3, r3
 8001a9e:	f5b3 6f60 	cmp.w	r3, #3584	; 0xe00
 8001aa2:	d8f6      	bhi.n	8001a92 <find_volume+0x82>
	fmt = check_fs(fs, bsect);					/* Load sector 0 and check if it is an FAT boot sector as SFD */
 8001aa4:	4601      	mov	r1, r0
 8001aa6:	4620      	mov	r0, r4
 8001aa8:	f7ff ff84 	bl	80019b4 <check_fs>
	if (fmt == 1 || (!fmt && (LD2PT(vol)))) {	/* Not an FAT boot sector or forced partition number */
 8001aac:	2801      	cmp	r0, #1
 8001aae:	f040 80ff 	bne.w	8001cb0 <find_volume+0x2a0>
 8001ab2:	4638      	mov	r0, r7
 8001ab4:	f504 72e3 	add.w	r2, r4, #454	; 0x1c6
			br[i] = pt[4] ? LD_DWORD(&pt[8]) : 0;
 8001ab8:	f812 3c04 	ldrb.w	r3, [r2, #-4]
 8001abc:	b103      	cbz	r3, 8001ac0 <find_volume+0xb0>
 8001abe:	6813      	ldr	r3, [r2, #0]
 8001ac0:	f84d 3020 	str.w	r3, [sp, r0, lsl #2]
		for (i = 0; i < 4; i++) {			/* Get partition offset */
 8001ac4:	3001      	adds	r0, #1
 8001ac6:	2804      	cmp	r0, #4
 8001ac8:	f102 0210 	add.w	r2, r2, #16
 8001acc:	d1f4      	bne.n	8001ab8 <find_volume+0xa8>
 8001ace:	2700      	movs	r7, #0
			bsect = br[i];
 8001ad0:	f85d 5027 	ldr.w	r5, [sp, r7, lsl #2]
			fmt = bsect ? check_fs(fs, bsect) : 2;	/* Check the partition */
 8001ad4:	2d00      	cmp	r5, #0
 8001ad6:	f000 80e3 	beq.w	8001ca0 <find_volume+0x290>
 8001ada:	4629      	mov	r1, r5
 8001adc:	4620      	mov	r0, r4
 8001ade:	f7ff ff69 	bl	80019b4 <check_fs>
		} while (!LD2PT(vol) && fmt && ++i < 4);
 8001ae2:	2800      	cmp	r0, #0
 8001ae4:	f040 80dd 	bne.w	8001ca2 <find_volume+0x292>
	if (LD_WORD(fs->win.d8 + BPB_BytsPerSec) != SS(fs))	/* (BPB_BytsPerSec must be equal to the physical sector size) */
 8001ae8:	7b23      	ldrb	r3, [r4, #12]
 8001aea:	7ae0      	ldrb	r0, [r4, #11]
 8001aec:	ea40 2003 	orr.w	r0, r0, r3, lsl #8
 8001af0:	f241 030a 	movw	r3, #4106	; 0x100a
 8001af4:	5ae3      	ldrh	r3, [r4, r3]
 8001af6:	4283      	cmp	r3, r0
 8001af8:	f040 80de 	bne.w	8001cb8 <find_volume+0x2a8>
	fasize = LD_WORD(fs->win.d8 + BPB_FATSz16);			/* Number of sectors per FAT */
 8001afc:	7de3      	ldrb	r3, [r4, #23]
 8001afe:	7da1      	ldrb	r1, [r4, #22]
	if (!fasize) fasize = LD_DWORD(fs->win.d8 + BPB_FATSz32);
 8001b00:	ea51 2103 	orrs.w	r1, r1, r3, lsl #8
	fs->fsize = fasize;
 8001b04:	f241 0318 	movw	r3, #4120	; 0x1018
	if (!fasize) fasize = LD_DWORD(fs->win.d8 + BPB_FATSz32);
 8001b08:	bf08      	it	eq
 8001b0a:	6a61      	ldreq	r1, [r4, #36]	; 0x24
	fs->fsize = fasize;
 8001b0c:	50e1      	str	r1, [r4, r3]
	fs->n_fats = fs->win.d8[BPB_NumFATs];					/* Number of FAT copies */
 8001b0e:	f241 0303 	movw	r3, #4099	; 0x1003
 8001b12:	f894 e010 	ldrb.w	lr, [r4, #16]
 8001b16:	f804 e003 	strb.w	lr, [r4, r3]
	if (fs->n_fats != 1 && fs->n_fats != 2)				/* (Must be 1 or 2) */
 8001b1a:	f10e 33ff 	add.w	r3, lr, #4294967295
 8001b1e:	2b01      	cmp	r3, #1
 8001b20:	f200 80ca 	bhi.w	8001cb8 <find_volume+0x2a8>
	fs->csize = fs->win.d8[BPB_SecPerClus];				/* Number of sectors per cluster */
 8001b24:	f241 0302 	movw	r3, #4098	; 0x1002
 8001b28:	7b67      	ldrb	r7, [r4, #13]
 8001b2a:	54e7      	strb	r7, [r4, r3]
	if (!fs->csize || (fs->csize & (fs->csize - 1)))	/* (Must be power of 2) */
 8001b2c:	2f00      	cmp	r7, #0
 8001b2e:	f000 80c3 	beq.w	8001cb8 <find_volume+0x2a8>
 8001b32:	1e7b      	subs	r3, r7, #1
 8001b34:	423b      	tst	r3, r7
 8001b36:	f040 80bf 	bne.w	8001cb8 <find_volume+0x2a8>
	fs->n_rootdir = LD_WORD(fs->win.d8 + BPB_RootEntCnt);	/* Number of root directory entries */
 8001b3a:	7ca3      	ldrb	r3, [r4, #18]
 8001b3c:	f894 8011 	ldrb.w	r8, [r4, #17]
 8001b40:	ea48 2803 	orr.w	r8, r8, r3, lsl #8
 8001b44:	f241 0308 	movw	r3, #4104	; 0x1008
 8001b48:	f824 8003 	strh.w	r8, [r4, r3]
	if (fs->n_rootdir % (SS(fs) / SZ_DIRE))				/* (Must be sector aligned) */
 8001b4c:	0943      	lsrs	r3, r0, #5
 8001b4e:	fbb8 f2f3 	udiv	r2, r8, r3
 8001b52:	fb03 8312 	mls	r3, r3, r2, r8
 8001b56:	b29b      	uxth	r3, r3
 8001b58:	2b00      	cmp	r3, #0
 8001b5a:	f040 80ad 	bne.w	8001cb8 <find_volume+0x2a8>
	tsect = LD_WORD(fs->win.d8 + BPB_TotSec16);			/* Number of sectors on the volume */
 8001b5e:	f894 c014 	ldrb.w	ip, [r4, #20]
 8001b62:	7ce3      	ldrb	r3, [r4, #19]
	nrsv = LD_WORD(fs->win.d8 + BPB_RsvdSecCnt);			/* Number of reserved sectors */
 8001b64:	f894 900f 	ldrb.w	r9, [r4, #15]
	if (!tsect) tsect = LD_DWORD(fs->win.d8 + BPB_TotSec32);
 8001b68:	ea53 230c 	orrs.w	r3, r3, ip, lsl #8
	nrsv = LD_WORD(fs->win.d8 + BPB_RsvdSecCnt);			/* Number of reserved sectors */
 8001b6c:	f894 c00e 	ldrb.w	ip, [r4, #14]
	if (!tsect) tsect = LD_DWORD(fs->win.d8 + BPB_TotSec32);
 8001b70:	bf08      	it	eq
 8001b72:	6a23      	ldreq	r3, [r4, #32]
	if (!nrsv) return FR_NO_FILESYSTEM;					/* (Must not be 0) */
 8001b74:	ea5c 2c09 	orrs.w	ip, ip, r9, lsl #8
 8001b78:	f000 809e 	beq.w	8001cb8 <find_volume+0x2a8>
	fasize *= fs->n_fats;								/* Number of sectors for FAT area */
 8001b7c:	fb01 fe0e 	mul.w	lr, r1, lr
	sysect = nrsv + fasize + fs->n_rootdir / (SS(fs) / SZ_DIRE);	/* RSV + FAT + DIR */
 8001b80:	b292      	uxth	r2, r2
 8001b82:	4462      	add	r2, ip
 8001b84:	4472      	add	r2, lr
	if (tsect < sysect) return FR_NO_FILESYSTEM;		/* (Invalid volume size) */
 8001b86:	4293      	cmp	r3, r2
 8001b88:	f0c0 8096 	bcc.w	8001cb8 <find_volume+0x2a8>
	nclst = (tsect - sysect) / fs->csize;				/* Number of clusters */
 8001b8c:	1a9b      	subs	r3, r3, r2
 8001b8e:	fbb3 f3f7 	udiv	r3, r3, r7
	if (!nclst) return FR_NO_FILESYSTEM;				/* (Invalid volume size) */
 8001b92:	2b00      	cmp	r3, #0
 8001b94:	f000 8090 	beq.w	8001cb8 <find_volume+0x2a8>
	if (nclst >= MIN_FAT16) fmt = FS_FAT16;
 8001b98:	f640 77f5 	movw	r7, #4085	; 0xff5
 8001b9c:	42bb      	cmp	r3, r7
 8001b9e:	f240 808f 	bls.w	8001cc0 <find_volume+0x2b0>
	if (nclst >= MIN_FAT32) fmt = FS_FAT32;
 8001ba2:	f64f 77f5 	movw	r7, #65525	; 0xfff5
 8001ba6:	42bb      	cmp	r3, r7
 8001ba8:	bf94      	ite	ls
 8001baa:	2702      	movls	r7, #2
 8001bac:	2703      	movhi	r7, #3
	fs->n_fatent = nclst + 2;							/* Number of FAT entries */
 8001bae:	f241 0914 	movw	r9, #4116	; 0x1014
 8001bb2:	3302      	adds	r3, #2
 8001bb4:	f844 3009 	str.w	r3, [r4, r9]
	fs->volbase = bsect;								/* Volume start sector */
 8001bb8:	f241 091c 	movw	r9, #4124	; 0x101c
	fs->fatbase = bsect + nrsv; 						/* FAT start sector */
 8001bbc:	44ac      	add	ip, r5
	fs->volbase = bsect;								/* Volume start sector */
 8001bbe:	f844 5009 	str.w	r5, [r4, r9]
	fs->fatbase = bsect + nrsv; 						/* FAT start sector */
 8001bc2:	f504 5981 	add.w	r9, r4, #4128	; 0x1020
 8001bc6:	f8c9 c000 	str.w	ip, [r9]
	fs->database = bsect + sysect;						/* Data start sector */
 8001bca:	f241 0928 	movw	r9, #4136	; 0x1028
 8001bce:	442a      	add	r2, r5
	if (fmt == FS_FAT32) {
 8001bd0:	2f03      	cmp	r7, #3
	fs->database = bsect + sysect;						/* Data start sector */
 8001bd2:	f844 2009 	str.w	r2, [r4, r9]
	if (fmt == FS_FAT32) {
 8001bd6:	d175      	bne.n	8001cc4 <find_volume+0x2b4>
		if (fs->n_rootdir) return FR_NO_FILESYSTEM;		/* (BPB_RootEntCnt must be 0) */
 8001bd8:	f1b8 0f00 	cmp.w	r8, #0
 8001bdc:	d16c      	bne.n	8001cb8 <find_volume+0x2a8>
		fs->dirbase = LD_DWORD(fs->win.d8 + BPB_RootClus);	/* Root directory start cluster */
 8001bde:	f241 0e24 	movw	lr, #4132	; 0x1024
 8001be2:	6ae2      	ldr	r2, [r4, #44]	; 0x2c
		szbfat = fs->n_fatent * 4;						/* (Needed FAT size) */
 8001be4:	009b      	lsls	r3, r3, #2
		fs->dirbase = LD_DWORD(fs->win.d8 + BPB_RootClus);	/* Root directory start cluster */
 8001be6:	f844 200e 	str.w	r2, [r4, lr]
	if (fs->fsize < (szbfat + (SS(fs) - 1)) / SS(fs))	/* (BPB_FATSz must not be less than the size needed) */
 8001bea:	1e42      	subs	r2, r0, #1
 8001bec:	4413      	add	r3, r2
 8001bee:	fbb3 f0f0 	udiv	r0, r3, r0
 8001bf2:	4281      	cmp	r1, r0
 8001bf4:	d360      	bcc.n	8001cb8 <find_volume+0x2a8>
	fs->last_clust = fs->free_clust = 0xFFFFFFFF;
 8001bf6:	f04f 33ff 	mov.w	r3, #4294967295
 8001bfa:	f241 0910 	movw	r9, #4112	; 0x1010
 8001bfe:	f241 080c 	movw	r8, #4108	; 0x100c
 8001c02:	f844 3009 	str.w	r3, [r4, r9]
	fs->fsi_flag = 0x80;
 8001c06:	f241 0a05 	movw	sl, #4101	; 0x1005
	fs->last_clust = fs->free_clust = 0xFFFFFFFF;
 8001c0a:	f844 3008 	str.w	r3, [r4, r8]
	fs->fsi_flag = 0x80;
 8001c0e:	2380      	movs	r3, #128	; 0x80
	if (fmt == FS_FAT32				/* Enable FSINFO only if FAT32 and BPB_FSInfo is 1 */
 8001c10:	2f03      	cmp	r7, #3
	fs->fsi_flag = 0x80;
 8001c12:	f804 300a 	strb.w	r3, [r4, sl]
	if (fmt == FS_FAT32				/* Enable FSINFO only if FAT32 and BPB_FSInfo is 1 */
 8001c16:	d12d      	bne.n	8001c74 <find_volume+0x264>
		&& LD_WORD(fs->win.d8 + BPB_FSInfo) == 1
 8001c18:	f894 2031 	ldrb.w	r2, [r4, #49]	; 0x31
 8001c1c:	f894 3030 	ldrb.w	r3, [r4, #48]	; 0x30
 8001c20:	ea43 2302 	orr.w	r3, r3, r2, lsl #8
 8001c24:	2b01      	cmp	r3, #1
 8001c26:	d125      	bne.n	8001c74 <find_volume+0x264>
		&& move_window(fs, bsect + 1) == FR_OK)
 8001c28:	1c69      	adds	r1, r5, #1
 8001c2a:	4620      	mov	r0, r4
 8001c2c:	f7ff fea3 	bl	8001976 <move_window>
 8001c30:	bb00      	cbnz	r0, 8001c74 <find_volume+0x264>
		fs->fsi_flag = 0;
 8001c32:	f804 000a 	strb.w	r0, [r4, sl]
		if (LD_WORD(fs->win.d8 + BS_55AA) == 0xAA55	/* Load FSINFO data if available */
 8001c36:	f894 21ff 	ldrb.w	r2, [r4, #511]	; 0x1ff
 8001c3a:	f894 31fe 	ldrb.w	r3, [r4, #510]	; 0x1fe
 8001c3e:	ea43 2302 	orr.w	r3, r3, r2, lsl #8
 8001c42:	f64a 2255 	movw	r2, #43605	; 0xaa55
 8001c46:	4293      	cmp	r3, r2
 8001c48:	d114      	bne.n	8001c74 <find_volume+0x264>
			&& LD_DWORD(fs->win.d8 + FSI_LeadSig) == 0x41615252
 8001c4a:	6822      	ldr	r2, [r4, #0]
 8001c4c:	4b2c      	ldr	r3, [pc, #176]	; (8001d00 <find_volume+0x2f0>)
 8001c4e:	429a      	cmp	r2, r3
 8001c50:	d110      	bne.n	8001c74 <find_volume+0x264>
			&& LD_DWORD(fs->win.d8 + FSI_StrucSig) == 0x61417272)
 8001c52:	f103 53ff 	add.w	r3, r3, #534773760	; 0x1fe00000
 8001c56:	f8d4 21e4 	ldr.w	r2, [r4, #484]	; 0x1e4
 8001c5a:	f503 5300 	add.w	r3, r3, #8192	; 0x2000
 8001c5e:	3320      	adds	r3, #32
 8001c60:	429a      	cmp	r2, r3
			fs->free_clust = LD_DWORD(fs->win.d8 + FSI_Free_Count);
 8001c62:	bf01      	itttt	eq
 8001c64:	f8d4 31e8 	ldreq.w	r3, [r4, #488]	; 0x1e8
 8001c68:	f844 3009 	streq.w	r3, [r4, r9]
			fs->last_clust = LD_DWORD(fs->win.d8 + FSI_Nxt_Free);
 8001c6c:	f8d4 31ec 	ldreq.w	r3, [r4, #492]	; 0x1ec
 8001c70:	f844 3008 	streq.w	r3, [r4, r8]
	fs->id = ++Fsid;	/* File system mount ID */
 8001c74:	4a23      	ldr	r2, [pc, #140]	; (8001d04 <find_volume+0x2f4>)
	fs->fs_type = fmt;	/* FAT sub-type */
 8001c76:	7037      	strb	r7, [r6, #0]
	fs->id = ++Fsid;	/* File system mount ID */
 8001c78:	8813      	ldrh	r3, [r2, #0]
 8001c7a:	2000      	movs	r0, #0
 8001c7c:	3301      	adds	r3, #1
 8001c7e:	b29b      	uxth	r3, r3
 8001c80:	8013      	strh	r3, [r2, #0]
 8001c82:	f241 0206 	movw	r2, #4102	; 0x1006
 8001c86:	52a3      	strh	r3, [r4, r2]
		if (Files[i].fs == fs) Files[i].fs = 0;
 8001c88:	4b1f      	ldr	r3, [pc, #124]	; (8001d08 <find_volume+0x2f8>)
 8001c8a:	681a      	ldr	r2, [r3, #0]
 8001c8c:	4294      	cmp	r4, r2
 8001c8e:	bf04      	itt	eq
 8001c90:	2200      	moveq	r2, #0
 8001c92:	601a      	streq	r2, [r3, #0]
 8001c94:	68da      	ldr	r2, [r3, #12]
 8001c96:	4294      	cmp	r4, r2
 8001c98:	f47f aedf 	bne.w	8001a5a <find_volume+0x4a>
 8001c9c:	60d8      	str	r0, [r3, #12]
 8001c9e:	e6dc      	b.n	8001a5a <find_volume+0x4a>
			fmt = bsect ? check_fs(fs, bsect) : 2;	/* Check the partition */
 8001ca0:	2002      	movs	r0, #2
		} while (!LD2PT(vol) && fmt && ++i < 4);
 8001ca2:	3701      	adds	r7, #1
 8001ca4:	2f04      	cmp	r7, #4
 8001ca6:	f47f af13 	bne.w	8001ad0 <find_volume+0xc0>
	if (fmt == 3) return FR_DISK_ERR;		/* An error occured in the disk I/O layer */
 8001caa:	2803      	cmp	r0, #3
 8001cac:	d104      	bne.n	8001cb8 <find_volume+0x2a8>
 8001cae:	e6f0      	b.n	8001a92 <find_volume+0x82>
 8001cb0:	2803      	cmp	r0, #3
 8001cb2:	f43f aeee 	beq.w	8001a92 <find_volume+0x82>
	if (fmt) return FR_NO_FILESYSTEM;		/* No FAT volume is found */
 8001cb6:	b108      	cbz	r0, 8001cbc <find_volume+0x2ac>
 8001cb8:	200d      	movs	r0, #13
 8001cba:	e6ce      	b.n	8001a5a <find_volume+0x4a>
	bsect = 0;
 8001cbc:	4605      	mov	r5, r0
 8001cbe:	e713      	b.n	8001ae8 <find_volume+0xd8>
	fmt = FS_FAT12;
 8001cc0:	2701      	movs	r7, #1
 8001cc2:	e774      	b.n	8001bae <find_volume+0x19e>
		if (!fs->n_rootdir)	return FR_NO_FILESYSTEM;	/* (BPB_RootEntCnt must not be 0) */
 8001cc4:	f1b8 0f00 	cmp.w	r8, #0
 8001cc8:	d0f6      	beq.n	8001cb8 <find_volume+0x2a8>
		fs->dirbase = fs->fatbase + fasize;				/* Root directory start sector */
 8001cca:	eb0e 020c 	add.w	r2, lr, ip
 8001cce:	f241 0e24 	movw	lr, #4132	; 0x1024
			fs->n_fatent * 2 : fs->n_fatent * 3 / 2 + (fs->n_fatent & 1);
 8001cd2:	2f02      	cmp	r7, #2
		fs->dirbase = fs->fatbase + fasize;				/* Root directory start sector */
 8001cd4:	f844 200e 	str.w	r2, [r4, lr]
 8001cd8:	ea4f 0243 	mov.w	r2, r3, lsl #1
			fs->n_fatent * 2 : fs->n_fatent * 3 / 2 + (fs->n_fatent & 1);
 8001cdc:	bf1b      	ittet	ne
 8001cde:	18d2      	addne	r2, r2, r3
 8001ce0:	f003 0301 	andne.w	r3, r3, #1
 8001ce4:	4613      	moveq	r3, r2
 8001ce6:	eb03 0352 	addne.w	r3, r3, r2, lsr #1
 8001cea:	e77e      	b.n	8001bea <find_volume+0x1da>
	if (vol < 0) return FR_INVALID_DRIVE;
 8001cec:	200b      	movs	r0, #11
 8001cee:	e6b4      	b.n	8001a5a <find_volume+0x4a>
	if (!fs) return FR_NOT_ENABLED;		/* Is the file system object available? */
 8001cf0:	200c      	movs	r0, #12
 8001cf2:	e6b2      	b.n	8001a5a <find_volume+0x4a>
			return FR_OK;				/* The file system object is valid */
 8001cf4:	4628      	mov	r0, r5
 8001cf6:	e6b0      	b.n	8001a5a <find_volume+0x4a>
		return FR_NOT_READY;			/* Failed to initialize due to no medium or hard error */
 8001cf8:	2003      	movs	r0, #3
 8001cfa:	e6ae      	b.n	8001a5a <find_volume+0x4a>
 8001cfc:	200000a4 	.word	0x200000a4
 8001d00:	41615252 	.word	0x41615252
 8001d04:	200000c0 	.word	0x200000c0
 8001d08:	200000a8 	.word	0x200000a8

08001d0c <clust2sect>:
	if (clst >= fs->n_fatent - 2) return 0;		/* Invalid cluster# */
 8001d0c:	f241 0314 	movw	r3, #4116	; 0x1014
 8001d10:	58c3      	ldr	r3, [r0, r3]
	clst -= 2;
 8001d12:	3902      	subs	r1, #2
	if (clst >= fs->n_fatent - 2) return 0;		/* Invalid cluster# */
 8001d14:	3b02      	subs	r3, #2
 8001d16:	4299      	cmp	r1, r3
	return clst * fs->csize + fs->database;
 8001d18:	bf3f      	itttt	cc
 8001d1a:	f241 0302 	movwcc	r3, #4098	; 0x1002
 8001d1e:	f241 0228 	movwcc	r2, #4136	; 0x1028
 8001d22:	5cc3      	ldrbcc	r3, [r0, r3]
 8001d24:	5880      	ldrcc	r0, [r0, r2]
 8001d26:	bf34      	ite	cc
 8001d28:	fb01 0003 	mlacc	r0, r1, r3, r0
	if (clst >= fs->n_fatent - 2) return 0;		/* Invalid cluster# */
 8001d2c:	2000      	movcs	r0, #0
}
 8001d2e:	4770      	bx	lr

08001d30 <get_fat>:
	if (clst < 2 || clst >= fs->n_fatent) {	/* Check range */
 8001d30:	2901      	cmp	r1, #1
{
 8001d32:	e92d 43f8 	stmdb	sp!, {r3, r4, r5, r6, r7, r8, r9, lr}
 8001d36:	4605      	mov	r5, r0
 8001d38:	460e      	mov	r6, r1
	if (clst < 2 || clst >= fs->n_fatent) {	/* Check range */
 8001d3a:	f240 8082 	bls.w	8001e42 <get_fat+0x112>
 8001d3e:	f241 0314 	movw	r3, #4116	; 0x1014
 8001d42:	58c3      	ldr	r3, [r0, r3]
 8001d44:	4299      	cmp	r1, r3
 8001d46:	d27c      	bcs.n	8001e42 <get_fat+0x112>
		switch (fs->fs_type) {
 8001d48:	f500 5380 	add.w	r3, r0, #4096	; 0x1000
 8001d4c:	781b      	ldrb	r3, [r3, #0]
 8001d4e:	2b02      	cmp	r3, #2
 8001d50:	d039      	beq.n	8001dc6 <get_fat+0x96>
 8001d52:	2b03      	cmp	r3, #3
 8001d54:	d052      	beq.n	8001dfc <get_fat+0xcc>
 8001d56:	2b01      	cmp	r3, #1
 8001d58:	d173      	bne.n	8001e42 <get_fat+0x112>
			if (move_window(fs, fs->fatbase + (bc / SS(fs))) != FR_OK) break;
 8001d5a:	f241 080a 	movw	r8, #4106	; 0x100a
 8001d5e:	f830 3008 	ldrh.w	r3, [r0, r8]
			bc = (UINT)clst; bc += bc / 2;
 8001d62:	eb01 0451 	add.w	r4, r1, r1, lsr #1
			if (move_window(fs, fs->fatbase + (bc / SS(fs))) != FR_OK) break;
 8001d66:	fbb4 f3f3 	udiv	r3, r4, r3
 8001d6a:	f500 5981 	add.w	r9, r0, #4128	; 0x1020
 8001d6e:	f8d9 1000 	ldr.w	r1, [r9]
 8001d72:	4419      	add	r1, r3
 8001d74:	f7ff fdff 	bl	8001976 <move_window>
 8001d78:	b118      	cbz	r0, 8001d82 <get_fat+0x52>
		val = 0xFFFFFFFF;	/* Default value falls on disk error */
 8001d7a:	f04f 30ff 	mov.w	r0, #4294967295
 8001d7e:	e8bd 83f8 	ldmia.w	sp!, {r3, r4, r5, r6, r7, r8, r9, pc}
			wc = fs->win.d8[bc++ % SS(fs)];
 8001d82:	f835 1008 	ldrh.w	r1, [r5, r8]
 8001d86:	1c67      	adds	r7, r4, #1
 8001d88:	fbb4 f3f1 	udiv	r3, r4, r1
 8001d8c:	fb01 4413 	mls	r4, r1, r3, r4
			if (move_window(fs, fs->fatbase + (bc / SS(fs))) != FR_OK) break;
 8001d90:	fbb7 f1f1 	udiv	r1, r7, r1
 8001d94:	f8d9 3000 	ldr.w	r3, [r9]
 8001d98:	4628      	mov	r0, r5
 8001d9a:	4419      	add	r1, r3
			wc = fs->win.d8[bc++ % SS(fs)];
 8001d9c:	5d2c      	ldrb	r4, [r5, r4]
			if (move_window(fs, fs->fatbase + (bc / SS(fs))) != FR_OK) break;
 8001d9e:	f7ff fdea 	bl	8001976 <move_window>
 8001da2:	2800      	cmp	r0, #0
 8001da4:	d1e9      	bne.n	8001d7a <get_fat+0x4a>
			wc |= fs->win.d8[bc % SS(fs)] << 8;
 8001da6:	f835 2008 	ldrh.w	r2, [r5, r8]
 8001daa:	fbb7 f3f2 	udiv	r3, r7, r2
 8001dae:	fb02 7313 	mls	r3, r2, r3, r7
 8001db2:	5ce8      	ldrb	r0, [r5, r3]
			val = clst & 1 ? wc >> 4 : (wc & 0xFFF);
 8001db4:	07f3      	lsls	r3, r6, #31
			wc |= fs->win.d8[bc % SS(fs)] << 8;
 8001db6:	ea44 2000 	orr.w	r0, r4, r0, lsl #8
			val = clst & 1 ? wc >> 4 : (wc & 0xFFF);
 8001dba:	bf4c      	ite	mi
 8001dbc:	0900      	lsrmi	r0, r0, #4
 8001dbe:	f3c0 000b 	ubfxpl	r0, r0, #0, #12
 8001dc2:	e8bd 83f8 	ldmia.w	sp!, {r3, r4, r5, r6, r7, r8, r9, pc}
			if (move_window(fs, fs->fatbase + (clst / (SS(fs) / 2))) != FR_OK) break;
 8001dc6:	f241 040a 	movw	r4, #4106	; 0x100a
 8001dca:	5b03      	ldrh	r3, [r0, r4]
 8001dcc:	f500 5281 	add.w	r2, r0, #4128	; 0x1020
 8001dd0:	085b      	lsrs	r3, r3, #1
 8001dd2:	fbb1 f3f3 	udiv	r3, r1, r3
 8001dd6:	6811      	ldr	r1, [r2, #0]
 8001dd8:	4419      	add	r1, r3
 8001dda:	f7ff fdcc 	bl	8001976 <move_window>
 8001dde:	2800      	cmp	r0, #0
 8001de0:	d1cb      	bne.n	8001d7a <get_fat+0x4a>
			p = &fs->win.d8[clst * 2 % SS(fs)];
 8001de2:	5b2a      	ldrh	r2, [r5, r4]
 8001de4:	0076      	lsls	r6, r6, #1
 8001de6:	fbb6 f3f2 	udiv	r3, r6, r2
 8001dea:	fb02 6613 	mls	r6, r2, r3, r6
			val = LD_WORD(p);
 8001dee:	19ab      	adds	r3, r5, r6
 8001df0:	785b      	ldrb	r3, [r3, #1]
 8001df2:	5da8      	ldrb	r0, [r5, r6]
 8001df4:	ea40 2003 	orr.w	r0, r0, r3, lsl #8
 8001df8:	e8bd 83f8 	ldmia.w	sp!, {r3, r4, r5, r6, r7, r8, r9, pc}
			if (move_window(fs, fs->fatbase + (clst / (SS(fs) / 4))) != FR_OK) break;
 8001dfc:	f241 040a 	movw	r4, #4106	; 0x100a
 8001e00:	5b03      	ldrh	r3, [r0, r4]
 8001e02:	f500 5281 	add.w	r2, r0, #4128	; 0x1020
 8001e06:	089b      	lsrs	r3, r3, #2
 8001e08:	fbb1 f3f3 	udiv	r3, r1, r3
 8001e0c:	6811      	ldr	r1, [r2, #0]
 8001e0e:	4419      	add	r1, r3
 8001e10:	f7ff fdb1 	bl	8001976 <move_window>
 8001e14:	2800      	cmp	r0, #0
 8001e16:	d1b0      	bne.n	8001d7a <get_fat+0x4a>
			p = &fs->win.d8[clst * 4 % SS(fs)];
 8001e18:	5b2a      	ldrh	r2, [r5, r4]
 8001e1a:	00b6      	lsls	r6, r6, #2
 8001e1c:	fbb6 f3f2 	udiv	r3, r6, r2
 8001e20:	fb02 6613 	mls	r6, r2, r3, r6
 8001e24:	19ab      	adds	r3, r5, r6
			val = LD_DWORD(p) & 0x0FFFFFFF;
 8001e26:	7898      	ldrb	r0, [r3, #2]
 8001e28:	78da      	ldrb	r2, [r3, #3]
 8001e2a:	0400      	lsls	r0, r0, #16
 8001e2c:	ea40 6002 	orr.w	r0, r0, r2, lsl #24
 8001e30:	5daa      	ldrb	r2, [r5, r6]
 8001e32:	785b      	ldrb	r3, [r3, #1]
 8001e34:	4310      	orrs	r0, r2
 8001e36:	ea40 2003 	orr.w	r0, r0, r3, lsl #8
 8001e3a:	f020 4070 	bic.w	r0, r0, #4026531840	; 0xf0000000
 8001e3e:	e8bd 83f8 	ldmia.w	sp!, {r3, r4, r5, r6, r7, r8, r9, pc}
			val = 1;	/* Internal error */
 8001e42:	2001      	movs	r0, #1
}
 8001e44:	e8bd 83f8 	ldmia.w	sp!, {r3, r4, r5, r6, r7, r8, r9, pc}

08001e48 <dir_sdi>:
{
 8001e48:	e92d 43f8 	stmdb	sp!, {r3, r4, r5, r6, r7, r8, r9, lr}
	dp->index = (WORD)idx;	/* Current index */
 8001e4c:	f241 0306 	movw	r3, #4102	; 0x1006
{
 8001e50:	4606      	mov	r6, r0
	dp->index = (WORD)idx;	/* Current index */
 8001e52:	52f1      	strh	r1, [r6, r3]
	clst = dp->sclust;		/* Table start cluster (0:root) */
 8001e54:	f241 0308 	movw	r3, #4104	; 0x1008
 8001e58:	58c4      	ldr	r4, [r0, r3]
{
 8001e5a:	460d      	mov	r5, r1
	if (clst == 1 || clst >= dp->fs->n_fatent)	/* Check start cluster range */
 8001e5c:	2c01      	cmp	r4, #1
 8001e5e:	d102      	bne.n	8001e66 <dir_sdi+0x1e>
		return FR_INT_ERR;
 8001e60:	2002      	movs	r0, #2
 8001e62:	e8bd 83f8 	ldmia.w	sp!, {r3, r4, r5, r6, r7, r8, r9, pc}
	if (clst == 1 || clst >= dp->fs->n_fatent)	/* Check start cluster range */
 8001e66:	f241 0214 	movw	r2, #4116	; 0x1014
 8001e6a:	f500 5780 	add.w	r7, r0, #4096	; 0x1000
 8001e6e:	683b      	ldr	r3, [r7, #0]
 8001e70:	589a      	ldr	r2, [r3, r2]
 8001e72:	4294      	cmp	r4, r2
 8001e74:	d2f4      	bcs.n	8001e60 <dir_sdi+0x18>
	if (!clst && dp->fs->fs_type == FS_FAT32)	/* Replace cluster# 0 with root cluster# if in FAT32 */
 8001e76:	bb54      	cbnz	r4, 8001ece <dir_sdi+0x86>
 8001e78:	f503 5280 	add.w	r2, r3, #4096	; 0x1000
 8001e7c:	7812      	ldrb	r2, [r2, #0]
 8001e7e:	2a03      	cmp	r2, #3
 8001e80:	d103      	bne.n	8001e8a <dir_sdi+0x42>
		clst = dp->fs->dirbase;
 8001e82:	f241 0224 	movw	r2, #4132	; 0x1024
 8001e86:	589a      	ldr	r2, [r3, r2]
	if (clst == 0) {	/* Static table (root-directory in FAT12/16) */
 8001e88:	bb12      	cbnz	r2, 8001ed0 <dir_sdi+0x88>
		if (idx >= dp->fs->n_rootdir)	/* Is index out of range? */
 8001e8a:	f241 0208 	movw	r2, #4104	; 0x1008
 8001e8e:	5a9a      	ldrh	r2, [r3, r2]
 8001e90:	4295      	cmp	r5, r2
 8001e92:	d2e5      	bcs.n	8001e60 <dir_sdi+0x18>
		sect = dp->fs->dirbase;
 8001e94:	f241 0224 	movw	r2, #4132	; 0x1024
 8001e98:	5898      	ldr	r0, [r3, r2]
	dp->clust = clst;	/* Current cluster# */
 8001e9a:	f241 030c 	movw	r3, #4108	; 0x100c
 8001e9e:	50f4      	str	r4, [r6, r3]
	if (!sect) return FR_INT_ERR;
 8001ea0:	2800      	cmp	r0, #0
 8001ea2:	d0dd      	beq.n	8001e60 <dir_sdi+0x18>
	dp->sect = sect + idx / (SS(dp->fs) / SZ_DIRE);					/* Sector# of the directory entry */
 8001ea4:	f241 020a 	movw	r2, #4106	; 0x100a
 8001ea8:	683b      	ldr	r3, [r7, #0]
 8001eaa:	f241 0410 	movw	r4, #4112	; 0x1010
 8001eae:	5a99      	ldrh	r1, [r3, r2]
 8001eb0:	0949      	lsrs	r1, r1, #5
 8001eb2:	fbb5 f2f1 	udiv	r2, r5, r1
 8001eb6:	4410      	add	r0, r2
	dp->dir = dp->fs->win.d8 + (idx % (SS(dp->fs) / SZ_DIRE)) * SZ_DIRE;	/* Ptr to the entry in the sector */
 8001eb8:	fb01 5512 	mls	r5, r1, r2, r5
 8001ebc:	f241 0214 	movw	r2, #4116	; 0x1014
 8001ec0:	eb03 1345 	add.w	r3, r3, r5, lsl #5
	dp->sect = sect + idx / (SS(dp->fs) / SZ_DIRE);					/* Sector# of the directory entry */
 8001ec4:	5130      	str	r0, [r6, r4]
	dp->dir = dp->fs->win.d8 + (idx % (SS(dp->fs) / SZ_DIRE)) * SZ_DIRE;	/* Ptr to the entry in the sector */
 8001ec6:	50b3      	str	r3, [r6, r2]
	return FR_OK;
 8001ec8:	2000      	movs	r0, #0
 8001eca:	e8bd 83f8 	ldmia.w	sp!, {r3, r4, r5, r6, r7, r8, r9, pc}
 8001ece:	4622      	mov	r2, r4
		ic = SS(dp->fs) / SZ_DIRE * dp->fs->csize;	/* Entries per cluster */
 8001ed0:	f241 010a 	movw	r1, #4106	; 0x100a
 8001ed4:	f241 0002 	movw	r0, #4098	; 0x1002
		while (idx >= ic) {	/* Follow cluster chain */
 8001ed8:	4614      	mov	r4, r2
			if (clst < 2 || clst >= dp->fs->n_fatent)	/* Reached to end of table or internal error */
 8001eda:	f241 0914 	movw	r9, #4116	; 0x1014
		ic = SS(dp->fs) / SZ_DIRE * dp->fs->csize;	/* Entries per cluster */
 8001ede:	f833 8001 	ldrh.w	r8, [r3, r1]
 8001ee2:	ea4f 1158 	mov.w	r1, r8, lsr #5
 8001ee6:	f813 8000 	ldrb.w	r8, [r3, r0]
 8001eea:	fb08 f801 	mul.w	r8, r8, r1
		while (idx >= ic) {	/* Follow cluster chain */
 8001eee:	4545      	cmp	r5, r8
			clst = get_fat(dp->fs, clst);				/* Get next cluster */
 8001ef0:	4621      	mov	r1, r4
 8001ef2:	6838      	ldr	r0, [r7, #0]
		while (idx >= ic) {	/* Follow cluster chain */
 8001ef4:	d202      	bcs.n	8001efc <dir_sdi+0xb4>
		sect = clust2sect(dp->fs, clst);
 8001ef6:	f7ff ff09 	bl	8001d0c <clust2sect>
 8001efa:	e7ce      	b.n	8001e9a <dir_sdi+0x52>
			clst = get_fat(dp->fs, clst);				/* Get next cluster */
 8001efc:	f7ff ff18 	bl	8001d30 <get_fat>
			if (clst == 0xFFFFFFFF) return FR_DISK_ERR;	/* Disk error */
 8001f00:	1c43      	adds	r3, r0, #1
			clst = get_fat(dp->fs, clst);				/* Get next cluster */
 8001f02:	4604      	mov	r4, r0
			if (clst == 0xFFFFFFFF) return FR_DISK_ERR;	/* Disk error */
 8001f04:	d009      	beq.n	8001f1a <dir_sdi+0xd2>
			if (clst < 2 || clst >= dp->fs->n_fatent)	/* Reached to end of table or internal error */
 8001f06:	2801      	cmp	r0, #1
 8001f08:	d9aa      	bls.n	8001e60 <dir_sdi+0x18>
 8001f0a:	683b      	ldr	r3, [r7, #0]
 8001f0c:	f853 3009 	ldr.w	r3, [r3, r9]
 8001f10:	4298      	cmp	r0, r3
 8001f12:	d2a5      	bcs.n	8001e60 <dir_sdi+0x18>
			idx -= ic;
 8001f14:	eba5 0508 	sub.w	r5, r5, r8
 8001f18:	e7e9      	b.n	8001eee <dir_sdi+0xa6>
			if (clst == 0xFFFFFFFF) return FR_DISK_ERR;	/* Disk error */
 8001f1a:	2001      	movs	r0, #1
}
 8001f1c:	e8bd 83f8 	ldmia.w	sp!, {r3, r4, r5, r6, r7, r8, r9, pc}

08001f20 <put_fat>:
	if (clst < 2 || clst >= fs->n_fatent) {	/* Check range */
 8001f20:	2901      	cmp	r1, #1
{
 8001f22:	e92d 47f0 	stmdb	sp!, {r4, r5, r6, r7, r8, r9, sl, lr}
 8001f26:	4604      	mov	r4, r0
 8001f28:	460d      	mov	r5, r1
 8001f2a:	4616      	mov	r6, r2
	if (clst < 2 || clst >= fs->n_fatent) {	/* Check range */
 8001f2c:	f240 8098 	bls.w	8002060 <put_fat+0x140>
 8001f30:	f241 0314 	movw	r3, #4116	; 0x1014
 8001f34:	58c3      	ldr	r3, [r0, r3]
 8001f36:	4299      	cmp	r1, r3
 8001f38:	f080 8092 	bcs.w	8002060 <put_fat+0x140>
		switch (fs->fs_type) {
 8001f3c:	f500 5380 	add.w	r3, r0, #4096	; 0x1000
 8001f40:	781b      	ldrb	r3, [r3, #0]
 8001f42:	2b02      	cmp	r3, #2
 8001f44:	d050      	beq.n	8001fe8 <put_fat+0xc8>
 8001f46:	2b03      	cmp	r3, #3
 8001f48:	d067      	beq.n	800201a <put_fat+0xfa>
 8001f4a:	2b01      	cmp	r3, #1
 8001f4c:	f040 8088 	bne.w	8002060 <put_fat+0x140>
			res = move_window(fs, fs->fatbase + (bc / SS(fs)));
 8001f50:	f241 0a0a 	movw	sl, #4106	; 0x100a
 8001f54:	f830 300a 	ldrh.w	r3, [r0, sl]
			bc = (UINT)clst; bc += bc / 2;
 8001f58:	eb01 0951 	add.w	r9, r1, r1, lsr #1
			res = move_window(fs, fs->fatbase + (bc / SS(fs)));
 8001f5c:	fbb9 f3f3 	udiv	r3, r9, r3
 8001f60:	f500 5881 	add.w	r8, r0, #4128	; 0x1020
 8001f64:	f8d8 1000 	ldr.w	r1, [r8]
 8001f68:	4419      	add	r1, r3
 8001f6a:	f7ff fd04 	bl	8001976 <move_window>
			if (res != FR_OK) break;
 8001f6e:	2800      	cmp	r0, #0
 8001f70:	d177      	bne.n	8002062 <put_fat+0x142>
			p = &fs->win.d8[bc++ % SS(fs)];
 8001f72:	f834 100a 	ldrh.w	r1, [r4, sl]
			*p = (clst & 1) ? ((*p & 0x0F) | ((BYTE)val << 4)) : (BYTE)val;
 8001f76:	f015 0501 	ands.w	r5, r5, #1
			p = &fs->win.d8[bc++ % SS(fs)];
 8001f7a:	fbb9 f2f1 	udiv	r2, r9, r1
 8001f7e:	fb01 9212 	mls	r2, r1, r2, r9
			*p = (clst & 1) ? ((*p & 0x0F) | ((BYTE)val << 4)) : (BYTE)val;
 8001f82:	bf17      	itett	ne
 8001f84:	5ca3      	ldrbne	r3, [r4, r2]
 8001f86:	b2f3      	uxtbeq	r3, r6
 8001f88:	f003 000f 	andne.w	r0, r3, #15
 8001f8c:	0133      	lslne	r3, r6, #4
 8001f8e:	bf1c      	itt	ne
 8001f90:	f003 03f0 	andne.w	r3, r3, #240	; 0xf0
 8001f94:	4303      	orrne	r3, r0
 8001f96:	54a3      	strb	r3, [r4, r2]
			fs->wflag = 1;
 8001f98:	f241 0304 	movw	r3, #4100	; 0x1004
 8001f9c:	2201      	movs	r2, #1
			p = &fs->win.d8[bc++ % SS(fs)];
 8001f9e:	f109 0701 	add.w	r7, r9, #1
			res = move_window(fs, fs->fatbase + (bc / SS(fs)));
 8001fa2:	fbb7 f1f1 	udiv	r1, r7, r1
			fs->wflag = 1;
 8001fa6:	54e2      	strb	r2, [r4, r3]
			res = move_window(fs, fs->fatbase + (bc / SS(fs)));
 8001fa8:	f8d8 3000 	ldr.w	r3, [r8]
 8001fac:	4620      	mov	r0, r4
 8001fae:	4419      	add	r1, r3
 8001fb0:	f7ff fce1 	bl	8001976 <move_window>
			if (res != FR_OK) break;
 8001fb4:	2800      	cmp	r0, #0
 8001fb6:	d154      	bne.n	8002062 <put_fat+0x142>
			p = &fs->win.d8[bc % SS(fs)];
 8001fb8:	f241 030a 	movw	r3, #4106	; 0x100a
 8001fbc:	5ae2      	ldrh	r2, [r4, r3]
 8001fbe:	fbb7 f3f2 	udiv	r3, r7, r2
 8001fc2:	fb02 7713 	mls	r7, r2, r3, r7
			*p = (clst & 1) ? (BYTE)(val >> 4) : ((*p & 0xF0) | ((BYTE)(val >> 8) & 0x0F));
 8001fc6:	b145      	cbz	r5, 8001fda <put_fat+0xba>
 8001fc8:	f3c6 1207 	ubfx	r2, r6, #4, #8
 8001fcc:	55e2      	strb	r2, [r4, r7]
			fs->wflag = 1;
 8001fce:	2201      	movs	r2, #1
 8001fd0:	f241 0304 	movw	r3, #4100	; 0x1004
 8001fd4:	54e2      	strb	r2, [r4, r3]
 8001fd6:	e8bd 87f0 	ldmia.w	sp!, {r4, r5, r6, r7, r8, r9, sl, pc}
			*p = (clst & 1) ? (BYTE)(val >> 4) : ((*p & 0xF0) | ((BYTE)(val >> 8) & 0x0F));
 8001fda:	5de2      	ldrb	r2, [r4, r7]
 8001fdc:	f3c6 2603 	ubfx	r6, r6, #8, #4
 8001fe0:	f022 020f 	bic.w	r2, r2, #15
 8001fe4:	4332      	orrs	r2, r6
 8001fe6:	e7f1      	b.n	8001fcc <put_fat+0xac>
			res = move_window(fs, fs->fatbase + (clst / (SS(fs) / 2)));
 8001fe8:	f241 070a 	movw	r7, #4106	; 0x100a
 8001fec:	5bc3      	ldrh	r3, [r0, r7]
 8001fee:	f500 5281 	add.w	r2, r0, #4128	; 0x1020
 8001ff2:	085b      	lsrs	r3, r3, #1
 8001ff4:	fbb1 f3f3 	udiv	r3, r1, r3
 8001ff8:	6811      	ldr	r1, [r2, #0]
 8001ffa:	4419      	add	r1, r3
 8001ffc:	f7ff fcbb 	bl	8001976 <move_window>
			if (res != FR_OK) break;
 8002000:	bb78      	cbnz	r0, 8002062 <put_fat+0x142>
			p = &fs->win.d8[clst * 2 % SS(fs)];
 8002002:	5be2      	ldrh	r2, [r4, r7]
 8002004:	006d      	lsls	r5, r5, #1
 8002006:	fbb5 f3f2 	udiv	r3, r5, r2
 800200a:	fb02 5513 	mls	r5, r2, r3, r5
			ST_WORD(p, (WORD)val);
 800200e:	f3c6 2207 	ubfx	r2, r6, #8, #8
 8002012:	5566      	strb	r6, [r4, r5]
 8002014:	4425      	add	r5, r4
 8002016:	706a      	strb	r2, [r5, #1]
 8002018:	e7d9      	b.n	8001fce <put_fat+0xae>
			res = move_window(fs, fs->fatbase + (clst / (SS(fs) / 4)));
 800201a:	f241 070a 	movw	r7, #4106	; 0x100a
 800201e:	5bc3      	ldrh	r3, [r0, r7]
 8002020:	f500 5281 	add.w	r2, r0, #4128	; 0x1020
 8002024:	089b      	lsrs	r3, r3, #2
 8002026:	fbb1 f3f3 	udiv	r3, r1, r3
 800202a:	6811      	ldr	r1, [r2, #0]
 800202c:	4419      	add	r1, r3
 800202e:	f7ff fca2 	bl	8001976 <move_window>
			if (res != FR_OK) break;
 8002032:	b9b0      	cbnz	r0, 8002062 <put_fat+0x142>
			p = &fs->win.d8[clst * 4 % SS(fs)];
 8002034:	5be2      	ldrh	r2, [r4, r7]
 8002036:	00ad      	lsls	r5, r5, #2
 8002038:	fbb5 f3f2 	udiv	r3, r5, r2
 800203c:	fb02 5513 	mls	r5, r2, r3, r5
 8002040:	1961      	adds	r1, r4, r5
			val |= LD_DWORD(p) & 0xF0000000;
 8002042:	78cb      	ldrb	r3, [r1, #3]
 8002044:	061b      	lsls	r3, r3, #24
 8002046:	f003 4370 	and.w	r3, r3, #4026531840	; 0xf0000000
 800204a:	ea43 0206 	orr.w	r2, r3, r6
			ST_DWORD(p, val);
 800204e:	f3c2 2307 	ubfx	r3, r2, #8, #8
 8002052:	5562      	strb	r2, [r4, r5]
 8002054:	704b      	strb	r3, [r1, #1]
 8002056:	0c13      	lsrs	r3, r2, #16
 8002058:	0e12      	lsrs	r2, r2, #24
 800205a:	708b      	strb	r3, [r1, #2]
 800205c:	70ca      	strb	r2, [r1, #3]
 800205e:	e7b6      	b.n	8001fce <put_fat+0xae>
			res = FR_INT_ERR;
 8002060:	2002      	movs	r0, #2
}
 8002062:	e8bd 87f0 	ldmia.w	sp!, {r4, r5, r6, r7, r8, r9, sl, pc}

08002066 <create_chain>:
{
 8002066:	e92d 41f0 	stmdb	sp!, {r4, r5, r6, r7, r8, lr}
 800206a:	4605      	mov	r5, r0
	if (clst == 0) {		/* Create a new chain */
 800206c:	460f      	mov	r7, r1
 800206e:	b9b9      	cbnz	r1, 80020a0 <create_chain+0x3a>
		scl = fs->last_clust;			/* Get suggested start point */
 8002070:	f241 030c 	movw	r3, #4108	; 0x100c
 8002074:	58c6      	ldr	r6, [r0, r3]
		if (!scl || scl >= fs->n_fatent) scl = 1;
 8002076:	b336      	cbz	r6, 80020c6 <create_chain+0x60>
 8002078:	f241 0314 	movw	r3, #4116	; 0x1014
 800207c:	58c3      	ldr	r3, [r0, r3]
 800207e:	429e      	cmp	r6, r3
 8002080:	bf28      	it	cs
 8002082:	2601      	movcs	r6, #1
 8002084:	4634      	mov	r4, r6
		if (ncl >= fs->n_fatent) {		/* Check wrap around */
 8002086:	f505 5880 	add.w	r8, r5, #4096	; 0x1000
 800208a:	f108 0814 	add.w	r8, r8, #20
 800208e:	f8d8 3000 	ldr.w	r3, [r8]
		ncl++;							/* Next cluster */
 8002092:	3401      	adds	r4, #1
		if (ncl >= fs->n_fatent) {		/* Check wrap around */
 8002094:	429c      	cmp	r4, r3
 8002096:	d319      	bcc.n	80020cc <create_chain+0x66>
			if (ncl > scl) return 0;	/* No free cluster */
 8002098:	2e01      	cmp	r6, #1
 800209a:	d816      	bhi.n	80020ca <create_chain+0x64>
 800209c:	2400      	movs	r4, #0
 800209e:	e008      	b.n	80020b2 <create_chain+0x4c>
		cs = get_fat(fs, clst);			/* Check the cluster status */
 80020a0:	f7ff fe46 	bl	8001d30 <get_fat>
		if (cs < 2) return 1;			/* Invalid value */
 80020a4:	2801      	cmp	r0, #1
		cs = get_fat(fs, clst);			/* Check the cluster status */
 80020a6:	4604      	mov	r4, r0
		if (cs < 2) return 1;			/* Invalid value */
 80020a8:	d93e      	bls.n	8002128 <create_chain+0xc2>
		if (cs == 0xFFFFFFFF) return cs;	/* A disk error occurred */
 80020aa:	1c42      	adds	r2, r0, #1
 80020ac:	d104      	bne.n	80020b8 <create_chain+0x52>
			ncl = 2;
 80020ae:	f04f 34ff 	mov.w	r4, #4294967295
}
 80020b2:	4620      	mov	r0, r4
 80020b4:	e8bd 81f0 	ldmia.w	sp!, {r4, r5, r6, r7, r8, pc}
		if (cs < fs->n_fatent) return cs;	/* It is already followed by next cluster */
 80020b8:	f241 0314 	movw	r3, #4116	; 0x1014
 80020bc:	58eb      	ldr	r3, [r5, r3]
 80020be:	4298      	cmp	r0, r3
 80020c0:	d3f7      	bcc.n	80020b2 <create_chain+0x4c>
 80020c2:	463e      	mov	r6, r7
 80020c4:	e7de      	b.n	8002084 <create_chain+0x1e>
		if (!scl || scl >= fs->n_fatent) scl = 1;
 80020c6:	2601      	movs	r6, #1
 80020c8:	e7dc      	b.n	8002084 <create_chain+0x1e>
			ncl = 2;
 80020ca:	2402      	movs	r4, #2
		cs = get_fat(fs, ncl);			/* Get the cluster status */
 80020cc:	4621      	mov	r1, r4
 80020ce:	4628      	mov	r0, r5
 80020d0:	f7ff fe2e 	bl	8001d30 <get_fat>
		if (cs == 0) break;				/* Found a free cluster */
 80020d4:	b130      	cbz	r0, 80020e4 <create_chain+0x7e>
		if (cs == 0xFFFFFFFF || cs == 1)/* An error occurred */
 80020d6:	1c43      	adds	r3, r0, #1
 80020d8:	d0e9      	beq.n	80020ae <create_chain+0x48>
 80020da:	2801      	cmp	r0, #1
 80020dc:	d024      	beq.n	8002128 <create_chain+0xc2>
		if (ncl == scl) return 0;		/* No free cluster */
 80020de:	42b4      	cmp	r4, r6
 80020e0:	d1d5      	bne.n	800208e <create_chain+0x28>
 80020e2:	e7db      	b.n	800209c <create_chain+0x36>
	res = put_fat(fs, ncl, 0x0FFFFFFF);	/* Mark the new cluster "last link" */
 80020e4:	f06f 4270 	mvn.w	r2, #4026531840	; 0xf0000000
 80020e8:	4621      	mov	r1, r4
 80020ea:	4628      	mov	r0, r5
 80020ec:	f7ff ff18 	bl	8001f20 <put_fat>
	if (res == FR_OK && clst != 0) {
 80020f0:	b9c0      	cbnz	r0, 8002124 <create_chain+0xbe>
 80020f2:	b987      	cbnz	r7, 8002116 <create_chain+0xb0>
		fs->last_clust = ncl;			/* Update FSINFO */
 80020f4:	f241 030c 	movw	r3, #4108	; 0x100c
		if (fs->free_clust != 0xFFFFFFFF) {
 80020f8:	f241 0210 	movw	r2, #4112	; 0x1010
		fs->last_clust = ncl;			/* Update FSINFO */
 80020fc:	50ec      	str	r4, [r5, r3]
		if (fs->free_clust != 0xFFFFFFFF) {
 80020fe:	58ab      	ldr	r3, [r5, r2]
 8002100:	1c59      	adds	r1, r3, #1
 8002102:	d0d6      	beq.n	80020b2 <create_chain+0x4c>
			fs->free_clust--;
 8002104:	3b01      	subs	r3, #1
 8002106:	50ab      	str	r3, [r5, r2]
			fs->fsi_flag |= 1;
 8002108:	f241 0205 	movw	r2, #4101	; 0x1005
 800210c:	5cab      	ldrb	r3, [r5, r2]
 800210e:	f043 0301 	orr.w	r3, r3, #1
 8002112:	54ab      	strb	r3, [r5, r2]
 8002114:	e7cd      	b.n	80020b2 <create_chain+0x4c>
		res = put_fat(fs, clst, ncl);	/* Link it to the previous one if needed */
 8002116:	4622      	mov	r2, r4
 8002118:	4639      	mov	r1, r7
 800211a:	4628      	mov	r0, r5
 800211c:	f7ff ff00 	bl	8001f20 <put_fat>
	if (res == FR_OK) {
 8002120:	2800      	cmp	r0, #0
 8002122:	d0e7      	beq.n	80020f4 <create_chain+0x8e>
		ncl = (res == FR_DISK_ERR) ? 0xFFFFFFFF : 1;
 8002124:	2801      	cmp	r0, #1
 8002126:	d0c2      	beq.n	80020ae <create_chain+0x48>
 8002128:	2401      	movs	r4, #1
 800212a:	e7c2      	b.n	80020b2 <create_chain+0x4c>

0800212c <dir_next>:
{
 800212c:	e92d 4ff8 	stmdb	sp!, {r3, r4, r5, r6, r7, r8, r9, sl, fp, lr}
	i = dp->index + 1;
 8002130:	f241 0306 	movw	r3, #4102	; 0x1006
 8002134:	5ac6      	ldrh	r6, [r0, r3]
{
 8002136:	4604      	mov	r4, r0
	i = dp->index + 1;
 8002138:	3601      	adds	r6, #1
	if (!(i & 0xFFFF) || !dp->sect)	/* Report EOT when index has reached 65535 */
 800213a:	b2b3      	uxth	r3, r6
{
 800213c:	4689      	mov	r9, r1
	if (!(i & 0xFFFF) || !dp->sect)	/* Report EOT when index has reached 65535 */
 800213e:	b913      	cbnz	r3, 8002146 <dir_next+0x1a>
		return FR_NO_FILE;
 8002140:	2004      	movs	r0, #4
 8002142:	e8bd 8ff8 	ldmia.w	sp!, {r3, r4, r5, r6, r7, r8, r9, sl, fp, pc}
	if (!(i & 0xFFFF) || !dp->sect)	/* Report EOT when index has reached 65535 */
 8002146:	f241 0110 	movw	r1, #4112	; 0x1010
 800214a:	5842      	ldr	r2, [r0, r1]
 800214c:	2a00      	cmp	r2, #0
 800214e:	d0f7      	beq.n	8002140 <dir_next+0x14>
	if (!(i % (SS(dp->fs) / SZ_DIRE))) {	/* Sector changed? */
 8002150:	f241 030a 	movw	r3, #4106	; 0x100a
 8002154:	f500 5780 	add.w	r7, r0, #4096	; 0x1000
 8002158:	6838      	ldr	r0, [r7, #0]
 800215a:	5ac3      	ldrh	r3, [r0, r3]
 800215c:	095b      	lsrs	r3, r3, #5
 800215e:	fbb6 f5f3 	udiv	r5, r6, r3
 8002162:	fb03 6315 	mls	r3, r3, r5, r6
 8002166:	b95b      	cbnz	r3, 8002180 <dir_next+0x54>
		if (!dp->clust) {		/* Static table */
 8002168:	f241 0a0c 	movw	sl, #4108	; 0x100c
		dp->sect++;					/* Next sector */
 800216c:	3201      	adds	r2, #1
 800216e:	5062      	str	r2, [r4, r1]
		if (!dp->clust) {		/* Static table */
 8002170:	f854 100a 	ldr.w	r1, [r4, sl]
 8002174:	b9c1      	cbnz	r1, 80021a8 <dir_next+0x7c>
			if (i >= dp->fs->n_rootdir)	/* Report EOT if it reached end of static table */
 8002176:	f241 0308 	movw	r3, #4104	; 0x1008
 800217a:	5ac3      	ldrh	r3, [r0, r3]
 800217c:	429e      	cmp	r6, r3
 800217e:	d2df      	bcs.n	8002140 <dir_next+0x14>
	dp->index = (WORD)i;	/* Current index */
 8002180:	f241 0306 	movw	r3, #4102	; 0x1006
	dp->dir = dp->fs->win.d8 + (i % (SS(dp->fs) / SZ_DIRE)) * SZ_DIRE;	/* Current entry in the window */
 8002184:	f241 020a 	movw	r2, #4106	; 0x100a
	dp->index = (WORD)i;	/* Current index */
 8002188:	52e6      	strh	r6, [r4, r3]
	dp->dir = dp->fs->win.d8 + (i % (SS(dp->fs) / SZ_DIRE)) * SZ_DIRE;	/* Current entry in the window */
 800218a:	683b      	ldr	r3, [r7, #0]
	return FR_OK;
 800218c:	2000      	movs	r0, #0
	dp->dir = dp->fs->win.d8 + (i % (SS(dp->fs) / SZ_DIRE)) * SZ_DIRE;	/* Current entry in the window */
 800218e:	5a9a      	ldrh	r2, [r3, r2]
 8002190:	0952      	lsrs	r2, r2, #5
 8002192:	fbb6 f1f2 	udiv	r1, r6, r2
 8002196:	fb02 6611 	mls	r6, r2, r1, r6
 800219a:	f241 0214 	movw	r2, #4116	; 0x1014
 800219e:	eb03 1346 	add.w	r3, r3, r6, lsl #5
 80021a2:	50a3      	str	r3, [r4, r2]
	return FR_OK;
 80021a4:	e8bd 8ff8 	ldmia.w	sp!, {r3, r4, r5, r6, r7, r8, r9, sl, fp, pc}
			if (((i / (SS(dp->fs) / SZ_DIRE)) & (dp->fs->csize - 1)) == 0) {	/* Cluster changed? */
 80021a8:	f241 0302 	movw	r3, #4098	; 0x1002
 80021ac:	f810 8003 	ldrb.w	r8, [r0, r3]
 80021b0:	f108 38ff 	add.w	r8, r8, #4294967295
 80021b4:	ea18 0805 	ands.w	r8, r8, r5
 80021b8:	d1e2      	bne.n	8002180 <dir_next+0x54>
				clst = get_fat(dp->fs, dp->clust);				/* Get next cluster */
 80021ba:	f7ff fdb9 	bl	8001d30 <get_fat>
				if (clst <= 1) return FR_INT_ERR;
 80021be:	2801      	cmp	r0, #1
				clst = get_fat(dp->fs, dp->clust);				/* Get next cluster */
 80021c0:	4605      	mov	r5, r0
				if (clst <= 1) return FR_INT_ERR;
 80021c2:	d802      	bhi.n	80021ca <dir_next+0x9e>
 80021c4:	2002      	movs	r0, #2
 80021c6:	e8bd 8ff8 	ldmia.w	sp!, {r3, r4, r5, r6, r7, r8, r9, sl, fp, pc}
				if (clst == 0xFFFFFFFF) return FR_DISK_ERR;
 80021ca:	1c42      	adds	r2, r0, #1
 80021cc:	d102      	bne.n	80021d4 <dir_next+0xa8>
 80021ce:	2001      	movs	r0, #1
 80021d0:	e8bd 8ff8 	ldmia.w	sp!, {r3, r4, r5, r6, r7, r8, r9, sl, fp, pc}
				if (clst >= dp->fs->n_fatent) {					/* If it reached end of dynamic table, */
 80021d4:	f241 0314 	movw	r3, #4116	; 0x1014
 80021d8:	6838      	ldr	r0, [r7, #0]
 80021da:	58c3      	ldr	r3, [r0, r3]
 80021dc:	429d      	cmp	r5, r3
 80021de:	d334      	bcc.n	800224a <dir_next+0x11e>
					if (!stretch) return FR_NO_FILE;			/* If do not stretch, report EOT */
 80021e0:	f1b9 0f00 	cmp.w	r9, #0
 80021e4:	d0ac      	beq.n	8002140 <dir_next+0x14>
					clst = create_chain(dp->fs, dp->clust);		/* Stretch cluster chain */
 80021e6:	f854 100a 	ldr.w	r1, [r4, sl]
 80021ea:	f7ff ff3c 	bl	8002066 <create_chain>
					if (clst == 0) return FR_DENIED;			/* No free cluster */
 80021ee:	4605      	mov	r5, r0
 80021f0:	2800      	cmp	r0, #0
 80021f2:	d044      	beq.n	800227e <dir_next+0x152>
					if (clst == 1) return FR_INT_ERR;
 80021f4:	2801      	cmp	r0, #1
 80021f6:	d0e5      	beq.n	80021c4 <dir_next+0x98>
					if (clst == 0xFFFFFFFF) return FR_DISK_ERR;
 80021f8:	1c43      	adds	r3, r0, #1
 80021fa:	d0e8      	beq.n	80021ce <dir_next+0xa2>
					if (sync_window(dp->fs)) return FR_DISK_ERR;/* Flush disk access window */
 80021fc:	6838      	ldr	r0, [r7, #0]
 80021fe:	f7ff fb4d 	bl	800189c <sync_window>
 8002202:	4601      	mov	r1, r0
 8002204:	2800      	cmp	r0, #0
 8002206:	d1e2      	bne.n	80021ce <dir_next+0xa2>
					mem_set(dp->fs->win.d8, 0, SS(dp->fs));		/* Clear window buffer */
 8002208:	f241 020a 	movw	r2, #4106	; 0x100a
 800220c:	6838      	ldr	r0, [r7, #0]
						dp->fs->wflag = 1;
 800220e:	f241 0a04 	movw	sl, #4100	; 0x1004
					mem_set(dp->fs->win.d8, 0, SS(dp->fs));		/* Clear window buffer */
 8002212:	5a82      	ldrh	r2, [r0, r2]
 8002214:	f7ff f9f2 	bl	80015fc <mem_set>
					dp->fs->winsect = clust2sect(dp->fs, clst);	/* Cluster start sector */
 8002218:	f8d7 9000 	ldr.w	r9, [r7]
 800221c:	4629      	mov	r1, r5
 800221e:	4648      	mov	r0, r9
 8002220:	f7ff fd74 	bl	8001d0c <clust2sect>
 8002224:	f241 032c 	movw	r3, #4140	; 0x102c
						dp->fs->wflag = 1;
 8002228:	f04f 0b01 	mov.w	fp, #1
					dp->fs->winsect = clust2sect(dp->fs, clst);	/* Cluster start sector */
 800222c:	f849 0003 	str.w	r0, [r9, r3]
					for (c = 0; c < dp->fs->csize; c++) {		/* Fill the new cluster with 0 */
 8002230:	f241 0902 	movw	r9, #4098	; 0x1002
 8002234:	6838      	ldr	r0, [r7, #0]
 8002236:	f810 3009 	ldrb.w	r3, [r0, r9]
 800223a:	4598      	cmp	r8, r3
 800223c:	d310      	bcc.n	8002260 <dir_next+0x134>
					dp->fs->winsect -= c;						/* Rewind window offset */
 800223e:	f241 022c 	movw	r2, #4140	; 0x102c
 8002242:	5883      	ldr	r3, [r0, r2]
 8002244:	eba3 0308 	sub.w	r3, r3, r8
 8002248:	5083      	str	r3, [r0, r2]
				dp->clust = clst;				/* Initialize data for new cluster */
 800224a:	f241 030c 	movw	r3, #4108	; 0x100c
				dp->sect = clust2sect(dp->fs, clst);
 800224e:	6838      	ldr	r0, [r7, #0]
				dp->clust = clst;				/* Initialize data for new cluster */
 8002250:	50e5      	str	r5, [r4, r3]
				dp->sect = clust2sect(dp->fs, clst);
 8002252:	4629      	mov	r1, r5
 8002254:	f7ff fd5a 	bl	8001d0c <clust2sect>
 8002258:	f241 0310 	movw	r3, #4112	; 0x1010
 800225c:	50e0      	str	r0, [r4, r3]
 800225e:	e78f      	b.n	8002180 <dir_next+0x54>
						dp->fs->wflag = 1;
 8002260:	f800 b00a 	strb.w	fp, [r0, sl]
 8002264:	f7ff fae6 	bl	8001834 <sync_window.part.1>
						if (sync_window(dp->fs)) return FR_DISK_ERR;
 8002268:	2800      	cmp	r0, #0
 800226a:	d1b0      	bne.n	80021ce <dir_next+0xa2>
						dp->fs->winsect++;
 800226c:	f241 022c 	movw	r2, #4140	; 0x102c
 8002270:	6839      	ldr	r1, [r7, #0]
					for (c = 0; c < dp->fs->csize; c++) {		/* Fill the new cluster with 0 */
 8002272:	f108 0801 	add.w	r8, r8, #1
						dp->fs->winsect++;
 8002276:	588b      	ldr	r3, [r1, r2]
 8002278:	3301      	adds	r3, #1
 800227a:	508b      	str	r3, [r1, r2]
 800227c:	e7da      	b.n	8002234 <dir_next+0x108>
					if (clst == 0) return FR_DENIED;			/* No free cluster */
 800227e:	2007      	movs	r0, #7
}
 8002280:	e8bd 8ff8 	ldmia.w	sp!, {r3, r4, r5, r6, r7, r8, r9, sl, fp, pc}

08002284 <dir_find.part.6>:
FRESULT dir_find (
 8002284:	e92d 4ff0 	stmdb	sp!, {r4, r5, r6, r7, r8, r9, sl, fp, lr}
	ord = sum = 0xFF; dp->lfn_idx = 0xFFFF;	/* Reset LFN sequence */
 8002288:	f04f 08ff 	mov.w	r8, #255	; 0xff
 800228c:	f64f 72ff 	movw	r2, #65535	; 0xffff
 8002290:	f241 0324 	movw	r3, #4132	; 0x1024
FRESULT dir_find (
 8002294:	4606      	mov	r6, r0
	ord = sum = 0xFF; dp->lfn_idx = 0xFFFF;	/* Reset LFN sequence */
 8002296:	4644      	mov	r4, r8
		res = move_window(dp->fs, dp->sect);
 8002298:	f500 5a80 	add.w	sl, r0, #4096	; 0x1000
		dir = dp->dir;					/* Ptr to the directory entry of current index */
 800229c:	f500 5b80 	add.w	fp, r0, #4096	; 0x1000
FRESULT dir_find (
 80022a0:	b085      	sub	sp, #20
	ord = sum = 0xFF; dp->lfn_idx = 0xFFFF;	/* Reset LFN sequence */
 80022a2:	52c2      	strh	r2, [r0, r3]
		res = move_window(dp->fs, dp->sect);
 80022a4:	f10a 0a10 	add.w	sl, sl, #16
		dir = dp->dir;					/* Ptr to the directory entry of current index */
 80022a8:	f10b 0b14 	add.w	fp, fp, #20
		res = move_window(dp->fs, dp->sect);
 80022ac:	f506 5380 	add.w	r3, r6, #4096	; 0x1000
 80022b0:	f8da 1000 	ldr.w	r1, [sl]
 80022b4:	6818      	ldr	r0, [r3, #0]
 80022b6:	f7ff fb5e 	bl	8001976 <move_window>
		if (res != FR_OK) break;
 80022ba:	4607      	mov	r7, r0
 80022bc:	2800      	cmp	r0, #0
 80022be:	d169      	bne.n	8002394 <dir_find.part.6+0x110>
		dir = dp->dir;					/* Ptr to the directory entry of current index */
 80022c0:	f8db 5000 	ldr.w	r5, [fp]
		c = dir[DIR_Name];
 80022c4:	782a      	ldrb	r2, [r5, #0]
		if (c == 0) { res = FR_NO_FILE; break; }	/* Reached to end of table */
 80022c6:	2a00      	cmp	r2, #0
 80022c8:	f000 8084 	beq.w	80023d4 <dir_find.part.6+0x150>
		if (c == DDEM || ((a & AM_VOL) && a != AM_LFN)) {	/* An entry without valid data */
 80022cc:	2ae5      	cmp	r2, #229	; 0xe5
 80022ce:	d006      	beq.n	80022de <dir_find.part.6+0x5a>
		a = dir[DIR_Attr] & AM_MASK;
 80022d0:	7ae9      	ldrb	r1, [r5, #11]
 80022d2:	f001 033f 	and.w	r3, r1, #63	; 0x3f
		if (c == DDEM || ((a & AM_VOL) && a != AM_LFN)) {	/* An entry without valid data */
 80022d6:	0709      	lsls	r1, r1, #28
 80022d8:	d507      	bpl.n	80022ea <dir_find.part.6+0x66>
 80022da:	2b0f      	cmp	r3, #15
 80022dc:	d007      	beq.n	80022ee <dir_find.part.6+0x6a>
				ord = 0xFF; dp->lfn_idx = 0xFFFF;	/* Reset LFN sequence */
 80022de:	f64f 72ff 	movw	r2, #65535	; 0xffff
 80022e2:	f241 0324 	movw	r3, #4132	; 0x1024
 80022e6:	52f2      	strh	r2, [r6, r3]
 80022e8:	e04c      	b.n	8002384 <dir_find.part.6+0x100>
			if (a == AM_LFN) {			/* An LFN entry is found */
 80022ea:	2b0f      	cmp	r3, #15
 80022ec:	d15b      	bne.n	80023a6 <dir_find.part.6+0x122>
				if (dp->lfn) {
 80022ee:	f506 5381 	add.w	r3, r6, #4128	; 0x1020
 80022f2:	681b      	ldr	r3, [r3, #0]
 80022f4:	2b00      	cmp	r3, #0
 80022f6:	d046      	beq.n	8002386 <dir_find.part.6+0x102>
					if (c & LLEF) {		/* Is it start of LFN sequence? */
 80022f8:	0650      	lsls	r0, r2, #25
 80022fa:	d541      	bpl.n	8002380 <dir_find.part.6+0xfc>
						c &= ~LLEF; ord = c;	/* LFN start order */
 80022fc:	f002 04bf 	and.w	r4, r2, #191	; 0xbf
						dp->lfn_idx = dp->index;	/* Start index of LFN */
 8002300:	f241 0206 	movw	r2, #4102	; 0x1006
 8002304:	5ab1      	ldrh	r1, [r6, r2]
 8002306:	f241 0224 	movw	r2, #4132	; 0x1024
						sum = dir[LDIR_Chksum];
 800230a:	f895 800d 	ldrb.w	r8, [r5, #13]
						dp->lfn_idx = dp->index;	/* Start index of LFN */
 800230e:	52b1      	strh	r1, [r6, r2]
					ord = (c == ord && sum == dir[LDIR_Chksum] && cmp_lfn(dp->lfn, dir)) ? ord - 1 : 0xFF;
 8002310:	7b6a      	ldrb	r2, [r5, #13]
 8002312:	4542      	cmp	r2, r8
 8002314:	d136      	bne.n	8002384 <dir_find.part.6+0x100>
	i = ((dir[LDIR_Ord] & ~LLEF) - 1) * 13;	/* Get offset in the LFN buffer */
 8002316:	782f      	ldrb	r7, [r5, #0]
	s = 0; wc = 1;
 8002318:	2001      	movs	r0, #1
	i = ((dir[LDIR_Ord] & ~LLEF) - 1) * 13;	/* Get offset in the LFN buffer */
 800231a:	f027 0740 	bic.w	r7, r7, #64	; 0x40
 800231e:	1e7a      	subs	r2, r7, #1
 8002320:	270d      	movs	r7, #13
	s = 0; wc = 1;
 8002322:	f04f 0900 	mov.w	r9, #0
	i = ((dir[LDIR_Ord] & ~LLEF) - 1) * 13;	/* Get offset in the LFN buffer */
 8002326:	4357      	muls	r7, r2
		uc = LD_WORD(dir + LfnOfs[s]);	/* Pick an LFN character from the entry */
 8002328:	4a2b      	ldr	r2, [pc, #172]	; (80023d8 <dir_find.part.6+0x154>)
 800232a:	f819 2002 	ldrb.w	r2, [r9, r2]
 800232e:	18a9      	adds	r1, r5, r2
 8002330:	7849      	ldrb	r1, [r1, #1]
 8002332:	5caa      	ldrb	r2, [r5, r2]
 8002334:	ea42 2201 	orr.w	r2, r2, r1, lsl #8
		if (wc) {	/* Last character has not been processed */
 8002338:	b380      	cbz	r0, 800239c <dir_find.part.6+0x118>
			wc = ff_wtoupper(uc);		/* Convert it to upper case */
 800233a:	4610      	mov	r0, r2
 800233c:	9301      	str	r3, [sp, #4]
 800233e:	f000 fe1d 	bl	8002f7c <ff_wtoupper>
			if (i >= _MAX_LFN || wc != ff_wtoupper(lfnbuf[i++]))	/* Compare it */
 8002342:	2ffe      	cmp	r7, #254	; 0xfe
			wc = ff_wtoupper(uc);		/* Convert it to upper case */
 8002344:	9003      	str	r0, [sp, #12]
			if (i >= _MAX_LFN || wc != ff_wtoupper(lfnbuf[i++]))	/* Compare it */
 8002346:	d81d      	bhi.n	8002384 <dir_find.part.6+0x100>
 8002348:	9b01      	ldr	r3, [sp, #4]
 800234a:	1c7a      	adds	r2, r7, #1
 800234c:	f833 0017 	ldrh.w	r0, [r3, r7, lsl #1]
 8002350:	9202      	str	r2, [sp, #8]
 8002352:	f000 fe13 	bl	8002f7c <ff_wtoupper>
 8002356:	9903      	ldr	r1, [sp, #12]
 8002358:	4281      	cmp	r1, r0
 800235a:	d113      	bne.n	8002384 <dir_find.part.6+0x100>
 800235c:	9a02      	ldr	r2, [sp, #8]
 800235e:	9b01      	ldr	r3, [sp, #4]
 8002360:	4617      	mov	r7, r2
	} while (++s < 13);				/* Repeat until all characters in the entry are checked */
 8002362:	f109 0901 	add.w	r9, r9, #1
 8002366:	f1b9 0f0d 	cmp.w	r9, #13
 800236a:	d1dd      	bne.n	8002328 <dir_find.part.6+0xa4>
	if ((dir[LDIR_Ord] & LLEF) && wc && lfnbuf[i])	/* Last segment matched but different length */
 800236c:	782a      	ldrb	r2, [r5, #0]
 800236e:	0651      	lsls	r1, r2, #25
 8002370:	d503      	bpl.n	800237a <dir_find.part.6+0xf6>
 8002372:	b110      	cbz	r0, 800237a <dir_find.part.6+0xf6>
 8002374:	f833 3017 	ldrh.w	r3, [r3, r7, lsl #1]
 8002378:	b923      	cbnz	r3, 8002384 <dir_find.part.6+0x100>
					ord = (c == ord && sum == dir[LDIR_Chksum] && cmp_lfn(dp->lfn, dir)) ? ord - 1 : 0xFF;
 800237a:	3c01      	subs	r4, #1
 800237c:	b2e4      	uxtb	r4, r4
 800237e:	e002      	b.n	8002386 <dir_find.part.6+0x102>
 8002380:	42a2      	cmp	r2, r4
 8002382:	d0c5      	beq.n	8002310 <dir_find.part.6+0x8c>
 8002384:	24ff      	movs	r4, #255	; 0xff
		res = dir_next(dp, 0);		/* Next entry */
 8002386:	2100      	movs	r1, #0
 8002388:	4630      	mov	r0, r6
 800238a:	f7ff fecf 	bl	800212c <dir_next>
	} while (res == FR_OK);
 800238e:	4607      	mov	r7, r0
 8002390:	2800      	cmp	r0, #0
 8002392:	d08b      	beq.n	80022ac <dir_find.part.6+0x28>
}
 8002394:	4638      	mov	r0, r7
 8002396:	b005      	add	sp, #20
 8002398:	e8bd 8ff0 	ldmia.w	sp!, {r4, r5, r6, r7, r8, r9, sl, fp, pc}
			if (uc != 0xFFFF) return 0;	/* Check filler */
 800239c:	f64f 71ff 	movw	r1, #65535	; 0xffff
 80023a0:	428a      	cmp	r2, r1
 80023a2:	d0de      	beq.n	8002362 <dir_find.part.6+0xde>
 80023a4:	e7ee      	b.n	8002384 <dir_find.part.6+0x100>
				if (!ord && sum == sum_sfn(dir)) break;	/* LFN matched? */
 80023a6:	b924      	cbnz	r4, 80023b2 <dir_find.part.6+0x12e>
 80023a8:	4628      	mov	r0, r5
 80023aa:	f7ff f9f2 	bl	8001792 <sum_sfn>
 80023ae:	4540      	cmp	r0, r8
 80023b0:	d0f0      	beq.n	8002394 <dir_find.part.6+0x110>
				if (!(dp->fn[NSFLAG] & NS_LOSS) && !mem_cmp(dir, dp->fn, 11)) break;	/* SFN matched? */
 80023b2:	f241 0318 	movw	r3, #4120	; 0x1018
 80023b6:	58f3      	ldr	r3, [r6, r3]
 80023b8:	7ada      	ldrb	r2, [r3, #11]
 80023ba:	07d2      	lsls	r2, r2, #31
 80023bc:	d48f      	bmi.n	80022de <dir_find.part.6+0x5a>
 80023be:	f103 000b 	add.w	r0, r3, #11
	while (cnt-- && (r = *d++ - *s++) == 0) ;
 80023c2:	4283      	cmp	r3, r0
 80023c4:	d0e6      	beq.n	8002394 <dir_find.part.6+0x110>
 80023c6:	f815 1b01 	ldrb.w	r1, [r5], #1
 80023ca:	f813 2b01 	ldrb.w	r2, [r3], #1
 80023ce:	4291      	cmp	r1, r2
 80023d0:	d0f7      	beq.n	80023c2 <dir_find.part.6+0x13e>
 80023d2:	e784      	b.n	80022de <dir_find.part.6+0x5a>
		if (c == 0) { res = FR_NO_FILE; break; }	/* Reached to end of table */
 80023d4:	2704      	movs	r7, #4
 80023d6:	e7dd      	b.n	8002394 <dir_find.part.6+0x110>
 80023d8:	08005834 	.word	0x08005834

080023dc <follow_path>:
{
 80023dc:	e92d 4ff7 	stmdb	sp!, {r0, r1, r2, r4, r5, r6, r7, r8, r9, sl, fp, lr}
	if (*path == '/' || *path == '\\')		/* Strip heading separator if exist */
 80023e0:	780b      	ldrb	r3, [r1, #0]
{
 80023e2:	4680      	mov	r8, r0
	if (*path == '/' || *path == '\\')		/* Strip heading separator if exist */
 80023e4:	2b2f      	cmp	r3, #47	; 0x2f
{
 80023e6:	460f      	mov	r7, r1
	if (*path == '/' || *path == '\\')		/* Strip heading separator if exist */
 80023e8:	d001      	beq.n	80023ee <follow_path+0x12>
 80023ea:	2b5c      	cmp	r3, #92	; 0x5c
 80023ec:	d100      	bne.n	80023f0 <follow_path+0x14>
		path++;
 80023ee:	3701      	adds	r7, #1
	dp->sclust = 0;							/* Always start from the root directory */
 80023f0:	f241 0308 	movw	r3, #4104	; 0x1008
 80023f4:	2400      	movs	r4, #0
 80023f6:	f848 4003 	str.w	r4, [r8, r3]
	if ((UINT)*path < ' ') {				/* Null path name is the origin directory itself */
 80023fa:	783b      	ldrb	r3, [r7, #0]
 80023fc:	2b1f      	cmp	r3, #31
 80023fe:	d92e      	bls.n	800245e <follow_path+0x82>
	mem_set(dp->fn, ' ', 11);
 8002400:	f508 5b80 	add.w	fp, r8, #4096	; 0x1000
 8002404:	f10b 0b18 	add.w	fp, fp, #24
	for (p = *path; *p == '/' || *p == '\\'; p++) ;	/* Strip duplicated separator */
 8002408:	783b      	ldrb	r3, [r7, #0]
 800240a:	463c      	mov	r4, r7
 800240c:	2b2f      	cmp	r3, #47	; 0x2f
 800240e:	f107 0701 	add.w	r7, r7, #1
 8002412:	d0f9      	beq.n	8002408 <follow_path+0x2c>
 8002414:	2b5c      	cmp	r3, #92	; 0x5c
 8002416:	d0f7      	beq.n	8002408 <follow_path+0x2c>
	si = di = 0;
 8002418:	2600      	movs	r6, #0
	lfn = dp->lfn;
 800241a:	f508 5381 	add.w	r3, r8, #4128	; 0x1020
 800241e:	681b      	ldr	r3, [r3, #0]
 8002420:	f104 39ff 	add.w	r9, r4, #4294967295
 8002424:	1e9d      	subs	r5, r3, #2
		w = p[si++];					/* Get a character */
 8002426:	f819 0f01 	ldrb.w	r0, [r9, #1]!
 800242a:	1c77      	adds	r7, r6, #1
		if (w < ' ' || w == '/' || w == '\\') break;	/* Break on end of segment */
 800242c:	281f      	cmp	r0, #31
 800242e:	d925      	bls.n	800247c <follow_path+0xa0>
 8002430:	282f      	cmp	r0, #47	; 0x2f
 8002432:	d023      	beq.n	800247c <follow_path+0xa0>
 8002434:	285c      	cmp	r0, #92	; 0x5c
 8002436:	d021      	beq.n	800247c <follow_path+0xa0>
		if (di >= _MAX_LFN)				/* Reject too long name */
 8002438:	f5b7 7f80 	cmp.w	r7, #256	; 0x100
 800243c:	9300      	str	r3, [sp, #0]
 800243e:	d00c      	beq.n	800245a <follow_path+0x7e>
		w = ff_convert(w, 1);			/* Convert ANSI/OEM to Unicode */
 8002440:	2101      	movs	r1, #1
 8002442:	f000 fd7d 	bl	8002f40 <ff_convert>
		if (!w) return FR_INVALID_NAME;	/* Reject invalid code */
 8002446:	b140      	cbz	r0, 800245a <follow_path+0x7e>
		if (w < 0x80 && chk_chr("\"*:<>\?|\x7F", w)) /* Reject illegal characters for LFN */
 8002448:	287f      	cmp	r0, #127	; 0x7f
 800244a:	9b00      	ldr	r3, [sp, #0]
 800244c:	d812      	bhi.n	8002474 <follow_path+0x98>
 800244e:	4980      	ldr	r1, [pc, #512]	; (8002650 <follow_path+0x274>)
	while (*str && *str != chr) str++;
 8002450:	f811 2f01 	ldrb.w	r2, [r1, #1]!
 8002454:	b172      	cbz	r2, 8002474 <follow_path+0x98>
 8002456:	4282      	cmp	r2, r0
 8002458:	d1fa      	bne.n	8002450 <follow_path+0x74>
						if (!(ns & NS_LAST)) res = FR_NO_PATH;	/* Adjust error code if not last segment */
 800245a:	2006      	movs	r0, #6
 800245c:	e007      	b.n	800246e <follow_path+0x92>
		res = dir_sdi(dp, 0);
 800245e:	4621      	mov	r1, r4
 8002460:	4640      	mov	r0, r8
 8002462:	f7ff fcf1 	bl	8001e48 <dir_sdi>
		dp->dir = 0;
 8002466:	f241 0314 	movw	r3, #4116	; 0x1014
 800246a:	f848 4003 	str.w	r4, [r8, r3]
}
 800246e:	b003      	add	sp, #12
 8002470:	e8bd 8ff0 	ldmia.w	sp!, {r4, r5, r6, r7, r8, r9, sl, fp, pc}
		lfn[di++] = w;					/* Store the Unicode character */
 8002474:	f825 0f02 	strh.w	r0, [r5, #2]!
 8002478:	463e      	mov	r6, r7
 800247a:	e7d4      	b.n	8002426 <follow_path+0x4a>
	cf = (w < ' ') ? NS_LAST : 0;		/* Set last segment flag if end of path */
 800247c:	2820      	cmp	r0, #32
	*path = &p[si];						/* Return pointer to the next segment */
 800247e:	4427      	add	r7, r4
	cf = (w < ' ') ? NS_LAST : 0;		/* Set last segment flag if end of path */
 8002480:	bf34      	ite	cc
 8002482:	2404      	movcc	r4, #4
 8002484:	2400      	movcs	r4, #0
 8002486:	eb03 0246 	add.w	r2, r3, r6, lsl #1
	while (di) {						/* Strip trailing spaces and dots */
 800248a:	2e00      	cmp	r6, #0
 800248c:	d0e5      	beq.n	800245a <follow_path+0x7e>
		w = lfn[di - 1];
 800248e:	f832 1d02 	ldrh.w	r1, [r2, #-2]!
		if (w != ' ' && w != '.') break;
 8002492:	2920      	cmp	r1, #32
 8002494:	d001      	beq.n	800249a <follow_path+0xbe>
 8002496:	292e      	cmp	r1, #46	; 0x2e
 8002498:	d17a      	bne.n	8002590 <follow_path+0x1b4>
		di--;
 800249a:	3e01      	subs	r6, #1
 800249c:	e7f5      	b.n	800248a <follow_path+0xae>
	for (si = 0; lfn[si] == ' ' || lfn[si] == '.'; si++) ;	/* Strip leading spaces and dots */
 800249e:	3101      	adds	r1, #1
 80024a0:	f833 2011 	ldrh.w	r2, [r3, r1, lsl #1]
 80024a4:	2a20      	cmp	r2, #32
 80024a6:	d0fa      	beq.n	800249e <follow_path+0xc2>
 80024a8:	2a2e      	cmp	r2, #46	; 0x2e
 80024aa:	d0f8      	beq.n	800249e <follow_path+0xc2>
	if (si) cf |= NS_LOSS | NS_LFN;
 80024ac:	b109      	cbz	r1, 80024b2 <follow_path+0xd6>
 80024ae:	f044 0403 	orr.w	r4, r4, #3
 80024b2:	464a      	mov	r2, r9
	while (di && lfn[di - 1] != '.') di--;	/* Find extension (di<=si: no extension) */
 80024b4:	f832 0d02 	ldrh.w	r0, [r2, #-2]!
 80024b8:	282e      	cmp	r0, #46	; 0x2e
 80024ba:	d001      	beq.n	80024c0 <follow_path+0xe4>
 80024bc:	3e01      	subs	r6, #1
 80024be:	d1f9      	bne.n	80024b4 <follow_path+0xd8>
		dp->fn[i++] = (BYTE)w;
 80024c0:	f04f 0a00 	mov.w	sl, #0
 80024c4:	f04f 0908 	mov.w	r9, #8
 80024c8:	4655      	mov	r5, sl
		w = lfn[si++];					/* Get an LFN character */
 80024ca:	f833 0011 	ldrh.w	r0, [r3, r1, lsl #1]
 80024ce:	1c4a      	adds	r2, r1, #1
		if (!w) break;					/* Break on end of the LFN */
 80024d0:	2800      	cmp	r0, #0
 80024d2:	d075      	beq.n	80025c0 <follow_path+0x1e4>
		if (w == ' ' || (w == '.' && si != di)) {	/* Remove spaces and dots */
 80024d4:	2820      	cmp	r0, #32
 80024d6:	d003      	beq.n	80024e0 <follow_path+0x104>
 80024d8:	282e      	cmp	r0, #46	; 0x2e
 80024da:	d105      	bne.n	80024e8 <follow_path+0x10c>
 80024dc:	42b2      	cmp	r2, r6
 80024de:	d066      	beq.n	80025ae <follow_path+0x1d2>
			cf |= NS_LOSS | NS_LFN; continue;
 80024e0:	f044 0403 	orr.w	r4, r4, #3
		dp->fn[i++] = (BYTE)w;
 80024e4:	4611      	mov	r1, r2
 80024e6:	e7f0      	b.n	80024ca <follow_path+0xee>
		if (i >= ni || si == di) {		/* Extension or end of SFN */
 80024e8:	45ca      	cmp	sl, r9
 80024ea:	d262      	bcs.n	80025b2 <follow_path+0x1d6>
 80024ec:	42b2      	cmp	r2, r6
 80024ee:	d110      	bne.n	8002512 <follow_path+0x136>
			if (ni == 11) {				/* Long extension */
 80024f0:	f1b9 0f0b 	cmp.w	r9, #11
 80024f4:	d105      	bne.n	8002502 <follow_path+0x126>
 80024f6:	e05f      	b.n	80025b8 <follow_path+0x1dc>
			if (si != di) cf |= NS_LOSS | NS_LFN;	/* Out of 8.3 format */
 80024f8:	42b2      	cmp	r2, r6
 80024fa:	d002      	beq.n	8002502 <follow_path+0x126>
 80024fc:	f044 0403 	orr.w	r4, r4, #3
			if (si > di) break;			/* No extension */
 8002500:	d85e      	bhi.n	80025c0 <follow_path+0x1e4>
			b <<= 2; continue;
 8002502:	00ad      	lsls	r5, r5, #2
 8002504:	b2ed      	uxtb	r5, r5
 8002506:	4632      	mov	r2, r6
			si = di; i = 8; ni = 11;	/* Enter extension section */
 8002508:	f04f 090b 	mov.w	r9, #11
 800250c:	f04f 0a08 	mov.w	sl, #8
 8002510:	e7e8      	b.n	80024e4 <follow_path+0x108>
		if (w >= 0x80) {				/* Non ASCII character */
 8002512:	287f      	cmp	r0, #127	; 0x7f
 8002514:	d90f      	bls.n	8002536 <follow_path+0x15a>
			w = ff_convert(w, 0);		/* Unicode -> OEM code */
 8002516:	2100      	movs	r1, #0
 8002518:	9201      	str	r2, [sp, #4]
 800251a:	9300      	str	r3, [sp, #0]
 800251c:	f000 fd10 	bl	8002f40 <ff_convert>
			if (w) w = ExCvt[w - 0x80];	/* Convert extended character to upper (SBCS) */
 8002520:	9b00      	ldr	r3, [sp, #0]
 8002522:	9a01      	ldr	r2, [sp, #4]
 8002524:	b118      	cbz	r0, 800252e <follow_path+0x152>
 8002526:	494b      	ldr	r1, [pc, #300]	; (8002654 <follow_path+0x278>)
 8002528:	4408      	add	r0, r1
 800252a:	f810 0c80 	ldrb.w	r0, [r0, #-128]
 800252e:	b280      	uxth	r0, r0
			cf |= NS_LFN;				/* Force create LFN entry */
 8002530:	f044 0402 	orr.w	r4, r4, #2
			if (!w || chk_chr("+,;=[]", w)) {	/* Replace illegal characters for SFN */
 8002534:	b138      	cbz	r0, 8002546 <follow_path+0x16a>
 8002536:	f8df e120 	ldr.w	lr, [pc, #288]	; 8002658 <follow_path+0x27c>
	while (*str && *str != chr) str++;
 800253a:	f81e 1f01 	ldrb.w	r1, [lr, #1]!
 800253e:	2900      	cmp	r1, #0
 8002540:	d078      	beq.n	8002634 <follow_path+0x258>
 8002542:	4281      	cmp	r1, r0
 8002544:	d1f9      	bne.n	800253a <follow_path+0x15e>
				w = '_'; cf |= NS_LOSS | NS_LFN;/* Lossy conversion */
 8002546:	205f      	movs	r0, #95	; 0x5f
 8002548:	f044 0403 	orr.w	r4, r4, #3
		dp->fn[i++] = (BYTE)w;
 800254c:	f8db 1000 	ldr.w	r1, [fp]
 8002550:	f801 000a 	strb.w	r0, [r1, sl]
 8002554:	f10a 0a01 	add.w	sl, sl, #1
 8002558:	e7c4      	b.n	80024e4 <follow_path+0x108>
					b |= 2;
 800255a:	f045 0502 	orr.w	r5, r5, #2
 800255e:	e7f5      	b.n	800254c <follow_path+0x170>
			if (ns & NS_LAST) break;			/* Last segment matched. Function completed. */
 8002560:	075a      	lsls	r2, r3, #29
 8002562:	d484      	bmi.n	800246e <follow_path+0x92>
			dir = dp->dir;						/* Follow the sub-directory */
 8002564:	f241 0314 	movw	r3, #4116	; 0x1014
 8002568:	f858 1003 	ldr.w	r1, [r8, r3]
			if (!(dir[DIR_Attr] & AM_DIR)) {	/* It is not a sub-directory and cannot follow */
 800256c:	7acb      	ldrb	r3, [r1, #11]
 800256e:	06db      	lsls	r3, r3, #27
 8002570:	d50c      	bpl.n	800258c <follow_path+0x1b0>
			dp->sclust = ld_clust(dp->fs, dir);
 8002572:	f508 5380 	add.w	r3, r8, #4096	; 0x1000
 8002576:	681b      	ldr	r3, [r3, #0]
 8002578:	f503 5380 	add.w	r3, r3, #4096	; 0x1000
 800257c:	7818      	ldrb	r0, [r3, #0]
 800257e:	f7ff f94b 	bl	8001818 <ld_clust.isra.0>
 8002582:	f241 0308 	movw	r3, #4104	; 0x1008
 8002586:	f848 0003 	str.w	r0, [r8, r3]
			res = create_name(dp, &path);	/* Get a segment name of the path */
 800258a:	e73d      	b.n	8002408 <follow_path+0x2c>
						if (!(ns & NS_LAST)) res = FR_NO_PATH;	/* Adjust error code if not last segment */
 800258c:	2005      	movs	r0, #5
	return res;
 800258e:	e76e      	b.n	800246e <follow_path+0x92>
	lfn[di] = 0;						/* LFN is created */
 8002590:	2500      	movs	r5, #0
	mem_set(dp->fn, ' ', 11);
 8002592:	2120      	movs	r1, #32
	lfn[di] = 0;						/* LFN is created */
 8002594:	f823 5016 	strh.w	r5, [r3, r6, lsl #1]
	mem_set(dp->fn, ' ', 11);
 8002598:	220b      	movs	r2, #11
 800259a:	f8db 0000 	ldr.w	r0, [fp]
	lfn[di] = 0;						/* LFN is created */
 800259e:	eb03 0946 	add.w	r9, r3, r6, lsl #1
 80025a2:	9300      	str	r3, [sp, #0]
	mem_set(dp->fn, ' ', 11);
 80025a4:	f7ff f82a 	bl	80015fc <mem_set>
	for (si = 0; lfn[si] == ' ' || lfn[si] == '.'; si++) ;	/* Strip leading spaces and dots */
 80025a8:	4629      	mov	r1, r5
 80025aa:	9b00      	ldr	r3, [sp, #0]
 80025ac:	e778      	b.n	80024a0 <follow_path+0xc4>
		if (i >= ni || si == di) {		/* Extension or end of SFN */
 80025ae:	45ca      	cmp	sl, r9
 80025b0:	d39e      	bcc.n	80024f0 <follow_path+0x114>
			if (ni == 11) {				/* Long extension */
 80025b2:	f1b9 0f0b 	cmp.w	r9, #11
 80025b6:	d19f      	bne.n	80024f8 <follow_path+0x11c>
				cf |= NS_LOSS | NS_LFN; break;
 80025b8:	f04f 090b 	mov.w	r9, #11
 80025bc:	f044 0403 	orr.w	r4, r4, #3
	if (dp->fn[0] == DDEM) dp->fn[0] = RDDEM;	/* If the first character collides with deleted mark, replace it with RDDEM */
 80025c0:	f8db 3000 	ldr.w	r3, [fp]
 80025c4:	781a      	ldrb	r2, [r3, #0]
 80025c6:	2ae5      	cmp	r2, #229	; 0xe5
 80025c8:	bf04      	itt	eq
 80025ca:	2205      	moveq	r2, #5
 80025cc:	701a      	strbeq	r2, [r3, #0]
	if (ni == 8) b <<= 2;
 80025ce:	f1b9 0f08 	cmp.w	r9, #8
 80025d2:	bf04      	itt	eq
 80025d4:	00ad      	lsleq	r5, r5, #2
 80025d6:	b2ed      	uxtbeq	r5, r5
 80025d8:	f005 030c 	and.w	r3, r5, #12
	if ((b & 0x0C) == 0x0C || (b & 0x03) == 0x03)	/* Create LFN entry when there are composite capitals */
 80025dc:	2b0c      	cmp	r3, #12
 80025de:	d003      	beq.n	80025e8 <follow_path+0x20c>
 80025e0:	f005 0203 	and.w	r2, r5, #3
 80025e4:	2a03      	cmp	r2, #3
 80025e6:	d101      	bne.n	80025ec <follow_path+0x210>
		cf |= NS_LFN;
 80025e8:	f044 0402 	orr.w	r4, r4, #2
	if (!(cf & NS_LFN)) {						/* When LFN is in 8.3 format without extended character, NT flags are created */
 80025ec:	07a1      	lsls	r1, r4, #30
 80025ee:	d409      	bmi.n	8002604 <follow_path+0x228>
		if ((b & 0x03) == 0x01) cf |= NS_EXT;	/* NT flag (Extension has only small capital) */
 80025f0:	f005 0503 	and.w	r5, r5, #3
 80025f4:	2d01      	cmp	r5, #1
 80025f6:	bf08      	it	eq
 80025f8:	f044 0410 	orreq.w	r4, r4, #16
		if ((b & 0x0C) == 0x04) cf |= NS_BODY;	/* NT flag (Filename has only small capital) */
 80025fc:	2b04      	cmp	r3, #4
 80025fe:	bf08      	it	eq
 8002600:	f044 0408 	orreq.w	r4, r4, #8
	dp->fn[NSFLAG] = cf;	/* SFN is created */
 8002604:	f8db 3000 	ldr.w	r3, [fp]
	res = dir_sdi(dp, 0);			/* Rewind directory object */
 8002608:	2100      	movs	r1, #0
	dp->fn[NSFLAG] = cf;	/* SFN is created */
 800260a:	72dc      	strb	r4, [r3, #11]
	res = dir_sdi(dp, 0);			/* Rewind directory object */
 800260c:	4640      	mov	r0, r8
 800260e:	f7ff fc1b 	bl	8001e48 <dir_sdi>
	if (res != FR_OK) return res;
 8002612:	b910      	cbnz	r0, 800261a <follow_path+0x23e>
 8002614:	4640      	mov	r0, r8
 8002616:	f7ff fe35 	bl	8002284 <dir_find.part.6>
			ns = dp->fn[NSFLAG];
 800261a:	f8db 3000 	ldr.w	r3, [fp]
 800261e:	7adb      	ldrb	r3, [r3, #11]
			if (res != FR_OK) {				/* Failed to find the object */
 8002620:	2800      	cmp	r0, #0
 8002622:	d09d      	beq.n	8002560 <follow_path+0x184>
				if (res == FR_NO_FILE) {	/* Object is not found */
 8002624:	2804      	cmp	r0, #4
 8002626:	f47f af22 	bne.w	800246e <follow_path+0x92>
						if (!(ns & NS_LAST)) res = FR_NO_PATH;	/* Adjust error code if not last segment */
 800262a:	f013 0f04 	tst.w	r3, #4
 800262e:	bf08      	it	eq
 8002630:	2005      	moveq	r0, #5
 8002632:	e71c      	b.n	800246e <follow_path+0x92>
				if (IsUpper(w)) {		/* ASCII large capital */
 8002634:	f1a0 0141 	sub.w	r1, r0, #65	; 0x41
 8002638:	2919      	cmp	r1, #25
 800263a:	d98e      	bls.n	800255a <follow_path+0x17e>
					if (IsLower(w)) {	/* ASCII small capital */
 800263c:	f1a0 0161 	sub.w	r1, r0, #97	; 0x61
 8002640:	2919      	cmp	r1, #25
						b |= 1; w -= 0x20;
 8002642:	bf9e      	ittt	ls
 8002644:	3820      	subls	r0, #32
 8002646:	f045 0501 	orrls.w	r5, r5, #1
 800264a:	b280      	uxthls	r0, r0
 800264c:	e77e      	b.n	800254c <follow_path+0x170>
 800264e:	bf00      	nop
 8002650:	08005840 	.word	0x08005840
 8002654:	080057b4 	.word	0x080057b4
 8002658:	08005849 	.word	0x08005849

0800265c <dir_register>:
	fn = dp->fn; lfn = dp->lfn;
 800265c:	f241 0318 	movw	r3, #4120	; 0x1018
{
 8002660:	e92d 4ff0 	stmdb	sp!, {r4, r5, r6, r7, r8, r9, sl, fp, lr}
	fn = dp->fn; lfn = dp->lfn;
 8002664:	58c5      	ldr	r5, [r0, r3]
{
 8002666:	b08b      	sub	sp, #44	; 0x2c
	fn = dp->fn; lfn = dp->lfn;
 8002668:	f500 5781 	add.w	r7, r0, #4128	; 0x1020
{
 800266c:	4604      	mov	r4, r0
	mem_cpy(sn, fn, 12);
 800266e:	220c      	movs	r2, #12
 8002670:	4629      	mov	r1, r5
 8002672:	a807      	add	r0, sp, #28
	fn = dp->fn; lfn = dp->lfn;
 8002674:	683e      	ldr	r6, [r7, #0]
	mem_cpy(sn, fn, 12);
 8002676:	f7fe ffb7 	bl	80015e8 <mem_cpy>
	if (sn[NSFLAG] & NS_LOSS) {			/* When LFN is out of 8.3 format, generate a numbered name */
 800267a:	f89d 3027 	ldrb.w	r3, [sp, #39]	; 0x27
 800267e:	07db      	lsls	r3, r3, #31
 8002680:	d57d      	bpl.n	800277e <dir_register+0x122>
		fn[NSFLAG] = 0; dp->lfn = 0;			/* Find only SFN */
 8002682:	2300      	movs	r3, #0
		for (n = 1; n < 100; n++) {
 8002684:	f04f 0901 	mov.w	r9, #1
				if (sr & 0x10000) sr ^= 0x11021;
 8002688:	f8df 8264 	ldr.w	r8, [pc, #612]	; 80028f0 <dir_register+0x294>
		fn[NSFLAG] = 0; dp->lfn = 0;			/* Find only SFN */
 800268c:	72eb      	strb	r3, [r5, #11]
 800268e:	603b      	str	r3, [r7, #0]
	mem_cpy(dst, src, 11);
 8002690:	220b      	movs	r2, #11
 8002692:	a907      	add	r1, sp, #28
 8002694:	4628      	mov	r0, r5
 8002696:	f7fe ffa7 	bl	80015e8 <mem_cpy>
	if (seq > 5) {	/* On many collisions, generate a hash number instead of sequential number */
 800269a:	f1b9 0f05 	cmp.w	r9, #5
 800269e:	d851      	bhi.n	8002744 <dir_register+0xe8>
 80026a0:	464b      	mov	r3, r9
		while (*lfn) {	/* Create a CRC */
 80026a2:	2207      	movs	r2, #7
		c = (seq % 16) + '0';
 80026a4:	f003 000f 	and.w	r0, r3, #15
 80026a8:	f100 0130 	add.w	r1, r0, #48	; 0x30
		if (c > '9') c += 7;
 80026ac:	2939      	cmp	r1, #57	; 0x39
 80026ae:	bf88      	it	hi
 80026b0:	f100 0137 	addhi.w	r1, r0, #55	; 0x37
		ns[i--] = c;
 80026b4:	3a01      	subs	r2, #1
 80026b6:	a805      	add	r0, sp, #20
 80026b8:	4410      	add	r0, r2
	} while (seq);
 80026ba:	091b      	lsrs	r3, r3, #4
		ns[i--] = c;
 80026bc:	7041      	strb	r1, [r0, #1]
	} while (seq);
 80026be:	d1f1      	bne.n	80026a4 <dir_register+0x48>
	ns[i] = '~';
 80026c0:	207e      	movs	r0, #126	; 0x7e
 80026c2:	a90a      	add	r1, sp, #40	; 0x28
 80026c4:	4411      	add	r1, r2
 80026c6:	f801 0c14 	strb.w	r0, [r1, #-20]
	for (j = 0; j < i && dst[j] != ' '; j++) {
 80026ca:	429a      	cmp	r2, r3
 80026cc:	d03f      	beq.n	800274e <dir_register+0xf2>
 80026ce:	5ce9      	ldrb	r1, [r5, r3]
 80026d0:	2920      	cmp	r1, #32
 80026d2:	d13a      	bne.n	800274a <dir_register+0xee>
 80026d4:	442b      	add	r3, r5
		dst[j++] = (i < 8) ? ns[i++] : ' ';
 80026d6:	2a07      	cmp	r2, #7
 80026d8:	bf8f      	iteee	hi
 80026da:	2120      	movhi	r1, #32
 80026dc:	a90a      	addls	r1, sp, #40	; 0x28
 80026de:	1889      	addls	r1, r1, r2
 80026e0:	f811 1c14 	ldrbls.w	r1, [r1, #-20]
 80026e4:	bf98      	it	ls
 80026e6:	3201      	addls	r2, #1
 80026e8:	f803 1b01 	strb.w	r1, [r3], #1
	} while (j < 8);
 80026ec:	1b59      	subs	r1, r3, r5
 80026ee:	2907      	cmp	r1, #7
 80026f0:	d9f1      	bls.n	80026d6 <dir_register+0x7a>
	res = dir_sdi(dp, 0);			/* Rewind directory object */
 80026f2:	2100      	movs	r1, #0
 80026f4:	4620      	mov	r0, r4
 80026f6:	f7ff fba7 	bl	8001e48 <dir_sdi>
	if (res != FR_OK) return res;
 80026fa:	4682      	mov	sl, r0
 80026fc:	bbc0      	cbnz	r0, 8002770 <dir_register+0x114>
 80026fe:	4620      	mov	r0, r4
 8002700:	f7ff fdc0 	bl	8002284 <dir_find.part.6>
			if (res != FR_OK) break;
 8002704:	4682      	mov	sl, r0
 8002706:	bb98      	cbnz	r0, 8002770 <dir_register+0x114>
		for (n = 1; n < 100; n++) {
 8002708:	f109 0901 	add.w	r9, r9, #1
 800270c:	f1b9 0f64 	cmp.w	r9, #100	; 0x64
 8002710:	d1be      	bne.n	8002690 <dir_register+0x34>
		if (n == 100) return FR_DENIED;		/* Abort if too many collisions */
 8002712:	f04f 0a07 	mov.w	sl, #7
}
 8002716:	4650      	mov	r0, sl
 8002718:	b00b      	add	sp, #44	; 0x2c
 800271a:	e8bd 8ff0 	ldmia.w	sp!, {r4, r5, r6, r7, r8, r9, sl, fp, pc}
		while (*lfn) {	/* Create a CRC */
 800271e:	2110      	movs	r1, #16
				sr = (sr << 1) + (wc & 1);
 8002720:	f002 0e01 	and.w	lr, r2, #1
 8002724:	eb0e 0343 	add.w	r3, lr, r3, lsl #1
				if (sr & 0x10000) sr ^= 0x11021;
 8002728:	f413 3f80 	tst.w	r3, #65536	; 0x10000
 800272c:	bf18      	it	ne
 800272e:	ea83 0308 	eorne.w	r3, r3, r8
			for (i = 0; i < 16; i++) {
 8002732:	3901      	subs	r1, #1
				wc >>= 1;
 8002734:	ea4f 0252 	mov.w	r2, r2, lsr #1
			for (i = 0; i < 16; i++) {
 8002738:	d1f2      	bne.n	8002720 <dir_register+0xc4>
		while (*lfn) {	/* Create a CRC */
 800273a:	f830 2f02 	ldrh.w	r2, [r0, #2]!
 800273e:	2a00      	cmp	r2, #0
 8002740:	d1ed      	bne.n	800271e <dir_register+0xc2>
 8002742:	e7ae      	b.n	80026a2 <dir_register+0x46>
 8002744:	1eb0      	subs	r0, r6, #2
	if (seq > 5) {	/* On many collisions, generate a hash number instead of sequential number */
 8002746:	464b      	mov	r3, r9
 8002748:	e7f7      	b.n	800273a <dir_register+0xde>
	for (j = 0; j < i && dst[j] != ' '; j++) {
 800274a:	3301      	adds	r3, #1
 800274c:	e7bd      	b.n	80026ca <dir_register+0x6e>
 800274e:	4613      	mov	r3, r2
 8002750:	e7c0      	b.n	80026d4 <dir_register+0x78>
		for (n = 0; lfn[n]; n++) ;
 8002752:	3501      	adds	r5, #1
 8002754:	e018      	b.n	8002788 <dir_register+0x12c>
		nent = 1;
 8002756:	2501      	movs	r5, #1
 8002758:	e01e      	b.n	8002798 <dir_register+0x13c>
				n = 0;					/* Not a blank entry. Restart to search */
 800275a:	4681      	mov	r9, r0
			res = dir_next(dp, 1);		/* Next entry with table stretch enabled */
 800275c:	2101      	movs	r1, #1
 800275e:	4620      	mov	r0, r4
 8002760:	f7ff fce4 	bl	800212c <dir_next>
		} while (res == FR_OK);
 8002764:	4682      	mov	sl, r0
 8002766:	b328      	cbz	r0, 80027b4 <dir_register+0x158>
	if (res == FR_NO_FILE) res = FR_DENIED;	/* No directory entry to allocate */
 8002768:	f1ba 0f04 	cmp.w	sl, #4
 800276c:	d0d1      	beq.n	8002712 <dir_register+0xb6>
 800276e:	e7d2      	b.n	8002716 <dir_register+0xba>
		if (res != FR_NO_FILE) return res;	/* Abort if the result is other than 'not collided' */
 8002770:	f1ba 0f04 	cmp.w	sl, #4
 8002774:	d1cf      	bne.n	8002716 <dir_register+0xba>
		fn[NSFLAG] = sn[NSFLAG]; dp->lfn = lfn;
 8002776:	f89d 3027 	ldrb.w	r3, [sp, #39]	; 0x27
 800277a:	72eb      	strb	r3, [r5, #11]
 800277c:	603e      	str	r6, [r7, #0]
	if (sn[NSFLAG] & NS_LFN) {			/* When LFN is to be created, allocate entries for an SFN + LFNs. */
 800277e:	f89d 3027 	ldrb.w	r3, [sp, #39]	; 0x27
 8002782:	079b      	lsls	r3, r3, #30
 8002784:	d5e7      	bpl.n	8002756 <dir_register+0xfa>
 8002786:	2500      	movs	r5, #0
		for (n = 0; lfn[n]; n++) ;
 8002788:	f836 3015 	ldrh.w	r3, [r6, r5, lsl #1]
 800278c:	2b00      	cmp	r3, #0
 800278e:	d1e0      	bne.n	8002752 <dir_register+0xf6>
		nent = (n + 25) / 13;
 8002790:	230d      	movs	r3, #13
 8002792:	3519      	adds	r5, #25
 8002794:	fbb5 f5f3 	udiv	r5, r5, r3
	res = dir_sdi(dp, 0);
 8002798:	2100      	movs	r1, #0
 800279a:	4620      	mov	r0, r4
 800279c:	f7ff fb54 	bl	8001e48 <dir_sdi>
	if (res == FR_OK) {
 80027a0:	4682      	mov	sl, r0
 80027a2:	2800      	cmp	r0, #0
 80027a4:	d1e0      	bne.n	8002768 <dir_register+0x10c>
 80027a6:	4681      	mov	r9, r0
			res = move_window(dp->fs, dp->sect);
 80027a8:	f504 5880 	add.w	r8, r4, #4096	; 0x1000
 80027ac:	f108 0810 	add.w	r8, r8, #16
 80027b0:	f504 5680 	add.w	r6, r4, #4096	; 0x1000
 80027b4:	f8d8 1000 	ldr.w	r1, [r8]
 80027b8:	6830      	ldr	r0, [r6, #0]
 80027ba:	f7ff f8dc 	bl	8001976 <move_window>
			if (res != FR_OK) break;
 80027be:	4682      	mov	sl, r0
 80027c0:	2800      	cmp	r0, #0
 80027c2:	d1d1      	bne.n	8002768 <dir_register+0x10c>
			if (dp->dir[0] == DDEM || dp->dir[0] == 0) {	/* Is it a free entry? */
 80027c4:	f241 0314 	movw	r3, #4116	; 0x1014
 80027c8:	18e2      	adds	r2, r4, r3
 80027ca:	58e3      	ldr	r3, [r4, r3]
 80027cc:	9203      	str	r2, [sp, #12]
 80027ce:	781b      	ldrb	r3, [r3, #0]
 80027d0:	2be5      	cmp	r3, #229	; 0xe5
 80027d2:	d001      	beq.n	80027d8 <dir_register+0x17c>
 80027d4:	2b00      	cmp	r3, #0
 80027d6:	d1c0      	bne.n	800275a <dir_register+0xfe>
				if (++n == nent) break;	/* A block of contiguous free entries is found */
 80027d8:	f109 0901 	add.w	r9, r9, #1
 80027dc:	454d      	cmp	r5, r9
 80027de:	d1bd      	bne.n	800275c <dir_register+0x100>
	if (res == FR_OK && --nent) {	/* Set LFN entry if needed */
 80027e0:	3d01      	subs	r5, #1
 80027e2:	d05f      	beq.n	80028a4 <dir_register+0x248>
		res = dir_sdi(dp, dp->index - nent);
 80027e4:	f241 0306 	movw	r3, #4102	; 0x1006
 80027e8:	5ae1      	ldrh	r1, [r4, r3]
 80027ea:	4620      	mov	r0, r4
 80027ec:	1b49      	subs	r1, r1, r5
 80027ee:	f7ff fb2b 	bl	8001e48 <dir_sdi>
		if (res == FR_OK) {
 80027f2:	4682      	mov	sl, r0
 80027f4:	2800      	cmp	r0, #0
 80027f6:	d18e      	bne.n	8002716 <dir_register+0xba>
			sum = sum_sfn(dp->fn);	/* Sum value of the SFN tied to the LFN */
 80027f8:	f241 0318 	movw	r3, #4120	; 0x1018
 80027fc:	58e0      	ldr	r0, [r4, r3]
 80027fe:	f7fe ffc8 	bl	8001792 <sum_sfn>
		if (wc != 0xFFFF) wc = lfnbuf[i++];	/* Get an effective character */
 8002802:	f64f 79ff 	movw	r9, #65535	; 0xffff
			sum = sum_sfn(dp->fn);	/* Sum value of the SFN tied to the LFN */
 8002806:	9002      	str	r0, [sp, #8]
				res = move_window(dp->fs, dp->sect);
 8002808:	f8d8 1000 	ldr.w	r1, [r8]
 800280c:	6830      	ldr	r0, [r6, #0]
 800280e:	f7ff f8b2 	bl	8001976 <move_window>
 8002812:	4682      	mov	sl, r0
				if (res != FR_OK) break;
 8002814:	2800      	cmp	r0, #0
 8002816:	f47f af7e 	bne.w	8002716 <dir_register+0xba>
				fit_lfn(dp->lfn, dp->dir, (BYTE)nent, sum);
 800281a:	9b03      	ldr	r3, [sp, #12]
	dir[LDIR_Chksum] = sum;			/* Set check sum */
 800281c:	f89d 2008 	ldrb.w	r2, [sp, #8]
				fit_lfn(dp->lfn, dp->dir, (BYTE)nent, sum);
 8002820:	681b      	ldr	r3, [r3, #0]
 8002822:	f8d7 a000 	ldr.w	sl, [r7]
	dir[LDIR_Chksum] = sum;			/* Set check sum */
 8002826:	735a      	strb	r2, [r3, #13]
	dir[LDIR_Attr] = AM_LFN;		/* Set attribute. LFN entry */
 8002828:	220f      	movs	r2, #15
	i = (ord - 1) * 13;				/* Get offset in the LFN buffer */
 800282a:	f04f 0e0d 	mov.w	lr, #13
				fit_lfn(dp->lfn, dp->dir, (BYTE)nent, sum);
 800282e:	b2e9      	uxtb	r1, r5
	dir[LDIR_Attr] = AM_LFN;		/* Set attribute. LFN entry */
 8002830:	72da      	strb	r2, [r3, #11]
	i = (ord - 1) * 13;				/* Get offset in the LFN buffer */
 8002832:	1e4a      	subs	r2, r1, #1
 8002834:	fb0e f202 	mul.w	r2, lr, r2
	s = wc = 0;
 8002838:	4686      	mov	lr, r0
	dir[LDIR_Type] = 0;
 800283a:	7318      	strb	r0, [r3, #12]
	ST_WORD(dir + LDIR_FstClusLO, 0);
 800283c:	7698      	strb	r0, [r3, #26]
 800283e:	76d8      	strb	r0, [r3, #27]
	i = (ord - 1) * 13;				/* Get offset in the LFN buffer */
 8002840:	9201      	str	r2, [sp, #4]
		if (wc != 0xFFFF) wc = lfnbuf[i++];	/* Get an effective character */
 8002842:	4548      	cmp	r0, r9
 8002844:	bf1f      	itttt	ne
 8002846:	9a01      	ldrne	r2, [sp, #4]
 8002848:	f83a 0012 	ldrhne.w	r0, [sl, r2, lsl #1]
 800284c:	3201      	addne	r2, #1
 800284e:	9201      	strne	r2, [sp, #4]
		ST_WORD(dir+LfnOfs[s], wc);	/* Put it */
 8002850:	4a26      	ldr	r2, [pc, #152]	; (80028ec <dir_register+0x290>)
 8002852:	ea4f 2b10 	mov.w	fp, r0, lsr #8
 8002856:	f81e c002 	ldrb.w	ip, [lr, r2]
	} while (++s < 13);
 800285a:	f10e 0e01 	add.w	lr, lr, #1
		ST_WORD(dir+LfnOfs[s], wc);	/* Put it */
 800285e:	f803 000c 	strb.w	r0, [r3, ip]
 8002862:	449c      	add	ip, r3
		if (!wc) wc = 0xFFFF;		/* Padding characters following last character */
 8002864:	2800      	cmp	r0, #0
 8002866:	bf08      	it	eq
 8002868:	4648      	moveq	r0, r9
	} while (++s < 13);
 800286a:	f1be 0f0d 	cmp.w	lr, #13
		ST_WORD(dir+LfnOfs[s], wc);	/* Put it */
 800286e:	f88c b001 	strb.w	fp, [ip, #1]
	} while (++s < 13);
 8002872:	d1e6      	bne.n	8002842 <dir_register+0x1e6>
	if (wc == 0xFFFF || !lfnbuf[i]) ord |= LLEF;	/* Bottom LFN part is the start of LFN sequence */
 8002874:	4548      	cmp	r0, r9
 8002876:	d003      	beq.n	8002880 <dir_register+0x224>
 8002878:	9a01      	ldr	r2, [sp, #4]
 800287a:	f83a 2012 	ldrh.w	r2, [sl, r2, lsl #1]
 800287e:	b90a      	cbnz	r2, 8002884 <dir_register+0x228>
 8002880:	f041 0140 	orr.w	r1, r1, #64	; 0x40
	dir[LDIR_Ord] = ord;			/* Set the LFN order */
 8002884:	7019      	strb	r1, [r3, #0]
				dp->fs->wflag = 1;
 8002886:	2101      	movs	r1, #1
 8002888:	f241 0304 	movw	r3, #4100	; 0x1004
 800288c:	6832      	ldr	r2, [r6, #0]
				res = dir_next(dp, 0);	/* Next entry */
 800288e:	4620      	mov	r0, r4
				dp->fs->wflag = 1;
 8002890:	54d1      	strb	r1, [r2, r3]
				res = dir_next(dp, 0);	/* Next entry */
 8002892:	2100      	movs	r1, #0
 8002894:	f7ff fc4a 	bl	800212c <dir_next>
			} while (res == FR_OK && --nent);
 8002898:	4682      	mov	sl, r0
 800289a:	2800      	cmp	r0, #0
 800289c:	f47f af3b 	bne.w	8002716 <dir_register+0xba>
 80028a0:	3d01      	subs	r5, #1
 80028a2:	d1b1      	bne.n	8002808 <dir_register+0x1ac>
		res = move_window(dp->fs, dp->sect);
 80028a4:	f241 0310 	movw	r3, #4112	; 0x1010
 80028a8:	6830      	ldr	r0, [r6, #0]
 80028aa:	58e1      	ldr	r1, [r4, r3]
 80028ac:	f7ff f863 	bl	8001976 <move_window>
		if (res == FR_OK) {
 80028b0:	4682      	mov	sl, r0
 80028b2:	2800      	cmp	r0, #0
 80028b4:	f47f af2f 	bne.w	8002716 <dir_register+0xba>
			mem_set(dp->dir, 0, SZ_DIRE);	/* Clean the entry */
 80028b8:	f241 0514 	movw	r5, #4116	; 0x1014
			mem_cpy(dp->dir, dp->fn, 11);	/* Put SFN */
 80028bc:	f241 0718 	movw	r7, #4120	; 0x1018
			mem_set(dp->dir, 0, SZ_DIRE);	/* Clean the entry */
 80028c0:	2220      	movs	r2, #32
 80028c2:	4651      	mov	r1, sl
 80028c4:	5960      	ldr	r0, [r4, r5]
 80028c6:	f7fe fe99 	bl	80015fc <mem_set>
			mem_cpy(dp->dir, dp->fn, 11);	/* Put SFN */
 80028ca:	220b      	movs	r2, #11
 80028cc:	59e1      	ldr	r1, [r4, r7]
 80028ce:	5960      	ldr	r0, [r4, r5]
 80028d0:	f7fe fe8a 	bl	80015e8 <mem_cpy>
			dp->dir[DIR_NTres] = dp->fn[NSFLAG] & (NS_BODY | NS_EXT);	/* Put NT flag */
 80028d4:	59e3      	ldr	r3, [r4, r7]
 80028d6:	5962      	ldr	r2, [r4, r5]
 80028d8:	7adb      	ldrb	r3, [r3, #11]
			dp->fs->wflag = 1;
 80028da:	2101      	movs	r1, #1
			dp->dir[DIR_NTres] = dp->fn[NSFLAG] & (NS_BODY | NS_EXT);	/* Put NT flag */
 80028dc:	f003 0318 	and.w	r3, r3, #24
 80028e0:	7313      	strb	r3, [r2, #12]
			dp->fs->wflag = 1;
 80028e2:	f241 0304 	movw	r3, #4100	; 0x1004
 80028e6:	6832      	ldr	r2, [r6, #0]
 80028e8:	54d1      	strb	r1, [r2, r3]
 80028ea:	e714      	b.n	8002716 <dir_register+0xba>
 80028ec:	08005834 	.word	0x08005834
 80028f0:	00011021 	.word	0x00011021

080028f4 <remove_chain>:
	if (clst < 2 || clst >= fs->n_fatent) {	/* Check range */
 80028f4:	2901      	cmp	r1, #1
{
 80028f6:	e92d 41f0 	stmdb	sp!, {r4, r5, r6, r7, r8, lr}
 80028fa:	4604      	mov	r4, r0
 80028fc:	460d      	mov	r5, r1
	if (clst < 2 || clst >= fs->n_fatent) {	/* Check range */
 80028fe:	d802      	bhi.n	8002906 <remove_chain+0x12>
		res = FR_INT_ERR;
 8002900:	2002      	movs	r0, #2
 8002902:	e8bd 81f0 	ldmia.w	sp!, {r4, r5, r6, r7, r8, pc}
	if (clst < 2 || clst >= fs->n_fatent) {	/* Check range */
 8002906:	f241 0614 	movw	r6, #4116	; 0x1014
 800290a:	5983      	ldr	r3, [r0, r6]
 800290c:	4299      	cmp	r1, r3
 800290e:	d2f7      	bcs.n	8002900 <remove_chain+0xc>
			if (fs->free_clust != 0xFFFFFFFF) {	/* Update FSINFO */
 8002910:	f500 5780 	add.w	r7, r0, #4096	; 0x1000
		while (clst < fs->n_fatent) {			/* Not a last link? */
 8002914:	4406      	add	r6, r0
			if (fs->free_clust != 0xFFFFFFFF) {	/* Update FSINFO */
 8002916:	3710      	adds	r7, #16
		while (clst < fs->n_fatent) {			/* Not a last link? */
 8002918:	6833      	ldr	r3, [r6, #0]
 800291a:	429d      	cmp	r5, r3
 800291c:	d205      	bcs.n	800292a <remove_chain+0x36>
			nxt = get_fat(fs, clst);			/* Get cluster status */
 800291e:	4629      	mov	r1, r5
 8002920:	4620      	mov	r0, r4
 8002922:	f7ff fa05 	bl	8001d30 <get_fat>
			if (nxt == 0) break;				/* Empty cluster? */
 8002926:	4680      	mov	r8, r0
 8002928:	b910      	cbnz	r0, 8002930 <remove_chain+0x3c>
		res = FR_INT_ERR;
 800292a:	2000      	movs	r0, #0
 800292c:	e8bd 81f0 	ldmia.w	sp!, {r4, r5, r6, r7, r8, pc}
			if (nxt == 1) { res = FR_INT_ERR; break; }	/* Internal error? */
 8002930:	2801      	cmp	r0, #1
 8002932:	d0e5      	beq.n	8002900 <remove_chain+0xc>
			if (nxt == 0xFFFFFFFF) { res = FR_DISK_ERR; break; }	/* Disk error? */
 8002934:	f1b0 3fff 	cmp.w	r0, #4294967295
 8002938:	d012      	beq.n	8002960 <remove_chain+0x6c>
			res = put_fat(fs, clst, 0);			/* Mark the cluster "empty" */
 800293a:	2200      	movs	r2, #0
 800293c:	4629      	mov	r1, r5
 800293e:	4620      	mov	r0, r4
 8002940:	f7ff faee 	bl	8001f20 <put_fat>
			if (res != FR_OK) break;
 8002944:	b968      	cbnz	r0, 8002962 <remove_chain+0x6e>
			if (fs->free_clust != 0xFFFFFFFF) {	/* Update FSINFO */
 8002946:	683b      	ldr	r3, [r7, #0]
 8002948:	1c5a      	adds	r2, r3, #1
 800294a:	d007      	beq.n	800295c <remove_chain+0x68>
				fs->fsi_flag |= 1;
 800294c:	f241 0205 	movw	r2, #4101	; 0x1005
				fs->free_clust++;
 8002950:	3301      	adds	r3, #1
 8002952:	603b      	str	r3, [r7, #0]
				fs->fsi_flag |= 1;
 8002954:	5ca3      	ldrb	r3, [r4, r2]
 8002956:	f043 0301 	orr.w	r3, r3, #1
 800295a:	54a3      	strb	r3, [r4, r2]
{
 800295c:	4645      	mov	r5, r8
 800295e:	e7db      	b.n	8002918 <remove_chain+0x24>
			if (nxt == 0xFFFFFFFF) { res = FR_DISK_ERR; break; }	/* Disk error? */
 8002960:	2001      	movs	r0, #1
}
 8002962:	e8bd 81f0 	ldmia.w	sp!, {r4, r5, r6, r7, r8, pc}
	...

08002968 <f_mount>:
FRESULT f_mount (
	FATFS* fs,			/* Pointer to the file system object (NULL:unmount)*/
	const TCHAR* path,	/* Logical drive number to be mounted/unmounted */
	BYTE opt			/* 0:Do not mount (delayed mount), 1:Mount immediately */
)
{
 8002968:	b57f      	push	{r0, r1, r2, r3, r4, r5, r6, lr}
 800296a:	9001      	str	r0, [sp, #4]
	FATFS *cfs;
	int vol;
	FRESULT res;
	const TCHAR *rp = path;
 800296c:	a804      	add	r0, sp, #16
 800296e:	f840 1d04 	str.w	r1, [r0, #-4]!
{
 8002972:	9100      	str	r1, [sp, #0]
 8002974:	4615      	mov	r5, r2


	vol = get_ldnumber(&rp);
 8002976:	f7fe ff1b 	bl	80017b0 <get_ldnumber>
	if (vol < 0) return FR_INVALID_DRIVE;
 800297a:	1e06      	subs	r6, r0, #0
 800297c:	db23      	blt.n	80029c6 <f_mount+0x5e>
	cfs = FatFs[vol];					/* Pointer to fs object */
 800297e:	4a14      	ldr	r2, [pc, #80]	; (80029d0 <f_mount+0x68>)
 8002980:	f852 3026 	ldr.w	r3, [r2, r6, lsl #2]

	if (cfs) {
 8002984:	b16b      	cbz	r3, 80029a2 <f_mount+0x3a>
		if (Files[i].fs == fs) Files[i].fs = 0;
 8002986:	4913      	ldr	r1, [pc, #76]	; (80029d4 <f_mount+0x6c>)
 8002988:	2400      	movs	r4, #0
 800298a:	6808      	ldr	r0, [r1, #0]
 800298c:	4283      	cmp	r3, r0
 800298e:	bf04      	itt	eq
 8002990:	2000      	moveq	r0, #0
 8002992:	6008      	streq	r0, [r1, #0]
 8002994:	68c8      	ldr	r0, [r1, #12]
 8002996:	4283      	cmp	r3, r0
		clear_lock(cfs);
#endif
#if _FS_REENTRANT						/* Discard sync object of the current volume */
		if (!ff_del_syncobj(cfs->sobj)) return FR_INT_ERR;
#endif
		cfs->fs_type = 0;				/* Clear old fs object */
 8002998:	f503 5380 	add.w	r3, r3, #4096	; 0x1000
		if (Files[i].fs == fs) Files[i].fs = 0;
 800299c:	bf08      	it	eq
 800299e:	60cc      	streq	r4, [r1, #12]
		cfs->fs_type = 0;				/* Clear old fs object */
 80029a0:	701c      	strb	r4, [r3, #0]
	}

	if (fs) {
 80029a2:	9801      	ldr	r0, [sp, #4]
 80029a4:	b118      	cbz	r0, 80029ae <f_mount+0x46>
		fs->fs_type = 0;				/* Clear new fs object */
 80029a6:	2100      	movs	r1, #0
 80029a8:	f500 5380 	add.w	r3, r0, #4096	; 0x1000
 80029ac:	7019      	strb	r1, [r3, #0]
#if _FS_REENTRANT						/* Create sync object for the new volume */
		if (!ff_cre_syncobj((BYTE)vol, &fs->sobj)) return FR_INT_ERR;
#endif
	}
	FatFs[vol] = fs;					/* Register new fs object */
 80029ae:	f842 0026 	str.w	r0, [r2, r6, lsl #2]

	if (!fs || opt != 1) return FR_OK;	/* Do not mount now, it will be mounted later */
 80029b2:	b130      	cbz	r0, 80029c2 <f_mount+0x5a>
 80029b4:	2d01      	cmp	r5, #1
 80029b6:	d108      	bne.n	80029ca <f_mount+0x62>

	res = find_volume(&fs, &path, 0);	/* Force mounted the volume */
 80029b8:	2200      	movs	r2, #0
 80029ba:	4669      	mov	r1, sp
 80029bc:	a801      	add	r0, sp, #4
 80029be:	f7ff f827 	bl	8001a10 <find_volume>
	LEAVE_FF(fs, res);
}
 80029c2:	b004      	add	sp, #16
 80029c4:	bd70      	pop	{r4, r5, r6, pc}
	if (vol < 0) return FR_INVALID_DRIVE;
 80029c6:	200b      	movs	r0, #11
 80029c8:	e7fb      	b.n	80029c2 <f_mount+0x5a>
	if (!fs || opt != 1) return FR_OK;	/* Do not mount now, it will be mounted later */
 80029ca:	2000      	movs	r0, #0
 80029cc:	e7f9      	b.n	80029c2 <f_mount+0x5a>
 80029ce:	bf00      	nop
 80029d0:	200000a4 	.word	0x200000a4
 80029d4:	200000a8 	.word	0x200000a8

080029d8 <f_open>:
FRESULT f_open (
	FIL* fp,			/* Pointer to the blank file object */
	const TCHAR* path,	/* Pointer to the file name */
	BYTE mode			/* Access mode and file open mode flags */
)
{
 80029d8:	e92d 4ff0 	stmdb	sp!, {r4, r5, r6, r7, r8, r9, sl, fp, lr}
 80029dc:	f5ad 5d82 	sub.w	sp, sp, #4160	; 0x1040
 80029e0:	b081      	sub	sp, #4
 80029e2:	f10d 0920 	add.w	r9, sp, #32
 80029e6:	f849 1c1c 	str.w	r1, [r9, #-28]
 80029ea:	4693      	mov	fp, r2
#if !_FS_READONLY
	DWORD dw, cl;
#endif


	if (!fp) return FR_INVALID_OBJECT;
 80029ec:	4606      	mov	r6, r0
 80029ee:	2800      	cmp	r0, #0
 80029f0:	f000 80d0 	beq.w	8002b94 <f_open+0x1bc>
	fp->fs = 0;			/* Clear file object */
 80029f4:	2300      	movs	r3, #0
 80029f6:	f500 5a80 	add.w	sl, r0, #4096	; 0x1000

	/* Get logical drive number */
#if !_FS_READONLY
	mode &= FA_READ | FA_WRITE | FA_CREATE_ALWAYS | FA_OPEN_ALWAYS | FA_CREATE_NEW;
	res = find_volume(&dj.fs, &path, (BYTE)(mode & ~FA_READ));
 80029fa:	f50d 5080 	add.w	r0, sp, #4096	; 0x1000
	fp->fs = 0;			/* Clear file object */
 80029fe:	f8ca 3000 	str.w	r3, [sl]
	res = find_volume(&dj.fs, &path, (BYTE)(mode & ~FA_READ));
 8002a02:	f002 021e 	and.w	r2, r2, #30
 8002a06:	a901      	add	r1, sp, #4
 8002a08:	3018      	adds	r0, #24
 8002a0a:	f7ff f801 	bl	8001a10 <find_volume>
 8002a0e:	f1a9 0808 	sub.w	r8, r9, #8
#else
	mode &= FA_READ;
	res = find_volume(&dj.fs, &path, 0);
#endif
	if (res == FR_OK) {
 8002a12:	4605      	mov	r5, r0
 8002a14:	2800      	cmp	r0, #0
 8002a16:	f040 80b7 	bne.w	8002b88 <f_open+0x1b0>
		INIT_BUF(dj);
 8002a1a:	f241 0318 	movw	r3, #4120	; 0x1018
 8002a1e:	f1a9 0214 	sub.w	r2, r9, #20
 8002a22:	f848 2003 	str.w	r2, [r8, r3]
 8002a26:	4a75      	ldr	r2, [pc, #468]	; (8002bfc <f_open+0x224>)
 8002a28:	f508 5381 	add.w	r3, r8, #4128	; 0x1020
		res = follow_path(&dj, path);	/* Follow the file path */
 8002a2c:	9901      	ldr	r1, [sp, #4]
 8002a2e:	4640      	mov	r0, r8
		INIT_BUF(dj);
 8002a30:	601a      	str	r2, [r3, #0]
		res = follow_path(&dj, path);	/* Follow the file path */
 8002a32:	f7ff fcd3 	bl	80023dc <follow_path>
		dir = dj.dir;
 8002a36:	f241 0314 	movw	r3, #4116	; 0x1014
	mode &= FA_READ | FA_WRITE | FA_CREATE_ALWAYS | FA_OPEN_ALWAYS | FA_CREATE_NEW;
 8002a3a:	f00b 071f 	and.w	r7, fp, #31
		dir = dj.dir;
 8002a3e:	f858 4003 	ldr.w	r4, [r8, r3]
#if !_FS_READONLY	/* R/W configuration */
		if (res == FR_OK) {
 8002a42:	b948      	cbnz	r0, 8002a58 <f_open+0x80>
			if (!dir)	/* Default directory itself */
 8002a44:	2c00      	cmp	r4, #0
 8002a46:	d06b      	beq.n	8002b20 <f_open+0x148>
				res = FR_INVALID_NAME;
#if _FS_LOCK
			else
				res = chk_lock(&dj, (mode & ~FA_READ) ? 1 : 0);
 8002a48:	f017 0f1e 	tst.w	r7, #30
 8002a4c:	bf14      	ite	ne
 8002a4e:	2101      	movne	r1, #1
 8002a50:	2100      	moveq	r1, #0
 8002a52:	4640      	mov	r0, r8
 8002a54:	f7fe fdda 	bl	800160c <chk_lock>
#endif
		}
		/* Create or Open a file */
		if (mode & (FA_CREATE_ALWAYS | FA_OPEN_ALWAYS | FA_CREATE_NEW)) {
 8002a58:	f01b 0f1c 	tst.w	fp, #28
 8002a5c:	d06b      	beq.n	8002b36 <f_open+0x15e>
			if (res != FR_OK) {					/* No file, create new */
 8002a5e:	2800      	cmp	r0, #0
 8002a60:	d060      	beq.n	8002b24 <f_open+0x14c>
				if (res == FR_NO_FILE)			/* There is no file to open, create a new entry */
 8002a62:	2804      	cmp	r0, #4
 8002a64:	d15a      	bne.n	8002b1c <f_open+0x144>
	for (i = 0; i < _FS_LOCK && Files[i].fs; i++) ;
 8002a66:	4b66      	ldr	r3, [pc, #408]	; (8002c00 <f_open+0x228>)
 8002a68:	681a      	ldr	r2, [r3, #0]
 8002a6a:	b11a      	cbz	r2, 8002a74 <f_open+0x9c>
 8002a6c:	68db      	ldr	r3, [r3, #12]
 8002a6e:	2b00      	cmp	r3, #0
 8002a70:	f040 80c1 	bne.w	8002bf6 <f_open+0x21e>
#if _FS_LOCK
					res = enq_lock() ? dir_register(&dj) : FR_TOO_MANY_OPEN_FILES;
 8002a74:	4640      	mov	r0, r8
 8002a76:	f7ff fdf1 	bl	800265c <dir_register>
				} else {
					if (mode & FA_CREATE_NEW)	/* Cannot create as new file */
						res = FR_EXIST;
				}
			}
			if (res == FR_OK && (mode & FA_CREATE_ALWAYS)) {	/* Truncate it if overwrite mode */
 8002a7a:	2800      	cmp	r0, #0
 8002a7c:	d14e      	bne.n	8002b1c <f_open+0x144>
				dir = dj.dir;					/* New entry */
 8002a7e:	f241 0314 	movw	r3, #4116	; 0x1014
 8002a82:	f858 4003 	ldr.w	r4, [r8, r3]
				mode |= FA_CREATE_ALWAYS;		/* File is created */
 8002a86:	f047 0708 	orr.w	r7, r7, #8
			if (res == FR_OK && (mode & FA_CREATE_ALWAYS)) {	/* Truncate it if overwrite mode */
 8002a8a:	073b      	lsls	r3, r7, #28
 8002a8c:	d55d      	bpl.n	8002b4a <f_open+0x172>
				dw = GET_FATTIME();				/* Created time */
 8002a8e:	f000 fa95 	bl	8002fbc <get_fattime>
				ST_DWORD(dir + DIR_CrtTime, dw);
				dir[DIR_Attr] = 0;				/* Reset attribute */
 8002a92:	f04f 0b00 	mov.w	fp, #0
				ST_DWORD(dir + DIR_CrtTime, dw);
 8002a96:	f3c0 2307 	ubfx	r3, r0, #8, #8
 8002a9a:	73e3      	strb	r3, [r4, #15]
 8002a9c:	0c03      	lsrs	r3, r0, #16
 8002a9e:	73a0      	strb	r0, [r4, #14]
 8002aa0:	7423      	strb	r3, [r4, #16]
 8002aa2:	0e00      	lsrs	r0, r0, #24
				ST_DWORD(dir + DIR_FileSize, 0);/* size = 0 */
				cl = ld_clust(dj.fs, dir);		/* Get start cluster */
 8002aa4:	f50d 5380 	add.w	r3, sp, #4096	; 0x1000
				dir[DIR_Attr] = 0;				/* Reset attribute */
 8002aa8:	f884 b00b 	strb.w	fp, [r4, #11]
				ST_DWORD(dir + DIR_FileSize, 0);/* size = 0 */
 8002aac:	f884 b01c 	strb.w	fp, [r4, #28]
 8002ab0:	f884 b01d 	strb.w	fp, [r4, #29]
 8002ab4:	f884 b01e 	strb.w	fp, [r4, #30]
 8002ab8:	f884 b01f 	strb.w	fp, [r4, #31]
				ST_DWORD(dir + DIR_CrtTime, dw);
 8002abc:	7460      	strb	r0, [r4, #17]
				cl = ld_clust(dj.fs, dir);		/* Get start cluster */
 8002abe:	3318      	adds	r3, #24
 8002ac0:	681b      	ldr	r3, [r3, #0]
 8002ac2:	4621      	mov	r1, r4
 8002ac4:	f503 5380 	add.w	r3, r3, #4096	; 0x1000
 8002ac8:	7818      	ldrb	r0, [r3, #0]
 8002aca:	f7fe fea5 	bl	8001818 <ld_clust.isra.0>
				st_clust(dir, 0);				/* cluster = 0 */
				dj.fs->wflag = 1;
 8002ace:	2101      	movs	r1, #1
 8002ad0:	f241 0204 	movw	r2, #4100	; 0x1004
 8002ad4:	f50d 5380 	add.w	r3, sp, #4096	; 0x1000
	ST_WORD(dir + DIR_FstClusLO, cl);
 8002ad8:	f884 b01a 	strb.w	fp, [r4, #26]
 8002adc:	f884 b01b 	strb.w	fp, [r4, #27]
	ST_WORD(dir + DIR_FstClusHI, cl >> 16);
 8002ae0:	f884 b014 	strb.w	fp, [r4, #20]
 8002ae4:	f884 b015 	strb.w	fp, [r4, #21]
				dj.fs->wflag = 1;
 8002ae8:	3318      	adds	r3, #24
 8002aea:	681b      	ldr	r3, [r3, #0]
				if (cl) {						/* Remove the cluster chain if exist */
 8002aec:	4683      	mov	fp, r0
				dj.fs->wflag = 1;
 8002aee:	5499      	strb	r1, [r3, r2]
				if (cl) {						/* Remove the cluster chain if exist */
 8002af0:	b358      	cbz	r0, 8002b4a <f_open+0x172>
					dw = dj.fs->winsect;
 8002af2:	f241 022c 	movw	r2, #4140	; 0x102c
 8002af6:	589a      	ldr	r2, [r3, r2]
					res = remove_chain(dj.fs, cl);
 8002af8:	4601      	mov	r1, r0
 8002afa:	4618      	mov	r0, r3
					dw = dj.fs->winsect;
 8002afc:	9200      	str	r2, [sp, #0]
					res = remove_chain(dj.fs, cl);
 8002afe:	f7ff fef9 	bl	80028f4 <remove_chain>
					if (res == FR_OK) {
 8002b02:	9a00      	ldr	r2, [sp, #0]
 8002b04:	b950      	cbnz	r0, 8002b1c <f_open+0x144>
						dj.fs->last_clust = cl - 1;	/* Reuse the cluster hole */
 8002b06:	f241 010c 	movw	r1, #4108	; 0x100c
 8002b0a:	f8d9 0ff8 	ldr.w	r0, [r9, #4088]	; 0xff8
 8002b0e:	f10b 33ff 	add.w	r3, fp, #4294967295
 8002b12:	5043      	str	r3, [r0, r1]
						res = move_window(dj.fs, dw);
 8002b14:	4611      	mov	r1, r2
 8002b16:	f7fe ff2e 	bl	8001976 <move_window>
					if ((mode & FA_WRITE) && (dir[DIR_Attr] & AM_RDO)) /* R/O violation */
						res = FR_DENIED;
				}
			}
		}
		if (res == FR_OK) {
 8002b1a:	b1b0      	cbz	r0, 8002b4a <f_open+0x172>
					res = FR_DENIED;
 8002b1c:	4605      	mov	r5, r0
 8002b1e:	e033      	b.n	8002b88 <f_open+0x1b0>
				res = FR_INVALID_NAME;
 8002b20:	2006      	movs	r0, #6
 8002b22:	e799      	b.n	8002a58 <f_open+0x80>
				if (dir[DIR_Attr] & (AM_RDO | AM_DIR)) {	/* Cannot overwrite it (R/O or DIR) */
 8002b24:	7ae3      	ldrb	r3, [r4, #11]
 8002b26:	f013 0f11 	tst.w	r3, #17
 8002b2a:	d137      	bne.n	8002b9c <f_open+0x1c4>
					if (mode & FA_CREATE_NEW)	/* Cannot create as new file */
 8002b2c:	f01b 0f04 	tst.w	fp, #4
 8002b30:	d0ab      	beq.n	8002a8a <f_open+0xb2>
						res = FR_EXIST;
 8002b32:	2508      	movs	r5, #8
 8002b34:	e028      	b.n	8002b88 <f_open+0x1b0>
			if (res == FR_OK) {					/* Follow succeeded */
 8002b36:	2800      	cmp	r0, #0
 8002b38:	d1f0      	bne.n	8002b1c <f_open+0x144>
				if (dir[DIR_Attr] & AM_DIR) {	/* It is a directory */
 8002b3a:	7ae3      	ldrb	r3, [r4, #11]
 8002b3c:	06d8      	lsls	r0, r3, #27
 8002b3e:	d42b      	bmi.n	8002b98 <f_open+0x1c0>
					if ((mode & FA_WRITE) && (dir[DIR_Attr] & AM_RDO)) /* R/O violation */
 8002b40:	f01b 0f02 	tst.w	fp, #2
 8002b44:	d001      	beq.n	8002b4a <f_open+0x172>
 8002b46:	07da      	lsls	r2, r3, #31
 8002b48:	d428      	bmi.n	8002b9c <f_open+0x1c4>
			if (mode & FA_CREATE_ALWAYS)		/* Set file change flag if created or overwritten */
 8002b4a:	073b      	lsls	r3, r7, #28
				mode |= FA__WRITTEN;
			fp->dir_sect = dj.fs->winsect;		/* Pointer to the directory entry */
 8002b4c:	f241 032c 	movw	r3, #4140	; 0x102c
 8002b50:	f50d 5280 	add.w	r2, sp, #4096	; 0x1000
 8002b54:	f102 0218 	add.w	r2, r2, #24
 8002b58:	6812      	ldr	r2, [r2, #0]
				mode |= FA__WRITTEN;
 8002b5a:	bf48      	it	mi
 8002b5c:	f047 0720 	orrmi.w	r7, r7, #32
			fp->dir_sect = dj.fs->winsect;		/* Pointer to the directory entry */
 8002b60:	58d2      	ldr	r2, [r2, r3]
 8002b62:	f241 031c 	movw	r3, #4124	; 0x101c
			fp->dir_ptr = dir;
#if _FS_LOCK
			fp->lockid = inc_lock(&dj, (mode & ~FA_READ) ? 1 : 0);
 8002b66:	f017 0ffe 	tst.w	r7, #254	; 0xfe
			fp->dir_sect = dj.fs->winsect;		/* Pointer to the directory entry */
 8002b6a:	50f2      	str	r2, [r6, r3]
			fp->dir_ptr = dir;
 8002b6c:	f506 5381 	add.w	r3, r6, #4128	; 0x1020
 8002b70:	601c      	str	r4, [r3, #0]
			fp->lockid = inc_lock(&dj, (mode & ~FA_READ) ? 1 : 0);
 8002b72:	bf14      	ite	ne
 8002b74:	2101      	movne	r1, #1
 8002b76:	2100      	moveq	r1, #0
 8002b78:	4640      	mov	r0, r8
 8002b7a:	f7fe fd7d 	bl	8001678 <inc_lock>
 8002b7e:	f241 0328 	movw	r3, #4136	; 0x1028
 8002b82:	50f0      	str	r0, [r6, r3]
			if (!fp->lockid) res = FR_INT_ERR;
 8002b84:	b960      	cbnz	r0, 8002ba0 <f_open+0x1c8>
 8002b86:	2502      	movs	r5, #2
			fp->id = fp->fs->id;
		}
	}

	LEAVE_FF(dj.fs, res);
}
 8002b88:	4628      	mov	r0, r5
 8002b8a:	f50d 5d82 	add.w	sp, sp, #4160	; 0x1040
 8002b8e:	b001      	add	sp, #4
 8002b90:	e8bd 8ff0 	ldmia.w	sp!, {r4, r5, r6, r7, r8, r9, sl, fp, pc}
	if (!fp) return FR_INVALID_OBJECT;
 8002b94:	2509      	movs	r5, #9
 8002b96:	e7f7      	b.n	8002b88 <f_open+0x1b0>
					res = FR_NO_FILE;
 8002b98:	2504      	movs	r5, #4
 8002b9a:	e7f5      	b.n	8002b88 <f_open+0x1b0>
					res = FR_DENIED;
 8002b9c:	2507      	movs	r5, #7
 8002b9e:	e7f3      	b.n	8002b88 <f_open+0x1b0>
			fp->flag = mode;					/* File access mode */
 8002ba0:	f241 0906 	movw	r9, #4102	; 0x1006
			fp->err = 0;						/* Clear error flag */
 8002ba4:	f241 0307 	movw	r3, #4103	; 0x1007
			fp->flag = mode;					/* File access mode */
 8002ba8:	f806 7009 	strb.w	r7, [r6, r9]
			fp->err = 0;						/* Clear error flag */
 8002bac:	2700      	movs	r7, #0
 8002bae:	54f7      	strb	r7, [r6, r3]
			fp->sclust = ld_clust(dj.fs, dir);	/* File start cluster */
 8002bb0:	f50d 5380 	add.w	r3, sp, #4096	; 0x1000
 8002bb4:	3318      	adds	r3, #24
 8002bb6:	f8d3 8000 	ldr.w	r8, [r3]
 8002bba:	4621      	mov	r1, r4
 8002bbc:	f508 5380 	add.w	r3, r8, #4096	; 0x1000
 8002bc0:	7818      	ldrb	r0, [r3, #0]
 8002bc2:	f7fe fe29 	bl	8001818 <ld_clust.isra.0>
 8002bc6:	f241 0310 	movw	r3, #4112	; 0x1010
 8002bca:	50f0      	str	r0, [r6, r3]
			fp->fsize = LD_DWORD(dir + DIR_FileSize);	/* File size */
 8002bcc:	f241 030c 	movw	r3, #4108	; 0x100c
 8002bd0:	69e2      	ldr	r2, [r4, #28]
 8002bd2:	50f2      	str	r2, [r6, r3]
			fp->fptr = 0;						/* File pointer */
 8002bd4:	f241 0308 	movw	r3, #4104	; 0x1008
 8002bd8:	50f7      	str	r7, [r6, r3]
			fp->dsect = 0;
 8002bda:	f241 0318 	movw	r3, #4120	; 0x1018
 8002bde:	50f7      	str	r7, [r6, r3]
			fp->cltbl = 0;						/* Normal seek mode */
 8002be0:	f241 0324 	movw	r3, #4132	; 0x1024
 8002be4:	50f7      	str	r7, [r6, r3]
			fp->id = fp->fs->id;
 8002be6:	f241 0304 	movw	r3, #4100	; 0x1004
 8002bea:	f838 2009 	ldrh.w	r2, [r8, r9]
			fp->fs = dj.fs;	 					/* Validate file object */
 8002bee:	f8ca 8000 	str.w	r8, [sl]
			fp->id = fp->fs->id;
 8002bf2:	52f2      	strh	r2, [r6, r3]
 8002bf4:	e7c8      	b.n	8002b88 <f_open+0x1b0>
					res = enq_lock() ? dir_register(&dj) : FR_TOO_MANY_OPEN_FILES;
 8002bf6:	2012      	movs	r0, #18
 8002bf8:	e790      	b.n	8002b1c <f_open+0x144>
 8002bfa:	bf00      	nop
 8002bfc:	200000c2 	.word	0x200000c2
 8002c00:	200000a8 	.word	0x200000a8

08002c04 <f_read>:
	FIL* fp, 		/* Pointer to the file object */
	void* buff,		/* Pointer to data buffer */
	UINT btr,		/* Number of bytes to read */
	UINT* br		/* Pointer to number of bytes read */
)
{
 8002c04:	e92d 4ff0 	stmdb	sp!, {r4, r5, r6, r7, r8, r9, sl, fp, lr}
 8002c08:	b085      	sub	sp, #20
 8002c0a:	9303      	str	r3, [sp, #12]
	DWORD clst, sect, remain;
	UINT rcnt, cc;
	BYTE csect, *rbuff = (BYTE*)buff;


	*br = 0;	/* Clear read byte counter */
 8002c0c:	2300      	movs	r3, #0
{
 8002c0e:	4617      	mov	r7, r2
	*br = 0;	/* Clear read byte counter */
 8002c10:	9a03      	ldr	r2, [sp, #12]
{
 8002c12:	4604      	mov	r4, r0
	*br = 0;	/* Clear read byte counter */
 8002c14:	6013      	str	r3, [r2, #0]
{
 8002c16:	468b      	mov	fp, r1

	res = validate(fp);							/* Check validity */
 8002c18:	f7fe fde2 	bl	80017e0 <validate>
	if (res != FR_OK) LEAVE_FF(fp->fs, res);
 8002c1c:	4605      	mov	r5, r0
 8002c1e:	2800      	cmp	r0, #0
 8002c20:	d13a      	bne.n	8002c98 <f_read+0x94>
	if (fp->err)								/* Check error */
 8002c22:	f241 0307 	movw	r3, #4103	; 0x1007
 8002c26:	5ce3      	ldrb	r3, [r4, r3]
 8002c28:	2b00      	cmp	r3, #0
 8002c2a:	f040 80e6 	bne.w	8002dfa <f_read+0x1f6>
		LEAVE_FF(fp->fs, (FRESULT)fp->err);
	if (!(fp->flag & FA_READ)) 					/* Check access mode */
 8002c2e:	f241 0306 	movw	r3, #4102	; 0x1006
 8002c32:	5ce3      	ldrb	r3, [r4, r3]
 8002c34:	07d8      	lsls	r0, r3, #31
 8002c36:	f140 80e2 	bpl.w	8002dfe <f_read+0x1fa>
		LEAVE_FF(fp->fs, FR_DENIED);
	remain = fp->fsize - fp->fptr;
 8002c3a:	f241 0908 	movw	r9, #4104	; 0x1008
 8002c3e:	f241 030c 	movw	r3, #4108	; 0x100c
 8002c42:	f854 2009 	ldr.w	r2, [r4, r9]
 8002c46:	58e3      	ldr	r3, [r4, r3]
	if (btr > remain) btr = (UINT)remain;		/* Truncate btr by remaining bytes */

	for ( ;  btr;								/* Repeat until all data read */
		rbuff += rcnt, fp->fptr += rcnt, *br += rcnt, btr -= rcnt) {
		if ((fp->fptr % SS(fp->fs)) == 0) {		/* On the sector boundary? */
 8002c48:	44a1      	add	r9, r4
	remain = fp->fsize - fp->fptr;
 8002c4a:	1a9b      	subs	r3, r3, r2
 8002c4c:	429f      	cmp	r7, r3
 8002c4e:	bf28      	it	cs
 8002c50:	461f      	movcs	r7, r3
	for ( ;  btr;								/* Repeat until all data read */
 8002c52:	b30f      	cbz	r7, 8002c98 <f_read+0x94>
		if ((fp->fptr % SS(fp->fs)) == 0) {		/* On the sector boundary? */
 8002c54:	f241 030a 	movw	r3, #4106	; 0x100a
 8002c58:	f504 5a80 	add.w	sl, r4, #4096	; 0x1000
 8002c5c:	f8da 0000 	ldr.w	r0, [sl]
 8002c60:	f8d9 1000 	ldr.w	r1, [r9]
 8002c64:	5ac3      	ldrh	r3, [r0, r3]
 8002c66:	fbb1 f2f3 	udiv	r2, r1, r3
 8002c6a:	fb03 1312 	mls	r3, r3, r2, r1
 8002c6e:	2b00      	cmp	r3, #0
 8002c70:	f040 80ac 	bne.w	8002dcc <f_read+0x1c8>
			csect = (BYTE)(fp->fptr / SS(fp->fs) & (fp->fs->csize - 1));	/* Sector offset in the cluster */
 8002c74:	f241 0302 	movw	r3, #4098	; 0x1002
 8002c78:	5cc6      	ldrb	r6, [r0, r3]
 8002c7a:	3e01      	subs	r6, #1
 8002c7c:	4016      	ands	r6, r2
			if (!csect) {						/* On the cluster boundary? */
 8002c7e:	f016 06ff 	ands.w	r6, r6, #255	; 0xff
 8002c82:	d122      	bne.n	8002cca <f_read+0xc6>
				if (fp->fptr == 0) {			/* On the top of the file? */
 8002c84:	b961      	cbnz	r1, 8002ca0 <f_read+0x9c>
					clst = fp->sclust;			/* Follow from the origin */
 8002c86:	f241 0310 	movw	r3, #4112	; 0x1010
 8002c8a:	58e0      	ldr	r0, [r4, r3]
						clst = clmt_clust(fp, fp->fptr);	/* Get cluster# from the CLMT */
					else
#endif
						clst = get_fat(fp->fs, fp->clust);	/* Follow cluster chain on the FAT */
				}
				if (clst < 2) ABORT(fp->fs, FR_INT_ERR);
 8002c8c:	2801      	cmp	r0, #1
 8002c8e:	d815      	bhi.n	8002cbc <f_read+0xb8>
 8002c90:	2502      	movs	r5, #2
				if (clst == 0xFFFFFFFF) ABORT(fp->fs, FR_DISK_ERR);
 8002c92:	f241 0307 	movw	r3, #4103	; 0x1007
 8002c96:	54e5      	strb	r5, [r4, r3]
		mem_cpy(rbuff, &fp->buf.d8[fp->fptr % SS(fp->fs)], rcnt);	/* Pick partial sector */
#endif
	}

	LEAVE_FF(fp->fs, FR_OK);
}
 8002c98:	4628      	mov	r0, r5
 8002c9a:	b005      	add	sp, #20
 8002c9c:	e8bd 8ff0 	ldmia.w	sp!, {r4, r5, r6, r7, r8, r9, sl, fp, pc}
					if (fp->cltbl)
 8002ca0:	f241 0324 	movw	r3, #4132	; 0x1024
 8002ca4:	58e3      	ldr	r3, [r4, r3]
 8002ca6:	b11b      	cbz	r3, 8002cb0 <f_read+0xac>
						clst = clmt_clust(fp, fp->fptr);	/* Get cluster# from the CLMT */
 8002ca8:	4620      	mov	r0, r4
 8002caa:	f7fe fd57 	bl	800175c <clmt_clust>
 8002cae:	e7ed      	b.n	8002c8c <f_read+0x88>
						clst = get_fat(fp->fs, fp->clust);	/* Follow cluster chain on the FAT */
 8002cb0:	f241 0314 	movw	r3, #4116	; 0x1014
 8002cb4:	58e1      	ldr	r1, [r4, r3]
 8002cb6:	f7ff f83b 	bl	8001d30 <get_fat>
 8002cba:	e7e7      	b.n	8002c8c <f_read+0x88>
				if (clst == 0xFFFFFFFF) ABORT(fp->fs, FR_DISK_ERR);
 8002cbc:	1c41      	adds	r1, r0, #1
 8002cbe:	d101      	bne.n	8002cc4 <f_read+0xc0>
 8002cc0:	2501      	movs	r5, #1
 8002cc2:	e7e6      	b.n	8002c92 <f_read+0x8e>
				fp->clust = clst;				/* Update current cluster */
 8002cc4:	f241 0314 	movw	r3, #4116	; 0x1014
 8002cc8:	50e0      	str	r0, [r4, r3]
			sect = clust2sect(fp->fs, fp->clust);	/* Get current sector */
 8002cca:	f8da 3000 	ldr.w	r3, [sl]
 8002cce:	9301      	str	r3, [sp, #4]
 8002cd0:	f241 0314 	movw	r3, #4116	; 0x1014
 8002cd4:	9801      	ldr	r0, [sp, #4]
 8002cd6:	58e1      	ldr	r1, [r4, r3]
 8002cd8:	f7ff f818 	bl	8001d0c <clust2sect>
			if (!sect) ABORT(fp->fs, FR_INT_ERR);
 8002cdc:	2800      	cmp	r0, #0
 8002cde:	d0d7      	beq.n	8002c90 <f_read+0x8c>
			sect += csect;
 8002ce0:	1983      	adds	r3, r0, r6
 8002ce2:	9302      	str	r3, [sp, #8]
			cc = btr / SS(fp->fs);				/* When remaining bytes >= sector size, */
 8002ce4:	f241 030a 	movw	r3, #4106	; 0x100a
 8002ce8:	9a01      	ldr	r2, [sp, #4]
 8002cea:	f832 8003 	ldrh.w	r8, [r2, r3]
 8002cee:	fbb7 f8f8 	udiv	r8, r7, r8
			if (cc) {							/* Read maximum contiguous sectors directly */
 8002cf2:	f1b8 0f00 	cmp.w	r8, #0
 8002cf6:	d03e      	beq.n	8002d76 <f_read+0x172>
				if (csect + cc > fp->fs->csize)	/* Clip at cluster boundary */
 8002cf8:	f241 0302 	movw	r3, #4098	; 0x1002
				if (disk_read(fp->fs->drv, rbuff, sect, cc) != RES_OK)
 8002cfc:	f241 0001 	movw	r0, #4097	; 0x1001
				if (csect + cc > fp->fs->csize)	/* Clip at cluster boundary */
 8002d00:	5cd3      	ldrb	r3, [r2, r3]
 8002d02:	eb06 0208 	add.w	r2, r6, r8
 8002d06:	429a      	cmp	r2, r3
					cc = fp->fs->csize - csect;
 8002d08:	bf88      	it	hi
 8002d0a:	eba3 0806 	subhi.w	r8, r3, r6
				if (disk_read(fp->fs->drv, rbuff, sect, cc) != RES_OK)
 8002d0e:	9e01      	ldr	r6, [sp, #4]
 8002d10:	4643      	mov	r3, r8
 8002d12:	9a02      	ldr	r2, [sp, #8]
 8002d14:	4659      	mov	r1, fp
 8002d16:	5c30      	ldrb	r0, [r6, r0]
 8002d18:	f7fe fc3e 	bl	8001598 <disk_read>
 8002d1c:	2800      	cmp	r0, #0
 8002d1e:	d1cf      	bne.n	8002cc0 <f_read+0xbc>
				if ((fp->flag & FA__DIRTY) && fp->dsect - sect < cc)
 8002d20:	f241 0306 	movw	r3, #4102	; 0x1006
 8002d24:	5ce3      	ldrb	r3, [r4, r3]
 8002d26:	065a      	lsls	r2, r3, #25
 8002d28:	d510      	bpl.n	8002d4c <f_read+0x148>
 8002d2a:	f241 0318 	movw	r3, #4120	; 0x1018
 8002d2e:	58e0      	ldr	r0, [r4, r3]
 8002d30:	9b02      	ldr	r3, [sp, #8]
 8002d32:	1ac0      	subs	r0, r0, r3
 8002d34:	4580      	cmp	r8, r0
 8002d36:	d909      	bls.n	8002d4c <f_read+0x148>
					mem_cpy(rbuff + ((fp->dsect - sect) * SS(fp->fs)), fp->buf.d8, SS(fp->fs));
 8002d38:	f241 030a 	movw	r3, #4106	; 0x100a
 8002d3c:	f8da 2000 	ldr.w	r2, [sl]
 8002d40:	4621      	mov	r1, r4
 8002d42:	5ad2      	ldrh	r2, [r2, r3]
 8002d44:	fb02 b000 	mla	r0, r2, r0, fp
 8002d48:	f7fe fc4e 	bl	80015e8 <mem_cpy>
				rcnt = SS(fp->fs) * cc;			/* Number of bytes transferred */
 8002d4c:	f241 030a 	movw	r3, #4106	; 0x100a
 8002d50:	f8da 2000 	ldr.w	r2, [sl]
 8002d54:	5ad3      	ldrh	r3, [r2, r3]
 8002d56:	fb08 f803 	mul.w	r8, r8, r3
		rbuff += rcnt, fp->fptr += rcnt, *br += rcnt, btr -= rcnt) {
 8002d5a:	f8d9 3000 	ldr.w	r3, [r9]
 8002d5e:	9a03      	ldr	r2, [sp, #12]
 8002d60:	4443      	add	r3, r8
 8002d62:	f8c9 3000 	str.w	r3, [r9]
 8002d66:	9b03      	ldr	r3, [sp, #12]
 8002d68:	44c3      	add	fp, r8
 8002d6a:	681b      	ldr	r3, [r3, #0]
 8002d6c:	eba7 0708 	sub.w	r7, r7, r8
 8002d70:	4443      	add	r3, r8
 8002d72:	6013      	str	r3, [r2, #0]
 8002d74:	e76d      	b.n	8002c52 <f_read+0x4e>
			if (fp->dsect != sect) {			/* Load data sector if not in cache */
 8002d76:	f241 0818 	movw	r8, #4120	; 0x1018
 8002d7a:	9b02      	ldr	r3, [sp, #8]
 8002d7c:	f854 2008 	ldr.w	r2, [r4, r8]
 8002d80:	4293      	cmp	r3, r2
 8002d82:	d020      	beq.n	8002dc6 <f_read+0x1c2>
				if (fp->flag & FA__DIRTY) {		/* Write-back dirty sector cache */
 8002d84:	f241 0606 	movw	r6, #4102	; 0x1006
 8002d88:	5da3      	ldrb	r3, [r4, r6]
 8002d8a:	065b      	lsls	r3, r3, #25
 8002d8c:	d50e      	bpl.n	8002dac <f_read+0x1a8>
					if (disk_write(fp->fs->drv, fp->buf.d8, fp->dsect, 1) != RES_OK)
 8002d8e:	f241 0e01 	movw	lr, #4097	; 0x1001
 8002d92:	9801      	ldr	r0, [sp, #4]
 8002d94:	2301      	movs	r3, #1
 8002d96:	4621      	mov	r1, r4
 8002d98:	f810 000e 	ldrb.w	r0, [r0, lr]
 8002d9c:	f7fe fc0a 	bl	80015b4 <disk_write>
 8002da0:	2800      	cmp	r0, #0
 8002da2:	d18d      	bne.n	8002cc0 <f_read+0xbc>
					fp->flag &= ~FA__DIRTY;
 8002da4:	5da3      	ldrb	r3, [r4, r6]
 8002da6:	f023 0340 	bic.w	r3, r3, #64	; 0x40
 8002daa:	55a3      	strb	r3, [r4, r6]
				if (disk_read(fp->fs->drv, fp->buf.d8, sect, 1) != RES_OK)	/* Fill sector cache */
 8002dac:	f241 0601 	movw	r6, #4097	; 0x1001
 8002db0:	f8da 0000 	ldr.w	r0, [sl]
 8002db4:	2301      	movs	r3, #1
 8002db6:	9a02      	ldr	r2, [sp, #8]
 8002db8:	4621      	mov	r1, r4
 8002dba:	5d80      	ldrb	r0, [r0, r6]
 8002dbc:	f7fe fbec 	bl	8001598 <disk_read>
 8002dc0:	2800      	cmp	r0, #0
 8002dc2:	f47f af7d 	bne.w	8002cc0 <f_read+0xbc>
			fp->dsect = sect;
 8002dc6:	9b02      	ldr	r3, [sp, #8]
 8002dc8:	f844 3008 	str.w	r3, [r4, r8]
		rcnt = SS(fp->fs) - ((UINT)fp->fptr % SS(fp->fs));	/* Get partial sector data from sector buffer */
 8002dcc:	f241 030a 	movw	r3, #4106	; 0x100a
 8002dd0:	f8da 2000 	ldr.w	r2, [sl]
		mem_cpy(rbuff, &fp->buf.d8[fp->fptr % SS(fp->fs)], rcnt);	/* Pick partial sector */
 8002dd4:	4658      	mov	r0, fp
		rcnt = SS(fp->fs) - ((UINT)fp->fptr % SS(fp->fs));	/* Get partial sector data from sector buffer */
 8002dd6:	f832 8003 	ldrh.w	r8, [r2, r3]
 8002dda:	f8d9 3000 	ldr.w	r3, [r9]
 8002dde:	fbb3 f1f8 	udiv	r1, r3, r8
 8002de2:	fb08 3111 	mls	r1, r8, r1, r3
 8002de6:	eba8 0801 	sub.w	r8, r8, r1
 8002dea:	45b8      	cmp	r8, r7
 8002dec:	bf28      	it	cs
 8002dee:	46b8      	movcs	r8, r7
		mem_cpy(rbuff, &fp->buf.d8[fp->fptr % SS(fp->fs)], rcnt);	/* Pick partial sector */
 8002df0:	4421      	add	r1, r4
 8002df2:	4642      	mov	r2, r8
 8002df4:	f7fe fbf8 	bl	80015e8 <mem_cpy>
 8002df8:	e7af      	b.n	8002d5a <f_read+0x156>
 8002dfa:	461d      	mov	r5, r3
 8002dfc:	e74c      	b.n	8002c98 <f_read+0x94>
		LEAVE_FF(fp->fs, FR_DENIED);
 8002dfe:	2507      	movs	r5, #7
 8002e00:	e74a      	b.n	8002c98 <f_read+0x94>

08002e02 <f_sync>:
/*-----------------------------------------------------------------------*/

FRESULT f_sync (
	FIL* fp		/* Pointer to the file object */
)
{
 8002e02:	b5f8      	push	{r3, r4, r5, r6, r7, lr}
 8002e04:	4605      	mov	r5, r0
	FRESULT res;
	DWORD tm;
	BYTE *dir;


	res = validate(fp);					/* Check validity of the object */
 8002e06:	f7fe fceb 	bl	80017e0 <validate>
	if (res == FR_OK) {
 8002e0a:	2800      	cmp	r0, #0
 8002e0c:	d15e      	bne.n	8002ecc <f_sync+0xca>
		if (fp->flag & FA__WRITTEN) {	/* Has the file been written? */
 8002e0e:	f241 0406 	movw	r4, #4102	; 0x1006
 8002e12:	5d2b      	ldrb	r3, [r5, r4]
 8002e14:	069a      	lsls	r2, r3, #26
 8002e16:	d559      	bpl.n	8002ecc <f_sync+0xca>
			/* Write-back dirty buffer */
#if !_FS_TINY
			if (fp->flag & FA__DIRTY) {
 8002e18:	f013 0f40 	tst.w	r3, #64	; 0x40
 8002e1c:	f505 5680 	add.w	r6, r5, #4096	; 0x1000
 8002e20:	d010      	beq.n	8002e44 <f_sync+0x42>
				if (disk_write(fp->fs->drv, fp->buf.d8, fp->dsect, 1) != RES_OK)
 8002e22:	f241 0218 	movw	r2, #4120	; 0x1018
 8002e26:	f241 0001 	movw	r0, #4097	; 0x1001
 8002e2a:	6837      	ldr	r7, [r6, #0]
 8002e2c:	2301      	movs	r3, #1
 8002e2e:	58aa      	ldr	r2, [r5, r2]
 8002e30:	4629      	mov	r1, r5
 8002e32:	5c38      	ldrb	r0, [r7, r0]
 8002e34:	f7fe fbbe 	bl	80015b4 <disk_write>
 8002e38:	2800      	cmp	r0, #0
 8002e3a:	d146      	bne.n	8002eca <f_sync+0xc8>
					LEAVE_FF(fp->fs, FR_DISK_ERR);
				fp->flag &= ~FA__DIRTY;
 8002e3c:	5d2b      	ldrb	r3, [r5, r4]
 8002e3e:	f023 0340 	bic.w	r3, r3, #64	; 0x40
 8002e42:	552b      	strb	r3, [r5, r4]
			}
#endif
			/* Update the directory entry */
			res = move_window(fp->fs, fp->dir_sect);
 8002e44:	f241 031c 	movw	r3, #4124	; 0x101c
 8002e48:	6830      	ldr	r0, [r6, #0]
 8002e4a:	58e9      	ldr	r1, [r5, r3]
 8002e4c:	f7fe fd93 	bl	8001976 <move_window>
 8002e50:	4607      	mov	r7, r0
			if (res == FR_OK) {
 8002e52:	2800      	cmp	r0, #0
 8002e54:	d13a      	bne.n	8002ecc <f_sync+0xca>
				dir = fp->dir_ptr;
 8002e56:	f505 5381 	add.w	r3, r5, #4128	; 0x1020
 8002e5a:	681c      	ldr	r4, [r3, #0]
				dir[DIR_Attr] |= AM_ARC;					/* Set archive bit */
 8002e5c:	7ae3      	ldrb	r3, [r4, #11]
 8002e5e:	f043 0320 	orr.w	r3, r3, #32
 8002e62:	72e3      	strb	r3, [r4, #11]
				ST_DWORD(dir + DIR_FileSize, fp->fsize);	/* Update file size */
 8002e64:	f241 030c 	movw	r3, #4108	; 0x100c
 8002e68:	58ea      	ldr	r2, [r5, r3]
 8002e6a:	7722      	strb	r2, [r4, #28]
 8002e6c:	5aea      	ldrh	r2, [r5, r3]
 8002e6e:	0a12      	lsrs	r2, r2, #8
 8002e70:	7762      	strb	r2, [r4, #29]
 8002e72:	58ea      	ldr	r2, [r5, r3]
 8002e74:	0c12      	lsrs	r2, r2, #16
 8002e76:	77a2      	strb	r2, [r4, #30]
 8002e78:	58eb      	ldr	r3, [r5, r3]
 8002e7a:	0e1b      	lsrs	r3, r3, #24
 8002e7c:	77e3      	strb	r3, [r4, #31]
				st_clust(dir, fp->sclust);					/* Update start cluster */
 8002e7e:	f241 0310 	movw	r3, #4112	; 0x1010
 8002e82:	58eb      	ldr	r3, [r5, r3]
	ST_WORD(dir + DIR_FstClusLO, cl);
 8002e84:	f3c3 2207 	ubfx	r2, r3, #8, #8
 8002e88:	76a3      	strb	r3, [r4, #26]
	ST_WORD(dir + DIR_FstClusHI, cl >> 16);
 8002e8a:	0c1b      	lsrs	r3, r3, #16
 8002e8c:	7523      	strb	r3, [r4, #20]
 8002e8e:	0a1b      	lsrs	r3, r3, #8
	ST_WORD(dir + DIR_FstClusLO, cl);
 8002e90:	76e2      	strb	r2, [r4, #27]
	ST_WORD(dir + DIR_FstClusHI, cl >> 16);
 8002e92:	7563      	strb	r3, [r4, #21]
				tm = GET_FATTIME();							/* Update updated time */
 8002e94:	f000 f892 	bl	8002fbc <get_fattime>
				ST_DWORD(dir + DIR_WrtTime, tm);
				ST_WORD(dir + DIR_LstAccDate, 0);
				fp->flag &= ~FA__WRITTEN;
 8002e98:	f241 0206 	movw	r2, #4102	; 0x1006
				ST_DWORD(dir + DIR_WrtTime, tm);
 8002e9c:	f3c0 2307 	ubfx	r3, r0, #8, #8
 8002ea0:	75a0      	strb	r0, [r4, #22]
 8002ea2:	75e3      	strb	r3, [r4, #23]
 8002ea4:	0c03      	lsrs	r3, r0, #16
 8002ea6:	0e00      	lsrs	r0, r0, #24
 8002ea8:	7623      	strb	r3, [r4, #24]
 8002eaa:	7660      	strb	r0, [r4, #25]
				ST_WORD(dir + DIR_LstAccDate, 0);
 8002eac:	74a7      	strb	r7, [r4, #18]
 8002eae:	74e7      	strb	r7, [r4, #19]
				fp->flag &= ~FA__WRITTEN;
 8002eb0:	5cab      	ldrb	r3, [r5, r2]
 8002eb2:	f023 0320 	bic.w	r3, r3, #32
 8002eb6:	54ab      	strb	r3, [r5, r2]
				fp->fs->wflag = 1;
 8002eb8:	f241 0304 	movw	r3, #4100	; 0x1004
 8002ebc:	2201      	movs	r2, #1
 8002ebe:	6830      	ldr	r0, [r6, #0]
 8002ec0:	54c2      	strb	r2, [r0, r3]
			}
		}
	}

	LEAVE_FF(fp->fs, res);
}
 8002ec2:	e8bd 40f8 	ldmia.w	sp!, {r3, r4, r5, r6, r7, lr}
				res = sync_fs(fp->fs);
 8002ec6:	f7fe bcf1 	b.w	80018ac <sync_fs>
					LEAVE_FF(fp->fs, FR_DISK_ERR);
 8002eca:	2001      	movs	r0, #1
}
 8002ecc:	bdf8      	pop	{r3, r4, r5, r6, r7, pc}

08002ece <f_close>:
/*-----------------------------------------------------------------------*/

FRESULT f_close (
	FIL *fp		/* Pointer to the file object to be closed */
)
{
 8002ece:	b510      	push	{r4, lr}
 8002ed0:	4604      	mov	r4, r0
	FRESULT res;


#if !_FS_READONLY
	res = f_sync(fp);					/* Flush cached data */
 8002ed2:	f7ff ff96 	bl	8002e02 <f_sync>
	if (res == FR_OK)
 8002ed6:	b960      	cbnz	r0, 8002ef2 <f_close+0x24>
#endif
	{
		res = validate(fp);				/* Lock volume */
 8002ed8:	4620      	mov	r0, r4
 8002eda:	f7fe fc81 	bl	80017e0 <validate>
		if (res == FR_OK) {
 8002ede:	b940      	cbnz	r0, 8002ef2 <f_close+0x24>
#if _FS_REENTRANT
			FATFS *fs = fp->fs;
#endif
#if _FS_LOCK
			res = dec_lock(fp->lockid);	/* Decrement file open counter */
 8002ee0:	f241 0328 	movw	r3, #4136	; 0x1028
 8002ee4:	58e0      	ldr	r0, [r4, r3]
 8002ee6:	f7fe fc1d 	bl	8001724 <dec_lock>
			if (res == FR_OK)
 8002eea:	b910      	cbnz	r0, 8002ef2 <f_close+0x24>
#endif
				fp->fs = 0;				/* Invalidate file object */
 8002eec:	f504 5480 	add.w	r4, r4, #4096	; 0x1000
 8002ef0:	6020      	str	r0, [r4, #0]
			unlock_fs(fs, FR_OK);		/* Unlock volume */
#endif
		}
	}
	return res;
}
 8002ef2:	bd10      	pop	{r4, pc}

08002ef4 <FATFS_LinkDriverEx>:
  * @param  lun : only used for USB Key Disk to add multi-lun management
            else the paramter must be equal to 0
  * @retval Returns 0 in case of success, otherwise 1.
  */
uint8_t FATFS_LinkDriverEx(Diskio_drvTypeDef *drv, char *path, uint8_t lun)
{
 8002ef4:	b530      	push	{r4, r5, lr}
  uint8_t ret = 1;
  uint8_t DiskNum = 0;
  
  if(disk.nbr <= _VOLUMES)
 8002ef6:	4b0f      	ldr	r3, [pc, #60]	; (8002f34 <FATFS_LinkDriverEx+0x40>)
 8002ef8:	7a5c      	ldrb	r4, [r3, #9]
 8002efa:	2c01      	cmp	r4, #1
 8002efc:	d818      	bhi.n	8002f30 <FATFS_LinkDriverEx+0x3c>
  {
    disk.is_initialized[disk.nbr] = 0;
 8002efe:	2400      	movs	r4, #0
 8002f00:	7a5d      	ldrb	r5, [r3, #9]
 8002f02:	b2ed      	uxtb	r5, r5
 8002f04:	555c      	strb	r4, [r3, r5]
    disk.drv[disk.nbr] = drv;  
 8002f06:	7a5d      	ldrb	r5, [r3, #9]
 8002f08:	eb03 0585 	add.w	r5, r3, r5, lsl #2
 8002f0c:	6068      	str	r0, [r5, #4]
    disk.lun[disk.nbr] = lun;  
 8002f0e:	7a58      	ldrb	r0, [r3, #9]
 8002f10:	4418      	add	r0, r3
 8002f12:	7202      	strb	r2, [r0, #8]
    DiskNum = disk.nbr++;
 8002f14:	7a5a      	ldrb	r2, [r3, #9]
 8002f16:	b2d2      	uxtb	r2, r2
 8002f18:	1c50      	adds	r0, r2, #1
 8002f1a:	b2c0      	uxtb	r0, r0
 8002f1c:	7258      	strb	r0, [r3, #9]
    path[0] = DiskNum + '0';
    path[1] = ':';
 8002f1e:	233a      	movs	r3, #58	; 0x3a
 8002f20:	704b      	strb	r3, [r1, #1]
    path[2] = '/';
 8002f22:	232f      	movs	r3, #47	; 0x2f
    path[0] = DiskNum + '0';
 8002f24:	3230      	adds	r2, #48	; 0x30
 8002f26:	700a      	strb	r2, [r1, #0]
    path[2] = '/';
 8002f28:	708b      	strb	r3, [r1, #2]
    path[3] = 0;
 8002f2a:	70cc      	strb	r4, [r1, #3]
 8002f2c:	4620      	mov	r0, r4
 8002f2e:	bd30      	pop	{r4, r5, pc}
  uint8_t ret = 1;
 8002f30:	2001      	movs	r0, #1
    ret = 0;
  }
  
  return ret;
}
 8002f32:	bd30      	pop	{r4, r5, pc}
 8002f34:	200002c4 	.word	0x200002c4

08002f38 <FATFS_LinkDriver>:
  * @param  path: pointer to the logical drive path 
  * @retval Returns 0 in case of success, otherwise 1.
  */
uint8_t FATFS_LinkDriver(Diskio_drvTypeDef *drv, char *path)
{
  return FATFS_LinkDriverEx(drv, path, 0);
 8002f38:	2200      	movs	r2, #0
 8002f3a:	f7ff bfdb 	b.w	8002ef4 <FATFS_LinkDriverEx>
	...

08002f40 <ff_convert>:
)
{
	WCHAR c;


	if (chr < 0x80) {	/* ASCII */
 8002f40:	287f      	cmp	r0, #127	; 0x7f
{
 8002f42:	b510      	push	{r4, lr}
	if (chr < 0x80) {	/* ASCII */
 8002f44:	d916      	bls.n	8002f74 <ff_convert+0x34>
		c = chr;

	} else {
		if (dir) {		/* OEMCP to Unicode */
 8002f46:	b131      	cbz	r1, 8002f56 <ff_convert+0x16>
			c = (chr >= 0x100) ? 0 : Tbl[chr - 0x80];
 8002f48:	28ff      	cmp	r0, #255	; 0xff
 8002f4a:	d812      	bhi.n	8002f72 <ff_convert+0x32>
 8002f4c:	4b0a      	ldr	r3, [pc, #40]	; (8002f78 <ff_convert+0x38>)
 8002f4e:	3880      	subs	r0, #128	; 0x80
 8002f50:	f833 0010 	ldrh.w	r0, [r3, r0, lsl #1]
 8002f54:	bd10      	pop	{r4, pc}

		} else {		/* Unicode to OEMCP */
			for (c = 0; c < 0x80; c++) {
				if (chr == Tbl[c]) break;
 8002f56:	4a08      	ldr	r2, [pc, #32]	; (8002f78 <ff_convert+0x38>)
 8002f58:	f832 4011 	ldrh.w	r4, [r2, r1, lsl #1]
 8002f5c:	b28b      	uxth	r3, r1
 8002f5e:	4284      	cmp	r4, r0
 8002f60:	d003      	beq.n	8002f6a <ff_convert+0x2a>
 8002f62:	3101      	adds	r1, #1
			for (c = 0; c < 0x80; c++) {
 8002f64:	2980      	cmp	r1, #128	; 0x80
 8002f66:	d1f7      	bne.n	8002f58 <ff_convert+0x18>
 8002f68:	460b      	mov	r3, r1
			}
			c = (c + 0x80) & 0xFF;
 8002f6a:	f103 0080 	add.w	r0, r3, #128	; 0x80
 8002f6e:	b2c0      	uxtb	r0, r0
 8002f70:	bd10      	pop	{r4, pc}
			c = (chr >= 0x100) ? 0 : Tbl[chr - 0x80];
 8002f72:	2000      	movs	r0, #0
		}
	}

	return c;
}
 8002f74:	bd10      	pop	{r4, pc}
 8002f76:	bf00      	nop
 8002f78:	08005852 	.word	0x08005852

08002f7c <ff_wtoupper>:
	static const WCHAR tbl_lower[] = { 0x61, 0x62, 0x63, 0x64, 0x65, 0x66, 0x67, 0x68, 0x69, 0x6A, 0x6B, 0x6C, 0x6D, 0x6E, 0x6F, 0x70, 0x71, 0x72, 0x73, 0x74, 0x75, 0x76, 0x77, 0x78, 0x79, 0x7A, 0xA1, 0x00A2, 0x00A3, 0x00A5, 0x00AC, 0x00AF, 0xE0, 0xE1, 0xE2, 0xE3, 0xE4, 0xE5, 0xE6, 0xE7, 0xE8, 0xE9, 0xEA, 0xEB, 0xEC, 0xED, 0xEE, 0xEF, 0xF0, 0xF1, 0xF2, 0xF3, 0xF4, 0xF5, 0xF6, 0xF8, 0xF9, 0xFA, 0xFB, 0xFC, 0xFD, 0xFE, 0x0FF, 0x101, 0x103, 0x105, 0x107, 0x109, 0x10B, 0x10D, 0x10F, 0x111, 0x113, 0x115, 0x117, 0x119, 0x11B, 0x11D, 0x11F, 0x121, 0x123, 0x125, 0x127, 0x129, 0x12B, 0x12D, 0x12F, 0x131, 0x133, 0x135, 0x137, 0x13A, 0x13C, 0x13E, 0x140, 0x142, 0x144, 0x146, 0x148, 0x14B, 0x14D, 0x14F, 0x151, 0x153, 0x155, 0x157, 0x159, 0x15B, 0x15D, 0x15F, 0x161, 0x163, 0x165, 0x167, 0x169, 0x16B, 0x16D, 0x16F, 0x171, 0x173, 0x175, 0x177, 0x17A, 0x17C, 0x17E, 0x192, 0x3B1, 0x3B2, 0x3B3, 0x3B4, 0x3B5, 0x3B6, 0x3B7, 0x3B8, 0x3B9, 0x3BA, 0x3BB, 0x3BC, 0x3BD, 0x3BE, 0x3BF, 0x3C0, 0x3C1, 0x3C3, 0x3C4, 0x3C5, 0x3C6, 0x3C7, 0x3C8, 0x3C9, 0x3CA, 0x430, 0x431, 0x432, 0x433, 0x434, 0x435, 0x436, 0x437, 0x438, 0x439, 0x43A, 0x43B, 0x43C, 0x43D, 0x43E, 0x43F, 0x440, 0x441, 0x442, 0x443, 0x444, 0x445, 0x446, 0x447, 0x448, 0x449, 0x44A, 0x44B, 0x44C, 0x44D, 0x44E, 0x44F, 0x451, 0x452, 0x453, 0x454, 0x455, 0x456, 0x457, 0x458, 0x459, 0x45A, 0x45B, 0x45C, 0x45E, 0x45F, 0x2170, 0x2171, 0x2172, 0x2173, 0x2174, 0x2175, 0x2176, 0x2177, 0x2178, 0x2179, 0x217A, 0x217B, 0x217C, 0x217D, 0x217E, 0x217F, 0xFF41, 0xFF42, 0xFF43, 0xFF44, 0xFF45, 0xFF46, 0xFF47, 0xFF48, 0xFF49, 0xFF4A, 0xFF4B, 0xFF4C, 0xFF4D, 0xFF4E, 0xFF4F, 0xFF50, 0xFF51, 0xFF52, 0xFF53, 0xFF54, 0xFF55, 0xFF56, 0xFF57, 0xFF58, 0xFF59, 0xFF5A, 0 };
	static const WCHAR tbl_upper[] = { 0x41, 0x42, 0x43, 0x44, 0x45, 0x46, 0x47, 0x48, 0x49, 0x4A, 0x4B, 0x4C, 0x4D, 0x4E, 0x4F, 0x50, 0x51, 0x52, 0x53, 0x54, 0x55, 0x56, 0x57, 0x58, 0x59, 0x5A, 0x21, 0xFFE0, 0xFFE1, 0xFFE5, 0xFFE2, 0xFFE3, 0xC0, 0xC1, 0xC2, 0xC3, 0xC4, 0xC5, 0xC6, 0xC7, 0xC8, 0xC9, 0xCA, 0xCB, 0xCC, 0xCD, 0xCE, 0xCF, 0xD0, 0xD1, 0xD2, 0xD3, 0xD4, 0xD5, 0xD6, 0xD8, 0xD9, 0xDA, 0xDB, 0xDC, 0xDD, 0xDE, 0x178, 0x100, 0x102, 0x104, 0x106, 0x108, 0x10A, 0x10C, 0x10E, 0x110, 0x112, 0x114, 0x116, 0x118, 0x11A, 0x11C, 0x11E, 0x120, 0x122, 0x124, 0x126, 0x128, 0x12A, 0x12C, 0x12E, 0x130, 0x132, 0x134, 0x136, 0x139, 0x13B, 0x13D, 0x13F, 0x141, 0x143, 0x145, 0x147, 0x14A, 0x14C, 0x14E, 0x150, 0x152, 0x154, 0x156, 0x158, 0x15A, 0x15C, 0x15E, 0x160, 0x162, 0x164, 0x166, 0x168, 0x16A, 0x16C, 0x16E, 0x170, 0x172, 0x174, 0x176, 0x179, 0x17B, 0x17D, 0x191, 0x391, 0x392, 0x393, 0x394, 0x395, 0x396, 0x397, 0x398, 0x399, 0x39A, 0x39B, 0x39C, 0x39D, 0x39E, 0x39F, 0x3A0, 0x3A1, 0x3A3, 0x3A4, 0x3A5, 0x3A6, 0x3A7, 0x3A8, 0x3A9, 0x3AA, 0x410, 0x411, 0x412, 0x413, 0x414, 0x415, 0x416, 0x417, 0x418, 0x419, 0x41A, 0x41B, 0x41C, 0x41D, 0x41E, 0x41F, 0x420, 0x421, 0x422, 0x423, 0x424, 0x425, 0x426, 0x427, 0x428, 0x429, 0x42A, 0x42B, 0x42C, 0x42D, 0x42E, 0x42F, 0x401, 0x402, 0x403, 0x404, 0x405, 0x406, 0x407, 0x408, 0x409, 0x40A, 0x40B, 0x40C, 0x40E, 0x40F, 0x2160, 0x2161, 0x2162, 0x2163, 0x2164, 0x2165, 0x2166, 0x2167, 0x2168, 0x2169, 0x216A, 0x216B, 0x216C, 0x216D, 0x216E, 0x216F, 0xFF21, 0xFF22, 0xFF23, 0xFF24, 0xFF25, 0xFF26, 0xFF27, 0xFF28, 0xFF29, 0xFF2A, 0xFF2B, 0xFF2C, 0xFF2D, 0xFF2E, 0xFF2F, 0xFF30, 0xFF31, 0xFF32, 0xFF33, 0xFF34, 0xFF35, 0xFF36, 0xFF37, 0xFF38, 0xFF39, 0xFF3A, 0 };
	int i;


	for (i = 0; tbl_lower[i] && chr != tbl_lower[i]; i++) ;
 8002f7c:	2300      	movs	r3, #0
 8002f7e:	4906      	ldr	r1, [pc, #24]	; (8002f98 <ff_wtoupper+0x1c>)
 8002f80:	f831 2013 	ldrh.w	r2, [r1, r3, lsl #1]
 8002f84:	b122      	cbz	r2, 8002f90 <ff_wtoupper+0x14>
 8002f86:	4282      	cmp	r2, r0
 8002f88:	d103      	bne.n	8002f92 <ff_wtoupper+0x16>

	return tbl_lower[i] ? tbl_upper[i] : chr;
 8002f8a:	4a04      	ldr	r2, [pc, #16]	; (8002f9c <ff_wtoupper+0x20>)
 8002f8c:	f832 0013 	ldrh.w	r0, [r2, r3, lsl #1]
}
 8002f90:	4770      	bx	lr
	for (i = 0; tbl_lower[i] && chr != tbl_lower[i]; i++) ;
 8002f92:	3301      	adds	r3, #1
 8002f94:	e7f4      	b.n	8002f80 <ff_wtoupper+0x4>
 8002f96:	bf00      	nop
 8002f98:	08005952 	.word	0x08005952
 8002f9c:	08005b32 	.word	0x08005b32

08002fa0 <MX_FATFS_Init>:
/* USER CODE BEGIN Variables */

/* USER CODE END Variables */    

void MX_FATFS_Init(void) 
{
 8002fa0:	b508      	push	{r3, lr}
  /*## FatFS: Link the USER driver ###########################*/
  retUSER = FATFS_LinkDriver(&USER_Driver, USERPath);
 8002fa2:	4903      	ldr	r1, [pc, #12]	; (8002fb0 <MX_FATFS_Init+0x10>)
 8002fa4:	4803      	ldr	r0, [pc, #12]	; (8002fb4 <MX_FATFS_Init+0x14>)
 8002fa6:	f7ff ffc7 	bl	8002f38 <FATFS_LinkDriver>
 8002faa:	4b03      	ldr	r3, [pc, #12]	; (8002fb8 <MX_FATFS_Init+0x18>)
 8002fac:	7018      	strb	r0, [r3, #0]
 8002fae:	bd08      	pop	{r3, pc}
 8002fb0:	200002f0 	.word	0x200002f0
 8002fb4:	20000010 	.word	0x20000010
 8002fb8:	200002f4 	.word	0x200002f4

08002fbc <get_fattime>:
DWORD get_fattime(void)
{
  /* USER CODE BEGIN get_fattime */
  return 0;
  /* USER CODE END get_fattime */  
}
 8002fbc:	2000      	movs	r0, #0
 8002fbe:	4770      	bx	lr

08002fc0 <SPI_TxByte>:
  HAL_GPIO_WritePin(SD_CS_GPIO_Port, SD_CS_Pin, GPIO_PIN_SET);
}

/* SPI   */
static void SPI_TxByte(BYTE data)
{
 8002fc0:	b507      	push	{r0, r1, r2, lr}
 8002fc2:	f88d 0007 	strb.w	r0, [sp, #7]
  while (HAL_SPI_GetState(&hspi1) != HAL_SPI_STATE_READY);
 8002fc6:	4808      	ldr	r0, [pc, #32]	; (8002fe8 <SPI_TxByte+0x28>)
 8002fc8:	f7fe f93d 	bl	8001246 <HAL_SPI_GetState>
 8002fcc:	2801      	cmp	r0, #1
 8002fce:	4602      	mov	r2, r0
 8002fd0:	d1f9      	bne.n	8002fc6 <SPI_TxByte+0x6>
  HAL_SPI_Transmit(&hspi1, &data, 1, SPI_TIMEOUT);
 8002fd2:	f44f 737a 	mov.w	r3, #1000	; 0x3e8
 8002fd6:	f10d 0107 	add.w	r1, sp, #7
 8002fda:	4803      	ldr	r0, [pc, #12]	; (8002fe8 <SPI_TxByte+0x28>)
 8002fdc:	f7fd ff8d 	bl	8000efa <HAL_SPI_Transmit>
}
 8002fe0:	b003      	add	sp, #12
 8002fe2:	f85d fb04 	ldr.w	pc, [sp], #4
 8002fe6:	bf00      	nop
 8002fe8:	200044d8 	.word	0x200044d8

08002fec <SELECT>:
  HAL_GPIO_WritePin(SD_CS_GPIO_Port, SD_CS_Pin, GPIO_PIN_RESET);
 8002fec:	2200      	movs	r2, #0
 8002fee:	2180      	movs	r1, #128	; 0x80
 8002ff0:	4801      	ldr	r0, [pc, #4]	; (8002ff8 <SELECT+0xc>)
 8002ff2:	f7fd ba59 	b.w	80004a8 <HAL_GPIO_WritePin>
 8002ff6:	bf00      	nop
 8002ff8:	40011000 	.word	0x40011000

08002ffc <DESELECT>:
  HAL_GPIO_WritePin(SD_CS_GPIO_Port, SD_CS_Pin, GPIO_PIN_SET);
 8002ffc:	2201      	movs	r2, #1
 8002ffe:	2180      	movs	r1, #128	; 0x80
 8003000:	4801      	ldr	r0, [pc, #4]	; (8003008 <DESELECT+0xc>)
 8003002:	f7fd ba51 	b.w	80004a8 <HAL_GPIO_WritePin>
 8003006:	bf00      	nop
 8003008:	40011000 	.word	0x40011000

0800300c <SPI_RxByte>:

/* SPI     */
static uint8_t SPI_RxByte(void)
{
 800300c:	b51f      	push	{r0, r1, r2, r3, r4, lr}
  uint8_t dummy, data;
  dummy = 0xFF;
 800300e:	23ff      	movs	r3, #255	; 0xff
 8003010:	f88d 300e 	strb.w	r3, [sp, #14]
  data = 0;
 8003014:	2300      	movs	r3, #0
 8003016:	f88d 300f 	strb.w	r3, [sp, #15]
  
  while ((HAL_SPI_GetState(&hspi1) != HAL_SPI_STATE_READY));
 800301a:	480a      	ldr	r0, [pc, #40]	; (8003044 <SPI_RxByte+0x38>)
 800301c:	f7fe f913 	bl	8001246 <HAL_SPI_GetState>
 8003020:	2801      	cmp	r0, #1
 8003022:	4603      	mov	r3, r0
 8003024:	d1f9      	bne.n	800301a <SPI_RxByte+0xe>
  HAL_SPI_TransmitReceive(&hspi1, &dummy, &data, 1, SPI_TIMEOUT);
 8003026:	f44f 727a 	mov.w	r2, #1000	; 0x3e8
 800302a:	f10d 010e 	add.w	r1, sp, #14
 800302e:	9200      	str	r2, [sp, #0]
 8003030:	4804      	ldr	r0, [pc, #16]	; (8003044 <SPI_RxByte+0x38>)
 8003032:	f10d 020f 	add.w	r2, sp, #15
 8003036:	f7fe f809 	bl	800104c <HAL_SPI_TransmitReceive>
  
  return data;
}
 800303a:	f89d 000f 	ldrb.w	r0, [sp, #15]
 800303e:	b005      	add	sp, #20
 8003040:	f85d fb04 	ldr.w	pc, [sp], #4
 8003044:	200044d8 	.word	0x200044d8

08003048 <SD_PowerOn>:
  return res;
}

/*   */
static void SD_PowerOn(void) 
{
 8003048:	b513      	push	{r0, r1, r4, lr}
  uint8_t cmd_arg[6];
  uint32_t Count = 0x1FFF;
  
  /* Deselect  SPI    . */
  DESELECT();
 800304a:	f7ff ffd7 	bl	8002ffc <DESELECT>
 800304e:	240a      	movs	r4, #10
  
  for(int i = 0; i < 10; i++)
  {
    SPI_TxByte(0xFF);
 8003050:	20ff      	movs	r0, #255	; 0xff
 8003052:	f7ff ffb5 	bl	8002fc0 <SPI_TxByte>
  for(int i = 0; i < 10; i++)
 8003056:	3c01      	subs	r4, #1
 8003058:	d1fa      	bne.n	8003050 <SD_PowerOn+0x8>
  }
  
  /* SPI Chips Select */
  SELECT();
 800305a:	f7ff ffc7 	bl	8002fec <SELECT>
  
  /*  GO_IDLE_STATE   */
  cmd_arg[0] = (CMD0 | 0x40);
 800305e:	2340      	movs	r3, #64	; 0x40
 8003060:	f88d 3000 	strb.w	r3, [sp]
  cmd_arg[1] = 0;
  cmd_arg[2] = 0;
  cmd_arg[3] = 0;
  cmd_arg[4] = 0;
  cmd_arg[5] = 0x95;
 8003064:	2395      	movs	r3, #149	; 0x95
  cmd_arg[1] = 0;
 8003066:	f88d 4001 	strb.w	r4, [sp, #1]
  cmd_arg[2] = 0;
 800306a:	f88d 4002 	strb.w	r4, [sp, #2]
  cmd_arg[3] = 0;
 800306e:	f88d 4003 	strb.w	r4, [sp, #3]
  cmd_arg[4] = 0;
 8003072:	f88d 4004 	strb.w	r4, [sp, #4]
  cmd_arg[5] = 0x95;
 8003076:	f88d 3005 	strb.w	r3, [sp, #5]
  
  /*   */
  for (int i = 0; i < 6; i++)
  {
    SPI_TxByte(cmd_arg[i]);
 800307a:	f81d 0004 	ldrb.w	r0, [sp, r4]
  for (int i = 0; i < 6; i++)
 800307e:	3401      	adds	r4, #1
    SPI_TxByte(cmd_arg[i]);
 8003080:	f7ff ff9e 	bl	8002fc0 <SPI_TxByte>
  for (int i = 0; i < 6; i++)
 8003084:	2c06      	cmp	r4, #6
 8003086:	d1f8      	bne.n	800307a <SD_PowerOn+0x32>
 8003088:	f44f 5400 	mov.w	r4, #8192	; 0x2000
  }
  
  /*   */
  while ((SPI_RxByte() != 0x01) && Count)
 800308c:	f7ff ffbe 	bl	800300c <SPI_RxByte>
 8003090:	2801      	cmp	r0, #1
 8003092:	d001      	beq.n	8003098 <SD_PowerOn+0x50>
 8003094:	3c01      	subs	r4, #1
 8003096:	d1f9      	bne.n	800308c <SD_PowerOn+0x44>
  {
    Count--;
  }
  
  DESELECT();
 8003098:	f7ff ffb0 	bl	8002ffc <DESELECT>
  SPI_TxByte(0XFF);
 800309c:	20ff      	movs	r0, #255	; 0xff
 800309e:	f7ff ff8f 	bl	8002fc0 <SPI_TxByte>
  
  PowerFlag = 1;
 80030a2:	2201      	movs	r2, #1
 80030a4:	4b01      	ldr	r3, [pc, #4]	; (80030ac <SD_PowerOn+0x64>)
 80030a6:	701a      	strb	r2, [r3, #0]
}
 80030a8:	b002      	add	sp, #8
 80030aa:	bd10      	pop	{r4, pc}
 80030ac:	200002d1 	.word	0x200002d1

080030b0 <SD_ReadyWait>:
  Timer2 = 50;
 80030b0:	2332      	movs	r3, #50	; 0x32
{
 80030b2:	b510      	push	{r4, lr}
  Timer2 = 50;
 80030b4:	4c05      	ldr	r4, [pc, #20]	; (80030cc <SD_ReadyWait+0x1c>)
 80030b6:	7023      	strb	r3, [r4, #0]
  SPI_RxByte();
 80030b8:	f7ff ffa8 	bl	800300c <SPI_RxByte>
    res = SPI_RxByte();
 80030bc:	f7ff ffa6 	bl	800300c <SPI_RxByte>
  } while ((res != 0xFF) && Timer2);
 80030c0:	28ff      	cmp	r0, #255	; 0xff
 80030c2:	d002      	beq.n	80030ca <SD_ReadyWait+0x1a>
 80030c4:	7823      	ldrb	r3, [r4, #0]
 80030c6:	2b00      	cmp	r3, #0
 80030c8:	d1f8      	bne.n	80030bc <SD_ReadyWait+0xc>
}
 80030ca:	bd10      	pop	{r4, pc}
 80030cc:	20004530 	.word	0x20004530

080030d0 <SD_TxDataBlock>:
}

/*    */
#if _READONLY == 0
static bool SD_TxDataBlock(const BYTE *buff, BYTE token)
{
 80030d0:	b570      	push	{r4, r5, r6, lr}
 80030d2:	4605      	mov	r5, r0
 80030d4:	460e      	mov	r6, r1
  uint8_t resp, wc;
  uint8_t i = 0;
    
  /* SD   */
  if (SD_ReadyWait() != 0xFF)
 80030d6:	f7ff ffeb 	bl	80030b0 <SD_ReadyWait>
 80030da:	28ff      	cmp	r0, #255	; 0xff
 80030dc:	d12c      	bne.n	8003138 <SD_TxDataBlock+0x68>
    return FALSE;
  
  /*   */
  SPI_TxByte(token);      
 80030de:	4630      	mov	r0, r6
 80030e0:	f7ff ff6e 	bl	8002fc0 <SPI_TxByte>
  
  /*    */
  if (token != 0xFD) 
 80030e4:	2efd      	cmp	r6, #253	; 0xfd
 80030e6:	d021      	beq.n	800312c <SD_TxDataBlock+0x5c>
 80030e8:	1cac      	adds	r4, r5, #2
 80030ea:	f205 2502 	addw	r5, r5, #514	; 0x202
    wc = 0;
    
    /* 512    */
    do 
    { 
      SPI_TxByte(*buff++);
 80030ee:	f814 0c02 	ldrb.w	r0, [r4, #-2]
 80030f2:	f7ff ff65 	bl	8002fc0 <SPI_TxByte>
 80030f6:	3402      	adds	r4, #2
      SPI_TxByte(*buff++);
 80030f8:	f814 0c03 	ldrb.w	r0, [r4, #-3]
 80030fc:	f7ff ff60 	bl	8002fc0 <SPI_TxByte>
    } while (--wc);
 8003100:	42ac      	cmp	r4, r5
 8003102:	d1f4      	bne.n	80030ee <SD_TxDataBlock+0x1e>
    
    SPI_RxByte();       /* CRC  */
 8003104:	f7ff ff82 	bl	800300c <SPI_RxByte>
    SPI_RxByte();
 8003108:	2541      	movs	r5, #65	; 0x41
 800310a:	f7ff ff7f 	bl	800300c <SPI_RxByte>
    
    /*    */
    while (i <= 64) 
    {			
      resp = SPI_RxByte();
 800310e:	f7ff ff7d 	bl	800300c <SPI_RxByte>
      
      /*    */
      if ((resp & 0x1F) == 0x05) 
 8003112:	f000 031f 	and.w	r3, r0, #31
 8003116:	2b05      	cmp	r3, #5
      resp = SPI_RxByte();
 8003118:	4604      	mov	r4, r0
      if ((resp & 0x1F) == 0x05) 
 800311a:	d003      	beq.n	8003124 <SD_TxDataBlock+0x54>
 800311c:	3d01      	subs	r5, #1
    while (i <= 64) 
 800311e:	f015 05ff 	ands.w	r5, r5, #255	; 0xff
 8003122:	d1f4      	bne.n	800310e <SD_TxDataBlock+0x3e>
      
      i++;
    }
    
    /* SPI   Clear */
    while (SPI_RxByte() == 0);
 8003124:	f7ff ff72 	bl	800300c <SPI_RxByte>
 8003128:	2800      	cmp	r0, #0
 800312a:	d0fb      	beq.n	8003124 <SD_TxDataBlock+0x54>
  }
  
  if ((resp & 0x1F) == 0x05)
 800312c:	f004 001f 	and.w	r0, r4, #31
    return FALSE;
 8003130:	1f43      	subs	r3, r0, #5
 8003132:	4258      	negs	r0, r3
 8003134:	4158      	adcs	r0, r3
 8003136:	bd70      	pop	{r4, r5, r6, pc}
 8003138:	2000      	movs	r0, #0
    return TRUE;
  else
    return FALSE;
}
 800313a:	bd70      	pop	{r4, r5, r6, pc}

0800313c <SD_SendCmd>:
#endif /* _READONLY */
/* CMD   */
static BYTE SD_SendCmd(BYTE cmd, DWORD arg) 
{
 800313c:	b538      	push	{r3, r4, r5, lr}
 800313e:	4604      	mov	r4, r0
 8003140:	460d      	mov	r5, r1
  uint8_t crc, res;
  
  /* SD  */
  if (SD_ReadyWait() != 0xFF)
 8003142:	f7ff ffb5 	bl	80030b0 <SD_ReadyWait>
 8003146:	28ff      	cmp	r0, #255	; 0xff
 8003148:	d128      	bne.n	800319c <SD_SendCmd+0x60>
    return 0xFF;
  
  /*    */
  SPI_TxByte(cmd); 			/* Command */
 800314a:	4620      	mov	r0, r4
 800314c:	f7ff ff38 	bl	8002fc0 <SPI_TxByte>
  SPI_TxByte((BYTE) (arg >> 24)); 	/* Argument[31..24] */
 8003150:	0e28      	lsrs	r0, r5, #24
 8003152:	f7ff ff35 	bl	8002fc0 <SPI_TxByte>
  SPI_TxByte((BYTE) (arg >> 16)); 	/* Argument[23..16] */
 8003156:	f3c5 4007 	ubfx	r0, r5, #16, #8
 800315a:	f7ff ff31 	bl	8002fc0 <SPI_TxByte>
  SPI_TxByte((BYTE) (arg >> 8)); 	/* Argument[15..8] */
 800315e:	f3c5 2007 	ubfx	r0, r5, #8, #8
 8003162:	f7ff ff2d 	bl	8002fc0 <SPI_TxByte>
  SPI_TxByte((BYTE) arg); 		/* Argument[7..0] */
 8003166:	b2e8      	uxtb	r0, r5
 8003168:	f7ff ff2a 	bl	8002fc0 <SPI_TxByte>
  
  /*  CRC  */
  crc = 0;  
  if (cmd == CMD0)
 800316c:	2c40      	cmp	r4, #64	; 0x40
 800316e:	d013      	beq.n	8003198 <SD_SendCmd+0x5c>
    crc = 0x95; /* CRC for CMD0(0) */
  
  if (cmd == CMD8)
    crc = 0x87; /* CRC for CMD8(0x1AA) */
 8003170:	2c48      	cmp	r4, #72	; 0x48
 8003172:	bf14      	ite	ne
 8003174:	2000      	movne	r0, #0
 8003176:	2087      	moveq	r0, #135	; 0x87
  
  /* CRC  */
  SPI_TxByte(crc);
 8003178:	f7ff ff22 	bl	8002fc0 <SPI_TxByte>
  
  /* CMD12 Stop Reading       */
  if (cmd == CMD12)
 800317c:	2c4c      	cmp	r4, #76	; 0x4c
 800317e:	d101      	bne.n	8003184 <SD_SendCmd+0x48>
    SPI_RxByte();
 8003180:	f7ff ff44 	bl	800300c <SPI_RxByte>
  crc = 0;  
 8003184:	240a      	movs	r4, #10
  
  /* 10    . */
  uint8_t n = 10; 
  do
  {
    res = SPI_RxByte();
 8003186:	f7ff ff41 	bl	800300c <SPI_RxByte>
  } while ((res & 0x80) && --n);
 800318a:	0603      	lsls	r3, r0, #24
 800318c:	d507      	bpl.n	800319e <SD_SendCmd+0x62>
 800318e:	3c01      	subs	r4, #1
 8003190:	f014 04ff 	ands.w	r4, r4, #255	; 0xff
 8003194:	d1f7      	bne.n	8003186 <SD_SendCmd+0x4a>
 8003196:	bd38      	pop	{r3, r4, r5, pc}
    crc = 0x95; /* CRC for CMD0(0) */
 8003198:	2095      	movs	r0, #149	; 0x95
 800319a:	e7ed      	b.n	8003178 <SD_SendCmd+0x3c>
    return 0xFF;
 800319c:	20ff      	movs	r0, #255	; 0xff
  
  return res;
}
 800319e:	bd38      	pop	{r3, r4, r5, pc}

080031a0 <SD_RxDataBlock>:
  Timer1 = 10;
 80031a0:	220a      	movs	r2, #10
{
 80031a2:	b570      	push	{r4, r5, r6, lr}
 80031a4:	4606      	mov	r6, r0
 80031a6:	460d      	mov	r5, r1
  Timer1 = 10;
 80031a8:	4c11      	ldr	r4, [pc, #68]	; (80031f0 <SD_RxDataBlock+0x50>)
 80031aa:	7022      	strb	r2, [r4, #0]
    token = SPI_RxByte();
 80031ac:	f7ff ff2e 	bl	800300c <SPI_RxByte>
  } while((token == 0xFF) && Timer1);
 80031b0:	28ff      	cmp	r0, #255	; 0xff
 80031b2:	d105      	bne.n	80031c0 <SD_RxDataBlock+0x20>
 80031b4:	7823      	ldrb	r3, [r4, #0]
 80031b6:	f003 00ff 	and.w	r0, r3, #255	; 0xff
 80031ba:	2b00      	cmp	r3, #0
 80031bc:	d1f6      	bne.n	80031ac <SD_RxDataBlock+0xc>
 80031be:	bd70      	pop	{r4, r5, r6, pc}
  if(token != 0xFE)
 80031c0:	28fe      	cmp	r0, #254	; 0xfe
 80031c2:	d113      	bne.n	80031ec <SD_RxDataBlock+0x4c>
 80031c4:	1cb4      	adds	r4, r6, #2
  } while(btr -= 2);
 80031c6:	3502      	adds	r5, #2
  *buff = SPI_RxByte();
 80031c8:	f7ff ff20 	bl	800300c <SPI_RxByte>
 80031cc:	f804 0c02 	strb.w	r0, [r4, #-2]
 80031d0:	f7ff ff1c 	bl	800300c <SPI_RxByte>
 80031d4:	3402      	adds	r4, #2
 80031d6:	f804 0c03 	strb.w	r0, [r4, #-3]
  } while(btr -= 2);
 80031da:	1b2b      	subs	r3, r5, r4
 80031dc:	42de      	cmn	r6, r3
 80031de:	d1f3      	bne.n	80031c8 <SD_RxDataBlock+0x28>
  SPI_RxByte(); /* CRC  */
 80031e0:	f7ff ff14 	bl	800300c <SPI_RxByte>
  SPI_RxByte();
 80031e4:	f7ff ff12 	bl	800300c <SPI_RxByte>
 80031e8:	2001      	movs	r0, #1
 80031ea:	bd70      	pop	{r4, r5, r6, pc}
    return FALSE;
 80031ec:	2000      	movs	r0, #0
}
 80031ee:	bd70      	pop	{r4, r5, r6, pc}
 80031f0:	20004531 	.word	0x20004531

080031f4 <SD_disk_initialize>:
  user_diskio.c  .
-----------------------------------------------------------------------*/

/* SD  */
DSTATUS SD_disk_initialize(BYTE drv) 
{
 80031f4:	b5f7      	push	{r0, r1, r2, r4, r5, r6, r7, lr}
  uint8_t n, type, ocr[4];
  
  /*    */
  if(drv)
 80031f6:	2800      	cmp	r0, #0
 80031f8:	f040 8095 	bne.w	8003326 <SD_disk_initialize+0x132>
    return STA_NOINIT;  
  
  /* SD  */
  if(Stat & STA_NODISK)
 80031fc:	4b4b      	ldr	r3, [pc, #300]	; (800332c <SD_disk_initialize+0x138>)
 80031fe:	781c      	ldrb	r4, [r3, #0]
 8003200:	461e      	mov	r6, r3
 8003202:	f014 0402 	ands.w	r4, r4, #2
 8003206:	d003      	beq.n	8003210 <SD_disk_initialize+0x1c>
    return Stat;        
 8003208:	7818      	ldrb	r0, [r3, #0]
  {
    /* Initialization failed */
    SD_PowerOff();
  }
  
  return Stat;
 800320a:	b2c0      	uxtb	r0, r0
}
 800320c:	b003      	add	sp, #12
 800320e:	bdf0      	pop	{r4, r5, r6, r7, pc}
  SD_PowerOn();         
 8003210:	f7ff ff1a 	bl	8003048 <SD_PowerOn>
  SELECT();             
 8003214:	f7ff feea 	bl	8002fec <SELECT>
  if (SD_SendCmd(CMD0, 0) == 1) 
 8003218:	4621      	mov	r1, r4
 800321a:	2040      	movs	r0, #64	; 0x40
 800321c:	f7ff ff8e 	bl	800313c <SD_SendCmd>
 8003220:	2801      	cmp	r0, #1
 8003222:	d170      	bne.n	8003306 <SD_disk_initialize+0x112>
    Timer1 = 100;
 8003224:	2364      	movs	r3, #100	; 0x64
 8003226:	4d42      	ldr	r5, [pc, #264]	; (8003330 <SD_disk_initialize+0x13c>)
    if (SD_SendCmd(CMD8, 0x1AA) == 1) 
 8003228:	f44f 71d5 	mov.w	r1, #426	; 0x1aa
 800322c:	2048      	movs	r0, #72	; 0x48
    Timer1 = 100;
 800322e:	702b      	strb	r3, [r5, #0]
    if (SD_SendCmd(CMD8, 0x1AA) == 1) 
 8003230:	f7ff ff84 	bl	800313c <SD_SendCmd>
 8003234:	2801      	cmp	r0, #1
 8003236:	d144      	bne.n	80032c2 <SD_disk_initialize+0xce>
        ocr[n] = SPI_RxByte();
 8003238:	af01      	add	r7, sp, #4
 800323a:	f7ff fee7 	bl	800300c <SPI_RxByte>
 800323e:	5538      	strb	r0, [r7, r4]
 8003240:	3401      	adds	r4, #1
      for (n = 0; n < 4; n++)
 8003242:	2c04      	cmp	r4, #4
 8003244:	d1f9      	bne.n	800323a <SD_disk_initialize+0x46>
      if (ocr[2] == 0x01 && ocr[3] == 0xAA) 
 8003246:	f89d 3006 	ldrb.w	r3, [sp, #6]
 800324a:	2b01      	cmp	r3, #1
 800324c:	d15b      	bne.n	8003306 <SD_disk_initialize+0x112>
 800324e:	f89d 3007 	ldrb.w	r3, [sp, #7]
 8003252:	2baa      	cmp	r3, #170	; 0xaa
 8003254:	d157      	bne.n	8003306 <SD_disk_initialize+0x112>
          if (SD_SendCmd(CMD55, 0) <= 1 && SD_SendCmd(CMD41, 1UL << 30) == 0)
 8003256:	2100      	movs	r1, #0
 8003258:	2077      	movs	r0, #119	; 0x77
 800325a:	f7ff ff6f 	bl	800313c <SD_SendCmd>
 800325e:	2801      	cmp	r0, #1
 8003260:	d927      	bls.n	80032b2 <SD_disk_initialize+0xbe>
        } while (Timer1);
 8003262:	782b      	ldrb	r3, [r5, #0]
 8003264:	2b00      	cmp	r3, #0
 8003266:	d1f6      	bne.n	8003256 <SD_disk_initialize+0x62>
        if (Timer1 && SD_SendCmd(CMD58, 0) == 0) 
 8003268:	782b      	ldrb	r3, [r5, #0]
 800326a:	2b00      	cmp	r3, #0
 800326c:	d04b      	beq.n	8003306 <SD_disk_initialize+0x112>
 800326e:	2100      	movs	r1, #0
 8003270:	207a      	movs	r0, #122	; 0x7a
 8003272:	f7ff ff63 	bl	800313c <SD_SendCmd>
 8003276:	2800      	cmp	r0, #0
 8003278:	d145      	bne.n	8003306 <SD_disk_initialize+0x112>
 800327a:	4604      	mov	r4, r0
            ocr[n] = SPI_RxByte();
 800327c:	f7ff fec6 	bl	800300c <SPI_RxByte>
 8003280:	5538      	strb	r0, [r7, r4]
 8003282:	3401      	adds	r4, #1
          for (n = 0; n < 4; n++)
 8003284:	2c04      	cmp	r4, #4
 8003286:	d1f9      	bne.n	800327c <SD_disk_initialize+0x88>
          type = (ocr[0] & 0x40) ? 6 : 2;
 8003288:	f89d 3004 	ldrb.w	r3, [sp, #4]
 800328c:	f013 0f40 	tst.w	r3, #64	; 0x40
 8003290:	bf14      	ite	ne
 8003292:	2406      	movne	r4, #6
 8003294:	2402      	moveq	r4, #2
  CardType = type;
 8003296:	4b27      	ldr	r3, [pc, #156]	; (8003334 <SD_disk_initialize+0x140>)
 8003298:	701c      	strb	r4, [r3, #0]
  DESELECT();
 800329a:	f7ff feaf 	bl	8002ffc <DESELECT>
  SPI_RxByte(); /* Idle   (Release DO) */
 800329e:	f7ff feb5 	bl	800300c <SPI_RxByte>
  if (type) 
 80032a2:	2c00      	cmp	r4, #0
 80032a4:	d03c      	beq.n	8003320 <SD_disk_initialize+0x12c>
    Stat &= ~STA_NOINIT; 
 80032a6:	7833      	ldrb	r3, [r6, #0]
 80032a8:	f003 03fe 	and.w	r3, r3, #254	; 0xfe
 80032ac:	7033      	strb	r3, [r6, #0]
  return Stat;
 80032ae:	7830      	ldrb	r0, [r6, #0]
 80032b0:	e7ab      	b.n	800320a <SD_disk_initialize+0x16>
          if (SD_SendCmd(CMD55, 0) <= 1 && SD_SendCmd(CMD41, 1UL << 30) == 0)
 80032b2:	f04f 4180 	mov.w	r1, #1073741824	; 0x40000000
 80032b6:	2069      	movs	r0, #105	; 0x69
 80032b8:	f7ff ff40 	bl	800313c <SD_SendCmd>
 80032bc:	2800      	cmp	r0, #0
 80032be:	d1d0      	bne.n	8003262 <SD_disk_initialize+0x6e>
 80032c0:	e7d2      	b.n	8003268 <SD_disk_initialize+0x74>
      type = (SD_SendCmd(CMD55, 0) <= 1 && SD_SendCmd(CMD41, 0) <= 1) ? 2 : 1; /* SDC : MMC */
 80032c2:	4621      	mov	r1, r4
 80032c4:	2077      	movs	r0, #119	; 0x77
 80032c6:	f7ff ff39 	bl	800313c <SD_SendCmd>
 80032ca:	2801      	cmp	r0, #1
 80032cc:	d805      	bhi.n	80032da <SD_disk_initialize+0xe6>
 80032ce:	4621      	mov	r1, r4
 80032d0:	2069      	movs	r0, #105	; 0x69
 80032d2:	f7ff ff33 	bl	800313c <SD_SendCmd>
 80032d6:	2801      	cmp	r0, #1
 80032d8:	d917      	bls.n	800330a <SD_disk_initialize+0x116>
 80032da:	2401      	movs	r4, #1
        if (type == 2) 
 80032dc:	2c02      	cmp	r4, #2
          if (SD_SendCmd(CMD55, 0) <= 1 && SD_SendCmd(CMD41, 0) == 0)
 80032de:	f04f 0100 	mov.w	r1, #0
        if (type == 2) 
 80032e2:	d11b      	bne.n	800331c <SD_disk_initialize+0x128>
          if (SD_SendCmd(CMD55, 0) <= 1 && SD_SendCmd(CMD41, 0) == 0)
 80032e4:	2077      	movs	r0, #119	; 0x77
 80032e6:	f7ff ff29 	bl	800313c <SD_SendCmd>
 80032ea:	2801      	cmp	r0, #1
 80032ec:	d90f      	bls.n	800330e <SD_disk_initialize+0x11a>
      } while (Timer1);
 80032ee:	782b      	ldrb	r3, [r5, #0]
 80032f0:	2b00      	cmp	r3, #0
 80032f2:	d1f3      	bne.n	80032dc <SD_disk_initialize+0xe8>
      if (!Timer1 || SD_SendCmd(CMD16, 512) != 0) 
 80032f4:	782b      	ldrb	r3, [r5, #0]
 80032f6:	b133      	cbz	r3, 8003306 <SD_disk_initialize+0x112>
 80032f8:	f44f 7100 	mov.w	r1, #512	; 0x200
 80032fc:	2050      	movs	r0, #80	; 0x50
 80032fe:	f7ff ff1d 	bl	800313c <SD_SendCmd>
 8003302:	2800      	cmp	r0, #0
 8003304:	d0c7      	beq.n	8003296 <SD_disk_initialize+0xa2>
        type = 0;
 8003306:	2400      	movs	r4, #0
 8003308:	e7c5      	b.n	8003296 <SD_disk_initialize+0xa2>
      type = (SD_SendCmd(CMD55, 0) <= 1 && SD_SendCmd(CMD41, 0) <= 1) ? 2 : 1; /* SDC : MMC */
 800330a:	2402      	movs	r4, #2
 800330c:	e7e6      	b.n	80032dc <SD_disk_initialize+0xe8>
          if (SD_SendCmd(CMD55, 0) <= 1 && SD_SendCmd(CMD41, 0) == 0)
 800330e:	2100      	movs	r1, #0
 8003310:	2069      	movs	r0, #105	; 0x69
 8003312:	f7ff ff13 	bl	800313c <SD_SendCmd>
 8003316:	2800      	cmp	r0, #0
 8003318:	d1e9      	bne.n	80032ee <SD_disk_initialize+0xfa>
 800331a:	e7eb      	b.n	80032f4 <SD_disk_initialize+0x100>
          if (SD_SendCmd(CMD1, 0) == 0)
 800331c:	2041      	movs	r0, #65	; 0x41
 800331e:	e7f8      	b.n	8003312 <SD_disk_initialize+0x11e>
  PowerFlag = 0;
 8003320:	4b05      	ldr	r3, [pc, #20]	; (8003338 <SD_disk_initialize+0x144>)
 8003322:	701c      	strb	r4, [r3, #0]
 8003324:	e7c3      	b.n	80032ae <SD_disk_initialize+0xba>
    return STA_NOINIT;  
 8003326:	2001      	movs	r0, #1
 8003328:	e770      	b.n	800320c <SD_disk_initialize+0x18>
 800332a:	bf00      	nop
 800332c:	20000008 	.word	0x20000008
 8003330:	20004531 	.word	0x20004531
 8003334:	200002d0 	.word	0x200002d0
 8003338:	200002d1 	.word	0x200002d1

0800333c <SD_disk_status>:

/*    */
DSTATUS SD_disk_status(BYTE drv) 
{
  if (drv)
 800333c:	b918      	cbnz	r0, 8003346 <SD_disk_status+0xa>
    return STA_NOINIT; 
  
  return Stat;
 800333e:	4b03      	ldr	r3, [pc, #12]	; (800334c <SD_disk_status+0x10>)
 8003340:	7818      	ldrb	r0, [r3, #0]
 8003342:	b2c0      	uxtb	r0, r0
 8003344:	4770      	bx	lr
    return STA_NOINIT; 
 8003346:	2001      	movs	r0, #1
}
 8003348:	4770      	bx	lr
 800334a:	bf00      	nop
 800334c:	20000008 	.word	0x20000008

08003350 <SD_disk_read>:

/*   */
DRESULT SD_disk_read(BYTE pdrv, BYTE* buff, DWORD sector, UINT count) 
{
 8003350:	b570      	push	{r4, r5, r6, lr}
 8003352:	460d      	mov	r5, r1
 8003354:	4616      	mov	r6, r2
 8003356:	461c      	mov	r4, r3
  if (pdrv || !count)
 8003358:	2800      	cmp	r0, #0
 800335a:	d137      	bne.n	80033cc <SD_disk_read+0x7c>
 800335c:	2b00      	cmp	r3, #0
 800335e:	d035      	beq.n	80033cc <SD_disk_read+0x7c>
    return RES_PARERR;
  
  if (Stat & STA_NOINIT)
 8003360:	4b1c      	ldr	r3, [pc, #112]	; (80033d4 <SD_disk_read+0x84>)
 8003362:	781b      	ldrb	r3, [r3, #0]
 8003364:	07da      	lsls	r2, r3, #31
 8003366:	d433      	bmi.n	80033d0 <SD_disk_read+0x80>
    return RES_NOTRDY;
  
  if (!(CardType & 4))
 8003368:	4b1b      	ldr	r3, [pc, #108]	; (80033d8 <SD_disk_read+0x88>)
 800336a:	781b      	ldrb	r3, [r3, #0]
 800336c:	075b      	lsls	r3, r3, #29
    sector *= 512;      /*  sector Byte addressing   */
 800336e:	bf58      	it	pl
 8003370:	0276      	lslpl	r6, r6, #9
  
  SELECT();
 8003372:	f7ff fe3b 	bl	8002fec <SELECT>
  
  if (count == 1) 
 8003376:	2c01      	cmp	r4, #1
  { 
    /*    */
    if ((SD_SendCmd(CMD17, sector) == 0) && SD_RxDataBlock(buff, 512))
 8003378:	4631      	mov	r1, r6
  if (count == 1) 
 800337a:	d113      	bne.n	80033a4 <SD_disk_read+0x54>
    if ((SD_SendCmd(CMD17, sector) == 0) && SD_RxDataBlock(buff, 512))
 800337c:	2051      	movs	r0, #81	; 0x51
 800337e:	f7ff fedd 	bl	800313c <SD_SendCmd>
 8003382:	b938      	cbnz	r0, 8003394 <SD_disk_read+0x44>
 8003384:	f44f 7100 	mov.w	r1, #512	; 0x200
 8003388:	4628      	mov	r0, r5
 800338a:	f7ff ff09 	bl	80031a0 <SD_RxDataBlock>
 800338e:	fab0 f480 	clz	r4, r0
 8003392:	0964      	lsrs	r4, r4, #5
      /* STOP_TRANSMISSION,     ,    */
      SD_SendCmd(CMD12, 0); 
    }
  }
  
  DESELECT();
 8003394:	f7ff fe32 	bl	8002ffc <DESELECT>
  SPI_RxByte(); /* Idle (Release DO) */
 8003398:	f7ff fe38 	bl	800300c <SPI_RxByte>
  
  return count ? RES_ERROR : RES_OK;
 800339c:	1c20      	adds	r0, r4, #0
 800339e:	bf18      	it	ne
 80033a0:	2001      	movne	r0, #1
 80033a2:	bd70      	pop	{r4, r5, r6, pc}
    if (SD_SendCmd(CMD18, sector) == 0) 
 80033a4:	2052      	movs	r0, #82	; 0x52
 80033a6:	f7ff fec9 	bl	800313c <SD_SendCmd>
 80033aa:	2800      	cmp	r0, #0
 80033ac:	d1f2      	bne.n	8003394 <SD_disk_read+0x44>
        if (!SD_RxDataBlock(buff, 512))
 80033ae:	f44f 7100 	mov.w	r1, #512	; 0x200
 80033b2:	4628      	mov	r0, r5
 80033b4:	f7ff fef4 	bl	80031a0 <SD_RxDataBlock>
 80033b8:	b118      	cbz	r0, 80033c2 <SD_disk_read+0x72>
      } while (--count);
 80033ba:	3c01      	subs	r4, #1
        buff += 512;
 80033bc:	f505 7500 	add.w	r5, r5, #512	; 0x200
      } while (--count);
 80033c0:	d1f5      	bne.n	80033ae <SD_disk_read+0x5e>
      SD_SendCmd(CMD12, 0); 
 80033c2:	2100      	movs	r1, #0
 80033c4:	204c      	movs	r0, #76	; 0x4c
 80033c6:	f7ff feb9 	bl	800313c <SD_SendCmd>
 80033ca:	e7e3      	b.n	8003394 <SD_disk_read+0x44>
    return RES_PARERR;
 80033cc:	2004      	movs	r0, #4
 80033ce:	bd70      	pop	{r4, r5, r6, pc}
    return RES_NOTRDY;
 80033d0:	2003      	movs	r0, #3
}
 80033d2:	bd70      	pop	{r4, r5, r6, pc}
 80033d4:	20000008 	.word	0x20000008
 80033d8:	200002d0 	.word	0x200002d0

080033dc <SD_disk_write>:
/*   */
#if _READONLY == 0
DRESULT SD_disk_write(BYTE pdrv, const BYTE* buff, DWORD sector, UINT count) 
{
 80033dc:	b5f8      	push	{r3, r4, r5, r6, r7, lr}
 80033de:	460d      	mov	r5, r1
 80033e0:	4616      	mov	r6, r2
 80033e2:	461c      	mov	r4, r3
  if (pdrv || !count)
 80033e4:	2800      	cmp	r0, #0
 80033e6:	d147      	bne.n	8003478 <SD_disk_write+0x9c>
 80033e8:	2b00      	cmp	r3, #0
 80033ea:	d045      	beq.n	8003478 <SD_disk_write+0x9c>
    return RES_PARERR;
  
  if (Stat & STA_NOINIT)
 80033ec:	4b25      	ldr	r3, [pc, #148]	; (8003484 <SD_disk_write+0xa8>)
 80033ee:	781a      	ldrb	r2, [r3, #0]
 80033f0:	07d0      	lsls	r0, r2, #31
 80033f2:	d443      	bmi.n	800347c <SD_disk_write+0xa0>
    return RES_NOTRDY;
  
  if (Stat & STA_PROTECT)
 80033f4:	781b      	ldrb	r3, [r3, #0]
 80033f6:	0759      	lsls	r1, r3, #29
 80033f8:	d442      	bmi.n	8003480 <SD_disk_write+0xa4>
    return RES_WRPRT;
  
  if (!(CardType & 4))
 80033fa:	4f23      	ldr	r7, [pc, #140]	; (8003488 <SD_disk_write+0xac>)
 80033fc:	783a      	ldrb	r2, [r7, #0]
 80033fe:	0752      	lsls	r2, r2, #29
    sector *= 512; /*  sector Byte addressing   */
 8003400:	bf58      	it	pl
 8003402:	0276      	lslpl	r6, r6, #9
  
  SELECT();
 8003404:	f7ff fdf2 	bl	8002fec <SELECT>
  
  if (count == 1) 
 8003408:	2c01      	cmp	r4, #1
 800340a:	d113      	bne.n	8003434 <SD_disk_write+0x58>
  { 
    /*    */
    if ((SD_SendCmd(CMD24, sector) == 0) && SD_TxDataBlock(buff, 0xFE))
 800340c:	4631      	mov	r1, r6
 800340e:	2058      	movs	r0, #88	; 0x58
 8003410:	f7ff fe94 	bl	800313c <SD_SendCmd>
 8003414:	bb70      	cbnz	r0, 8003474 <SD_disk_write+0x98>
 8003416:	21fe      	movs	r1, #254	; 0xfe
 8003418:	4628      	mov	r0, r5
 800341a:	f7ff fe59 	bl	80030d0 <SD_TxDataBlock>
 800341e:	fab0 f480 	clz	r4, r0
 8003422:	0964      	lsrs	r4, r4, #5
        count = 1;
      }
    }
  }
  
  DESELECT();
 8003424:	f7ff fdea 	bl	8002ffc <DESELECT>
  SPI_RxByte();
 8003428:	f7ff fdf0 	bl	800300c <SPI_RxByte>
  
  return count ? RES_ERROR : RES_OK;
 800342c:	1c20      	adds	r0, r4, #0
 800342e:	bf18      	it	ne
 8003430:	2001      	movne	r0, #1
 8003432:	bdf8      	pop	{r3, r4, r5, r6, r7, pc}
    if (CardType & 2) 
 8003434:	783b      	ldrb	r3, [r7, #0]
 8003436:	079b      	lsls	r3, r3, #30
 8003438:	d507      	bpl.n	800344a <SD_disk_write+0x6e>
      SD_SendCmd(CMD55, 0);
 800343a:	2100      	movs	r1, #0
 800343c:	2077      	movs	r0, #119	; 0x77
 800343e:	f7ff fe7d 	bl	800313c <SD_SendCmd>
      SD_SendCmd(CMD23, count); /* ACMD23 */
 8003442:	4621      	mov	r1, r4
 8003444:	2057      	movs	r0, #87	; 0x57
 8003446:	f7ff fe79 	bl	800313c <SD_SendCmd>
    if (SD_SendCmd(CMD25, sector) == 0) 
 800344a:	4631      	mov	r1, r6
 800344c:	2059      	movs	r0, #89	; 0x59
 800344e:	f7ff fe75 	bl	800313c <SD_SendCmd>
 8003452:	2800      	cmp	r0, #0
 8003454:	d1e6      	bne.n	8003424 <SD_disk_write+0x48>
        if(!SD_TxDataBlock(buff, 0xFC))
 8003456:	21fc      	movs	r1, #252	; 0xfc
 8003458:	4628      	mov	r0, r5
 800345a:	f7ff fe39 	bl	80030d0 <SD_TxDataBlock>
 800345e:	b118      	cbz	r0, 8003468 <SD_disk_write+0x8c>
      } while (--count);
 8003460:	3c01      	subs	r4, #1
        buff += 512;
 8003462:	f505 7500 	add.w	r5, r5, #512	; 0x200
      } while (--count);
 8003466:	d1f6      	bne.n	8003456 <SD_disk_write+0x7a>
      if(!SD_TxDataBlock(0, 0xFD))
 8003468:	21fd      	movs	r1, #253	; 0xfd
 800346a:	2000      	movs	r0, #0
 800346c:	f7ff fe30 	bl	80030d0 <SD_TxDataBlock>
 8003470:	2800      	cmp	r0, #0
 8003472:	d1d7      	bne.n	8003424 <SD_disk_write+0x48>
        count = 1;
 8003474:	2401      	movs	r4, #1
 8003476:	e7d5      	b.n	8003424 <SD_disk_write+0x48>
    return RES_PARERR;
 8003478:	2004      	movs	r0, #4
 800347a:	bdf8      	pop	{r3, r4, r5, r6, r7, pc}
    return RES_NOTRDY;
 800347c:	2003      	movs	r0, #3
 800347e:	bdf8      	pop	{r3, r4, r5, r6, r7, pc}
    return RES_WRPRT;
 8003480:	2002      	movs	r0, #2
}
 8003482:	bdf8      	pop	{r3, r4, r5, r6, r7, pc}
 8003484:	20000008 	.word	0x20000008
 8003488:	200002d0 	.word	0x200002d0

0800348c <SD_disk_ioctl>:
#endif /* _READONLY */

/*   */
DRESULT SD_disk_ioctl(BYTE drv, BYTE ctrl, void *buff) 
{
 800348c:	b57f      	push	{r0, r1, r2, r3, r4, r5, r6, lr}
 800348e:	460c      	mov	r4, r1
 8003490:	4615      	mov	r5, r2
  DRESULT res;
  BYTE n, csd[16], *ptr = buff;
  WORD csize;
  
  if (drv)
 8003492:	4606      	mov	r6, r0
 8003494:	b938      	cbnz	r0, 80034a6 <SD_disk_ioctl+0x1a>
    return RES_PARERR;
  
  res = RES_ERROR;
  
  if (ctrl == CTRL_POWER) 
 8003496:	2905      	cmp	r1, #5
 8003498:	d116      	bne.n	80034c8 <SD_disk_ioctl+0x3c>
  {
    switch (*ptr) 
 800349a:	7813      	ldrb	r3, [r2, #0]
 800349c:	2b01      	cmp	r3, #1
 800349e:	d00c      	beq.n	80034ba <SD_disk_ioctl+0x2e>
 80034a0:	d303      	bcc.n	80034aa <SD_disk_ioctl+0x1e>
 80034a2:	2b02      	cmp	r3, #2
 80034a4:	d00c      	beq.n	80034c0 <SD_disk_ioctl+0x34>
    case 2:
      *(ptr + 1) = (BYTE) SD_CheckPower();
      res = RES_OK;             /* Power Check */
      break;
    default:
      res = RES_PARERR;
 80034a6:	2404      	movs	r4, #4
 80034a8:	e004      	b.n	80034b4 <SD_disk_ioctl+0x28>
  return PowerFlag;
 80034aa:	4b48      	ldr	r3, [pc, #288]	; (80035cc <SD_disk_ioctl+0x140>)
      if (SD_CheckPower())
 80034ac:	781c      	ldrb	r4, [r3, #0]
 80034ae:	b10c      	cbz	r4, 80034b4 <SD_disk_ioctl+0x28>
  PowerFlag = 0;
 80034b0:	7018      	strb	r0, [r3, #0]
      res = RES_OK;             /* Power Check */
 80034b2:	4634      	mov	r4, r6
    DESELECT();
    SPI_RxByte();
  }
  
  return res;
}
 80034b4:	4620      	mov	r0, r4
 80034b6:	b004      	add	sp, #16
 80034b8:	bd70      	pop	{r4, r5, r6, pc}
      SD_PowerOn();             /* Power On */
 80034ba:	f7ff fdc5 	bl	8003048 <SD_PowerOn>
 80034be:	e7f8      	b.n	80034b2 <SD_disk_ioctl+0x26>
  return PowerFlag;
 80034c0:	4b42      	ldr	r3, [pc, #264]	; (80035cc <SD_disk_ioctl+0x140>)
      *(ptr + 1) = (BYTE) SD_CheckPower();
 80034c2:	781b      	ldrb	r3, [r3, #0]
 80034c4:	7053      	strb	r3, [r2, #1]
 80034c6:	e7f4      	b.n	80034b2 <SD_disk_ioctl+0x26>
    if (Stat & STA_NOINIT)
 80034c8:	4b41      	ldr	r3, [pc, #260]	; (80035d0 <SD_disk_ioctl+0x144>)
 80034ca:	781b      	ldrb	r3, [r3, #0]
 80034cc:	07db      	lsls	r3, r3, #31
 80034ce:	d47a      	bmi.n	80035c6 <SD_disk_ioctl+0x13a>
    SELECT();
 80034d0:	f7ff fd8c 	bl	8002fec <SELECT>
    switch (ctrl) 
 80034d4:	2c0d      	cmp	r4, #13
 80034d6:	d86c      	bhi.n	80035b2 <SD_disk_ioctl+0x126>
 80034d8:	e8df f004 	tbb	[pc, r4]
 80034dc:	6b49074e 	.word	0x6b49074e
 80034e0:	6b6b6b6b 	.word	0x6b6b6b6b
 80034e4:	556b6b6b 	.word	0x556b6b6b
 80034e8:	6663      	.short	0x6663
      if ((SD_SendCmd(CMD9, 0) == 0) && SD_RxDataBlock(csd, 16)) 
 80034ea:	2100      	movs	r1, #0
 80034ec:	2049      	movs	r0, #73	; 0x49
 80034ee:	f7ff fe25 	bl	800313c <SD_SendCmd>
 80034f2:	4604      	mov	r4, r0
 80034f4:	b128      	cbz	r0, 8003502 <SD_disk_ioctl+0x76>
  res = RES_ERROR;
 80034f6:	2401      	movs	r4, #1
    DESELECT();
 80034f8:	f7ff fd80 	bl	8002ffc <DESELECT>
    SPI_RxByte();
 80034fc:	f7ff fd86 	bl	800300c <SPI_RxByte>
 8003500:	e7d8      	b.n	80034b4 <SD_disk_ioctl+0x28>
      if ((SD_SendCmd(CMD9, 0) == 0) && SD_RxDataBlock(csd, 16)) 
 8003502:	2110      	movs	r1, #16
 8003504:	4668      	mov	r0, sp
 8003506:	f7ff fe4b 	bl	80031a0 <SD_RxDataBlock>
 800350a:	2800      	cmp	r0, #0
 800350c:	d0f3      	beq.n	80034f6 <SD_disk_ioctl+0x6a>
        if ((csd[0] >> 6) == 1) 
 800350e:	f89d 3000 	ldrb.w	r3, [sp]
 8003512:	f89d 1008 	ldrb.w	r1, [sp, #8]
 8003516:	099b      	lsrs	r3, r3, #6
 8003518:	2b01      	cmp	r3, #1
 800351a:	f89d 3009 	ldrb.w	r3, [sp, #9]
 800351e:	d106      	bne.n	800352e <SD_disk_ioctl+0xa2>
          csize = csd[9] + ((WORD) csd[8] << 8) + 1;
 8003520:	1c5a      	adds	r2, r3, #1
 8003522:	eb02 2201 	add.w	r2, r2, r1, lsl #8
          *(DWORD*) buff = (DWORD) csize << 10;
 8003526:	b292      	uxth	r2, r2
 8003528:	0292      	lsls	r2, r2, #10
 800352a:	602a      	str	r2, [r5, #0]
 800352c:	e7e4      	b.n	80034f8 <SD_disk_ioctl+0x6c>
          csize = (csd[8] >> 6) + ((WORD) csd[7] << 2) + ((WORD) (csd[6] & 3) << 10) + 1;
 800352e:	f89d 2007 	ldrb.w	r2, [sp, #7]
          n = (csd[5] & 15) + ((csd[10] & 128) >> 7) + ((csd[9] & 3) << 1) + 2;
 8003532:	f89d 000a 	ldrb.w	r0, [sp, #10]
          csize = (csd[8] >> 6) + ((WORD) csd[7] << 2) + ((WORD) (csd[6] & 3) << 10) + 1;
 8003536:	0092      	lsls	r2, r2, #2
 8003538:	eb02 1291 	add.w	r2, r2, r1, lsr #6
 800353c:	f89d 1006 	ldrb.w	r1, [sp, #6]
 8003540:	3201      	adds	r2, #1
 8003542:	0289      	lsls	r1, r1, #10
 8003544:	f401 6140 	and.w	r1, r1, #3072	; 0xc00
 8003548:	440a      	add	r2, r1
          n = (csd[5] & 15) + ((csd[10] & 128) >> 7) + ((csd[9] & 3) << 1) + 2;
 800354a:	f89d 1005 	ldrb.w	r1, [sp, #5]
 800354e:	005b      	lsls	r3, r3, #1
 8003550:	f001 010f 	and.w	r1, r1, #15
 8003554:	eb01 11d0 	add.w	r1, r1, r0, lsr #7
 8003558:	3102      	adds	r1, #2
 800355a:	f003 0306 	and.w	r3, r3, #6
 800355e:	440b      	add	r3, r1
          *(DWORD*) buff = (DWORD) csize << (n - 9);
 8003560:	b2db      	uxtb	r3, r3
 8003562:	b292      	uxth	r2, r2
 8003564:	3b09      	subs	r3, #9
 8003566:	fa02 f303 	lsl.w	r3, r2, r3
 800356a:	602b      	str	r3, [r5, #0]
 800356c:	e7c4      	b.n	80034f8 <SD_disk_ioctl+0x6c>
      *(WORD*) buff = 512;
 800356e:	f44f 7300 	mov.w	r3, #512	; 0x200
      res = RES_OK;
 8003572:	2400      	movs	r4, #0
      *(WORD*) buff = 512;
 8003574:	802b      	strh	r3, [r5, #0]
      break;
 8003576:	e7bf      	b.n	80034f8 <SD_disk_ioctl+0x6c>
      if (SD_ReadyWait() == 0xFF)
 8003578:	f7ff fd9a 	bl	80030b0 <SD_ReadyWait>
  res = RES_ERROR;
 800357c:	f1b0 04ff 	subs.w	r4, r0, #255	; 0xff
 8003580:	bf18      	it	ne
 8003582:	2401      	movne	r4, #1
 8003584:	e7b8      	b.n	80034f8 <SD_disk_ioctl+0x6c>
      if (SD_SendCmd(CMD9, 0) == 0 && SD_RxDataBlock(ptr, 16))
 8003586:	2100      	movs	r1, #0
 8003588:	2049      	movs	r0, #73	; 0x49
      if (SD_SendCmd(CMD10, 0) == 0 && SD_RxDataBlock(ptr, 16))
 800358a:	f7ff fdd7 	bl	800313c <SD_SendCmd>
 800358e:	2800      	cmp	r0, #0
 8003590:	d1b1      	bne.n	80034f6 <SD_disk_ioctl+0x6a>
 8003592:	2110      	movs	r1, #16
 8003594:	4628      	mov	r0, r5
 8003596:	f7ff fe03 	bl	80031a0 <SD_RxDataBlock>
  res = RES_ERROR;
 800359a:	fab0 f480 	clz	r4, r0
 800359e:	0964      	lsrs	r4, r4, #5
 80035a0:	e7aa      	b.n	80034f8 <SD_disk_ioctl+0x6c>
      if (SD_SendCmd(CMD10, 0) == 0 && SD_RxDataBlock(ptr, 16))
 80035a2:	2100      	movs	r1, #0
 80035a4:	204a      	movs	r0, #74	; 0x4a
 80035a6:	e7f0      	b.n	800358a <SD_disk_ioctl+0xfe>
      if (SD_SendCmd(CMD58, 0) == 0) 
 80035a8:	2100      	movs	r1, #0
 80035aa:	207a      	movs	r0, #122	; 0x7a
 80035ac:	f7ff fdc6 	bl	800313c <SD_SendCmd>
 80035b0:	b108      	cbz	r0, 80035b6 <SD_disk_ioctl+0x12a>
      res = RES_PARERR;
 80035b2:	2404      	movs	r4, #4
 80035b4:	e7a0      	b.n	80034f8 <SD_disk_ioctl+0x6c>
 80035b6:	1d2c      	adds	r4, r5, #4
          *ptr++ = SPI_RxByte();
 80035b8:	f7ff fd28 	bl	800300c <SPI_RxByte>
 80035bc:	f805 0b01 	strb.w	r0, [r5], #1
        for (n = 0; n < 4; n++)
 80035c0:	42a5      	cmp	r5, r4
 80035c2:	d1f9      	bne.n	80035b8 <SD_disk_ioctl+0x12c>
 80035c4:	e7f5      	b.n	80035b2 <SD_disk_ioctl+0x126>
      return RES_NOTRDY;
 80035c6:	2403      	movs	r4, #3
 80035c8:	e774      	b.n	80034b4 <SD_disk_ioctl+0x28>
 80035ca:	bf00      	nop
 80035cc:	200002d1 	.word	0x200002d1
 80035d0:	20000008 	.word	0x20000008

080035d4 <MX_GPIO_Init>:
        * EXTI
*/
void MX_GPIO_Init(void)
{

  GPIO_InitTypeDef GPIO_InitStruct = {0};
 80035d4:	2210      	movs	r2, #16
{
 80035d6:	b5f0      	push	{r4, r5, r6, r7, lr}
 80035d8:	b089      	sub	sp, #36	; 0x24
  GPIO_InitTypeDef GPIO_InitStruct = {0};
 80035da:	eb0d 0002 	add.w	r0, sp, r2
 80035de:	2100      	movs	r1, #0
 80035e0:	f000 ff78 	bl	80044d4 <memset>

  /* GPIO Ports Clock Enable */
  __HAL_RCC_GPIOD_CLK_ENABLE();
 80035e4:	4b2d      	ldr	r3, [pc, #180]	; (800369c <MX_GPIO_Init+0xc8>)
  __HAL_RCC_GPIOC_CLK_ENABLE();
  __HAL_RCC_GPIOA_CLK_ENABLE();
  __HAL_RCC_GPIOB_CLK_ENABLE();

  /*Configure GPIO pin Output Level */
  HAL_GPIO_WritePin(GPIOB, GPIO_PIN_0|GPIO_PIN_1|GPIO_PIN_12, GPIO_PIN_RESET);
 80035e6:	4f2e      	ldr	r7, [pc, #184]	; (80036a0 <MX_GPIO_Init+0xcc>)
  __HAL_RCC_GPIOD_CLK_ENABLE();
 80035e8:	699a      	ldr	r2, [r3, #24]

  /*Configure GPIO pin Output Level */
  HAL_GPIO_WritePin(SD_CS_GPIO_Port, SD_CS_Pin, GPIO_PIN_SET);
 80035ea:	4d2e      	ldr	r5, [pc, #184]	; (80036a4 <MX_GPIO_Init+0xd0>)
  __HAL_RCC_GPIOD_CLK_ENABLE();
 80035ec:	f042 0220 	orr.w	r2, r2, #32
 80035f0:	619a      	str	r2, [r3, #24]
 80035f2:	699a      	ldr	r2, [r3, #24]
  HAL_GPIO_WritePin(GPIOB, GPIO_PIN_0|GPIO_PIN_1|GPIO_PIN_12, GPIO_PIN_RESET);
 80035f4:	4638      	mov	r0, r7
  __HAL_RCC_GPIOD_CLK_ENABLE();
 80035f6:	f002 0220 	and.w	r2, r2, #32
 80035fa:	9200      	str	r2, [sp, #0]
 80035fc:	9a00      	ldr	r2, [sp, #0]
  __HAL_RCC_GPIOC_CLK_ENABLE();
 80035fe:	699a      	ldr	r2, [r3, #24]
  HAL_GPIO_WritePin(GPIOB, GPIO_PIN_0|GPIO_PIN_1|GPIO_PIN_12, GPIO_PIN_RESET);
 8003600:	f241 0103 	movw	r1, #4099	; 0x1003
  __HAL_RCC_GPIOC_CLK_ENABLE();
 8003604:	f042 0210 	orr.w	r2, r2, #16
 8003608:	619a      	str	r2, [r3, #24]
 800360a:	699a      	ldr	r2, [r3, #24]

  /*Configure GPIO pins : PC1 PC2 PC3 PC4 */
  GPIO_InitStruct.Pin = GPIO_PIN_1|GPIO_PIN_2|GPIO_PIN_3|GPIO_PIN_4;
  GPIO_InitStruct.Mode = GPIO_MODE_IT_RISING;
  GPIO_InitStruct.Pull = GPIO_NOPULL;
 800360c:	2400      	movs	r4, #0
  __HAL_RCC_GPIOC_CLK_ENABLE();
 800360e:	f002 0210 	and.w	r2, r2, #16
 8003612:	9201      	str	r2, [sp, #4]
 8003614:	9a01      	ldr	r2, [sp, #4]
  __HAL_RCC_GPIOA_CLK_ENABLE();
 8003616:	699a      	ldr	r2, [r3, #24]
  HAL_GPIO_Init(GPIOC, &GPIO_InitStruct);

  /*Configure GPIO pins : PB0 PB1 PB12 */
  GPIO_InitStruct.Pin = GPIO_PIN_0|GPIO_PIN_1|GPIO_PIN_12;
  GPIO_InitStruct.Mode = GPIO_MODE_OUTPUT_PP;
 8003618:	2601      	movs	r6, #1
  __HAL_RCC_GPIOA_CLK_ENABLE();
 800361a:	f042 0204 	orr.w	r2, r2, #4
 800361e:	619a      	str	r2, [r3, #24]
 8003620:	699a      	ldr	r2, [r3, #24]
 8003622:	f002 0204 	and.w	r2, r2, #4
 8003626:	9202      	str	r2, [sp, #8]
 8003628:	9a02      	ldr	r2, [sp, #8]
  __HAL_RCC_GPIOB_CLK_ENABLE();
 800362a:	699a      	ldr	r2, [r3, #24]
 800362c:	f042 0208 	orr.w	r2, r2, #8
 8003630:	619a      	str	r2, [r3, #24]
 8003632:	699b      	ldr	r3, [r3, #24]
  HAL_GPIO_WritePin(GPIOB, GPIO_PIN_0|GPIO_PIN_1|GPIO_PIN_12, GPIO_PIN_RESET);
 8003634:	2200      	movs	r2, #0
  __HAL_RCC_GPIOB_CLK_ENABLE();
 8003636:	f003 0308 	and.w	r3, r3, #8
 800363a:	9303      	str	r3, [sp, #12]
 800363c:	9b03      	ldr	r3, [sp, #12]
  HAL_GPIO_WritePin(GPIOB, GPIO_PIN_0|GPIO_PIN_1|GPIO_PIN_12, GPIO_PIN_RESET);
 800363e:	f7fc ff33 	bl	80004a8 <HAL_GPIO_WritePin>
  HAL_GPIO_WritePin(SD_CS_GPIO_Port, SD_CS_Pin, GPIO_PIN_SET);
 8003642:	2201      	movs	r2, #1
 8003644:	4628      	mov	r0, r5
 8003646:	2180      	movs	r1, #128	; 0x80
 8003648:	f7fc ff2e 	bl	80004a8 <HAL_GPIO_WritePin>
  GPIO_InitStruct.Pin = GPIO_PIN_1|GPIO_PIN_2|GPIO_PIN_3|GPIO_PIN_4;
 800364c:	231e      	movs	r3, #30
 800364e:	9304      	str	r3, [sp, #16]
  GPIO_InitStruct.Mode = GPIO_MODE_IT_RISING;
 8003650:	4b15      	ldr	r3, [pc, #84]	; (80036a8 <MX_GPIO_Init+0xd4>)
  HAL_GPIO_Init(GPIOC, &GPIO_InitStruct);
 8003652:	a904      	add	r1, sp, #16
 8003654:	4628      	mov	r0, r5
  GPIO_InitStruct.Mode = GPIO_MODE_IT_RISING;
 8003656:	9305      	str	r3, [sp, #20]
  GPIO_InitStruct.Pull = GPIO_NOPULL;
 8003658:	9406      	str	r4, [sp, #24]
  HAL_GPIO_Init(GPIOC, &GPIO_InitStruct);
 800365a:	f7fc fe3f 	bl	80002dc <HAL_GPIO_Init>
  GPIO_InitStruct.Pin = GPIO_PIN_0|GPIO_PIN_1|GPIO_PIN_12;
 800365e:	f241 0303 	movw	r3, #4099	; 0x1003
 8003662:	9304      	str	r3, [sp, #16]
  GPIO_InitStruct.Pull = GPIO_NOPULL;
  GPIO_InitStruct.Speed = GPIO_SPEED_FREQ_LOW;
 8003664:	2302      	movs	r3, #2
  HAL_GPIO_Init(GPIOB, &GPIO_InitStruct);
 8003666:	a904      	add	r1, sp, #16
 8003668:	4638      	mov	r0, r7
  GPIO_InitStruct.Speed = GPIO_SPEED_FREQ_LOW;
 800366a:	9307      	str	r3, [sp, #28]
  GPIO_InitStruct.Mode = GPIO_MODE_OUTPUT_PP;
 800366c:	9605      	str	r6, [sp, #20]
  GPIO_InitStruct.Pull = GPIO_NOPULL;
 800366e:	9406      	str	r4, [sp, #24]
  HAL_GPIO_Init(GPIOB, &GPIO_InitStruct);
 8003670:	f7fc fe34 	bl	80002dc <HAL_GPIO_Init>

  /*Configure GPIO pin : PB2 */
  GPIO_InitStruct.Pin = GPIO_PIN_2;
 8003674:	2304      	movs	r3, #4
  GPIO_InitStruct.Mode = GPIO_MODE_INPUT;
  GPIO_InitStruct.Pull = GPIO_NOPULL;
  HAL_GPIO_Init(GPIOB, &GPIO_InitStruct);
 8003676:	a904      	add	r1, sp, #16
 8003678:	4638      	mov	r0, r7
  GPIO_InitStruct.Pin = GPIO_PIN_2;
 800367a:	9304      	str	r3, [sp, #16]
  GPIO_InitStruct.Mode = GPIO_MODE_INPUT;
 800367c:	9405      	str	r4, [sp, #20]
  GPIO_InitStruct.Pull = GPIO_NOPULL;
 800367e:	9406      	str	r4, [sp, #24]
  HAL_GPIO_Init(GPIOB, &GPIO_InitStruct);
 8003680:	f7fc fe2c 	bl	80002dc <HAL_GPIO_Init>

  /*Configure GPIO pin : PtPin */
  GPIO_InitStruct.Pin = SD_CS_Pin;
 8003684:	2380      	movs	r3, #128	; 0x80
  GPIO_InitStruct.Mode = GPIO_MODE_OUTPUT_PP;
  GPIO_InitStruct.Pull = GPIO_NOPULL;
  GPIO_InitStruct.Speed = GPIO_SPEED_FREQ_MEDIUM;
  HAL_GPIO_Init(SD_CS_GPIO_Port, &GPIO_InitStruct);
 8003686:	a904      	add	r1, sp, #16
 8003688:	4628      	mov	r0, r5
  GPIO_InitStruct.Pin = SD_CS_Pin;
 800368a:	9304      	str	r3, [sp, #16]
  GPIO_InitStruct.Mode = GPIO_MODE_OUTPUT_PP;
 800368c:	9605      	str	r6, [sp, #20]
  GPIO_InitStruct.Pull = GPIO_NOPULL;
 800368e:	9406      	str	r4, [sp, #24]
  GPIO_InitStruct.Speed = GPIO_SPEED_FREQ_MEDIUM;
 8003690:	9607      	str	r6, [sp, #28]
  HAL_GPIO_Init(SD_CS_GPIO_Port, &GPIO_InitStruct);
 8003692:	f7fc fe23 	bl	80002dc <HAL_GPIO_Init>

}
 8003696:	b009      	add	sp, #36	; 0x24
 8003698:	bdf0      	pop	{r4, r5, r6, r7, pc}
 800369a:	bf00      	nop
 800369c:	40021000 	.word	0x40021000
 80036a0:	40010c00 	.word	0x40010c00
 80036a4:	40011000 	.word	0x40011000
 80036a8:	10110000 	.word	0x10110000

080036ac <MX_I2C1_Init>:

I2C_HandleTypeDef hi2c1;

/* I2C1 init function */
void MX_I2C1_Init(void)
{
 80036ac:	b508      	push	{r3, lr}

  hi2c1.Instance = I2C1;
 80036ae:	480c      	ldr	r0, [pc, #48]	; (80036e0 <MX_I2C1_Init+0x34>)
  hi2c1.Init.ClockSpeed = 100000;
 80036b0:	4b0c      	ldr	r3, [pc, #48]	; (80036e4 <MX_I2C1_Init+0x38>)
 80036b2:	f8df e034 	ldr.w	lr, [pc, #52]	; 80036e8 <MX_I2C1_Init+0x3c>
  hi2c1.Init.DutyCycle = I2C_DUTYCYCLE_2;
  hi2c1.Init.OwnAddress1 = 0;
  hi2c1.Init.AddressingMode = I2C_ADDRESSINGMODE_7BIT;
 80036b6:	f44f 4280 	mov.w	r2, #16384	; 0x4000
  hi2c1.Init.ClockSpeed = 100000;
 80036ba:	e880 4008 	stmia.w	r0, {r3, lr}
  hi2c1.Init.DutyCycle = I2C_DUTYCYCLE_2;
 80036be:	2300      	movs	r3, #0
  hi2c1.Init.AddressingMode = I2C_ADDRESSINGMODE_7BIT;
 80036c0:	6102      	str	r2, [r0, #16]
  hi2c1.Init.DutyCycle = I2C_DUTYCYCLE_2;
 80036c2:	6083      	str	r3, [r0, #8]
  hi2c1.Init.OwnAddress1 = 0;
 80036c4:	60c3      	str	r3, [r0, #12]
  hi2c1.Init.DualAddressMode = I2C_DUALADDRESS_DISABLE;
 80036c6:	6143      	str	r3, [r0, #20]
  hi2c1.Init.OwnAddress2 = 0;
 80036c8:	6183      	str	r3, [r0, #24]
  hi2c1.Init.GeneralCallMode = I2C_GENERALCALL_DISABLE;
 80036ca:	61c3      	str	r3, [r0, #28]
  hi2c1.Init.NoStretchMode = I2C_NOSTRETCH_DISABLE;
 80036cc:	6203      	str	r3, [r0, #32]
  if (HAL_I2C_Init(&hi2c1) != HAL_OK)
 80036ce:	f7fc ffcd 	bl	800066c <HAL_I2C_Init>
 80036d2:	b118      	cbz	r0, 80036dc <MX_I2C1_Init+0x30>
  {
    Error_Handler();
  }

}
 80036d4:	e8bd 4008 	ldmia.w	sp!, {r3, lr}
    Error_Handler();
 80036d8:	f000 bb3a 	b.w	8003d50 <Error_Handler>
 80036dc:	bd08      	pop	{r3, pc}
 80036de:	bf00      	nop
 80036e0:	20002354 	.word	0x20002354
 80036e4:	40005400 	.word	0x40005400
 80036e8:	000186a0 	.word	0x000186a0

080036ec <HAL_I2C_MspInit>:

void HAL_I2C_MspInit(I2C_HandleTypeDef* i2cHandle)
{
 80036ec:	b510      	push	{r4, lr}
 80036ee:	4604      	mov	r4, r0
 80036f0:	b086      	sub	sp, #24

  GPIO_InitTypeDef GPIO_InitStruct = {0};
 80036f2:	2210      	movs	r2, #16
 80036f4:	2100      	movs	r1, #0
 80036f6:	a802      	add	r0, sp, #8
 80036f8:	f000 feec 	bl	80044d4 <memset>
  if(i2cHandle->Instance==I2C1)
 80036fc:	6822      	ldr	r2, [r4, #0]
 80036fe:	4b15      	ldr	r3, [pc, #84]	; (8003754 <HAL_I2C_MspInit+0x68>)
 8003700:	429a      	cmp	r2, r3
 8003702:	d124      	bne.n	800374e <HAL_I2C_MspInit+0x62>
  {
  /* USER CODE BEGIN I2C1_MspInit 0 */

  /* USER CODE END I2C1_MspInit 0 */
  
    __HAL_RCC_GPIOB_CLK_ENABLE();
 8003704:	4c14      	ldr	r4, [pc, #80]	; (8003758 <HAL_I2C_MspInit+0x6c>)
    PB9     ------> I2C1_SDA 
    */
    GPIO_InitStruct.Pin = GPIO_PIN_8|GPIO_PIN_9;
    GPIO_InitStruct.Mode = GPIO_MODE_AF_OD;
    GPIO_InitStruct.Speed = GPIO_SPEED_FREQ_HIGH;
    HAL_GPIO_Init(GPIOB, &GPIO_InitStruct);
 8003706:	a902      	add	r1, sp, #8
    __HAL_RCC_GPIOB_CLK_ENABLE();
 8003708:	69a3      	ldr	r3, [r4, #24]
    HAL_GPIO_Init(GPIOB, &GPIO_InitStruct);
 800370a:	4814      	ldr	r0, [pc, #80]	; (800375c <HAL_I2C_MspInit+0x70>)
    __HAL_RCC_GPIOB_CLK_ENABLE();
 800370c:	f043 0308 	orr.w	r3, r3, #8
 8003710:	61a3      	str	r3, [r4, #24]
 8003712:	69a3      	ldr	r3, [r4, #24]
 8003714:	f003 0308 	and.w	r3, r3, #8
 8003718:	9300      	str	r3, [sp, #0]
 800371a:	9b00      	ldr	r3, [sp, #0]
    GPIO_InitStruct.Pin = GPIO_PIN_8|GPIO_PIN_9;
 800371c:	f44f 7340 	mov.w	r3, #768	; 0x300
 8003720:	9302      	str	r3, [sp, #8]
    GPIO_InitStruct.Mode = GPIO_MODE_AF_OD;
 8003722:	2312      	movs	r3, #18
 8003724:	9303      	str	r3, [sp, #12]
    GPIO_InitStruct.Speed = GPIO_SPEED_FREQ_HIGH;
 8003726:	2303      	movs	r3, #3
 8003728:	9305      	str	r3, [sp, #20]
    HAL_GPIO_Init(GPIOB, &GPIO_InitStruct);
 800372a:	f7fc fdd7 	bl	80002dc <HAL_GPIO_Init>

    __HAL_AFIO_REMAP_I2C1_ENABLE();
 800372e:	4a0c      	ldr	r2, [pc, #48]	; (8003760 <HAL_I2C_MspInit+0x74>)
 8003730:	6853      	ldr	r3, [r2, #4]
 8003732:	f043 63e0 	orr.w	r3, r3, #117440512	; 0x7000000
 8003736:	f043 0302 	orr.w	r3, r3, #2
 800373a:	6053      	str	r3, [r2, #4]

    /* I2C1 clock enable */
    __HAL_RCC_I2C1_CLK_ENABLE();
 800373c:	69e3      	ldr	r3, [r4, #28]
 800373e:	f443 1300 	orr.w	r3, r3, #2097152	; 0x200000
 8003742:	61e3      	str	r3, [r4, #28]
 8003744:	69e3      	ldr	r3, [r4, #28]
 8003746:	f403 1300 	and.w	r3, r3, #2097152	; 0x200000
 800374a:	9301      	str	r3, [sp, #4]
 800374c:	9b01      	ldr	r3, [sp, #4]
  /* USER CODE BEGIN I2C1_MspInit 1 */

  /* USER CODE END I2C1_MspInit 1 */
  }
}
 800374e:	b006      	add	sp, #24
 8003750:	bd10      	pop	{r4, pc}
 8003752:	bf00      	nop
 8003754:	40005400 	.word	0x40005400
 8003758:	40021000 	.word	0x40021000
 800375c:	40010c00 	.word	0x40010c00
 8003760:	40010000 	.word	0x40010000

08003764 <_write>:
/* Private function prototypes -----------------------------------------------*/
void SystemClock_Config(void);
static void MX_NVIC_Init(void);
/* USER CODE BEGIN PFP */
int _write(int file, char *ptr, int len)
{
 8003764:	b510      	push	{r4, lr}
 8003766:	4614      	mov	r4, r2
       HAL_UART_Transmit(&huart2,(uint8_t *)ptr, (uint16_t)len, 0xFFFFFFFF);
 8003768:	f04f 33ff 	mov.w	r3, #4294967295
 800376c:	b292      	uxth	r2, r2
 800376e:	4802      	ldr	r0, [pc, #8]	; (8003778 <_write+0x14>)
 8003770:	f7fd fe9c 	bl	80014ac <HAL_UART_Transmit>
       return len;
}
 8003774:	4620      	mov	r0, r4
 8003776:	bd10      	pop	{r4, pc}
 8003778:	20004534 	.word	0x20004534

0800377c <LCD_DATA>:
#define RS0_EN1   0x04
#define RS0_EN0   0x00
#define BackLight 0x08

// RS-Q0 / RW-Q1 / EN-Q2 / BackLight-Q3 / D4-Q4 / D5-Q5 / D6-Q6 / D7-Q7
void LCD_DATA(uint8_t data) {
 800377c:	e92d 41ff 	stmdb	sp!, {r0, r1, r2, r3, r4, r5, r6, r7, r8, lr}
 8003780:	4604      	mov	r4, r0
  uint8_t temp=(data & 0xF0)|RS1_EN1|BackLight;
  while(HAL_I2C_Master_Transmit(&hi2c1, ADDRESS, &temp, 1, 1000)!=HAL_OK);
 8003782:	f44f 787a 	mov.w	r8, #1000	; 0x3e8
  uint8_t temp=(data & 0xF0)|RS1_EN1|BackLight;
 8003786:	f020 060f 	bic.w	r6, r0, #15
 800378a:	b276      	sxtb	r6, r6
 800378c:	f046 030d 	orr.w	r3, r6, #13
 8003790:	ad04      	add	r5, sp, #16
  while(HAL_I2C_Master_Transmit(&hi2c1, ADDRESS, &temp, 1, 1000)!=HAL_OK);
 8003792:	4f21      	ldr	r7, [pc, #132]	; (8003818 <LCD_DATA+0x9c>)
  uint8_t temp=(data & 0xF0)|RS1_EN1|BackLight;
 8003794:	f805 3d01 	strb.w	r3, [r5, #-1]!
  while(HAL_I2C_Master_Transmit(&hi2c1, ADDRESS, &temp, 1, 1000)!=HAL_OK);
 8003798:	f8cd 8000 	str.w	r8, [sp]
 800379c:	2301      	movs	r3, #1
 800379e:	462a      	mov	r2, r5
 80037a0:	214e      	movs	r1, #78	; 0x4e
 80037a2:	4638      	mov	r0, r7
 80037a4:	f7fc ffe2 	bl	800076c <HAL_I2C_Master_Transmit>
 80037a8:	2800      	cmp	r0, #0
 80037aa:	d1f5      	bne.n	8003798 <LCD_DATA+0x1c>
  temp=(data & 0xF0)|RS1_EN0|BackLight;
  while(HAL_I2C_Master_Transmit(&hi2c1, ADDRESS, &temp, 1, 1000)!=HAL_OK);
 80037ac:	f44f 777a 	mov.w	r7, #1000	; 0x3e8
  temp=(data & 0xF0)|RS1_EN0|BackLight;
 80037b0:	f046 0609 	orr.w	r6, r6, #9
 80037b4:	f88d 600f 	strb.w	r6, [sp, #15]
  while(HAL_I2C_Master_Transmit(&hi2c1, ADDRESS, &temp, 1, 1000)!=HAL_OK);
 80037b8:	4e17      	ldr	r6, [pc, #92]	; (8003818 <LCD_DATA+0x9c>)
 80037ba:	9700      	str	r7, [sp, #0]
 80037bc:	2301      	movs	r3, #1
 80037be:	462a      	mov	r2, r5
 80037c0:	214e      	movs	r1, #78	; 0x4e
 80037c2:	4630      	mov	r0, r6
 80037c4:	f7fc ffd2 	bl	800076c <HAL_I2C_Master_Transmit>
 80037c8:	2800      	cmp	r0, #0
 80037ca:	d1f6      	bne.n	80037ba <LCD_DATA+0x3e>
  delay_us(4);

  temp=((data << 4) & 0xF0)|RS1_EN1|BackLight;
  while(HAL_I2C_Master_Transmit(&hi2c1, ADDRESS, &temp, 1, 1000)!=HAL_OK);
 80037cc:	f44f 777a 	mov.w	r7, #1000	; 0x3e8
  temp=((data << 4) & 0xF0)|RS1_EN1|BackLight;
 80037d0:	0124      	lsls	r4, r4, #4
 80037d2:	b264      	sxtb	r4, r4
 80037d4:	f044 030d 	orr.w	r3, r4, #13
  while(HAL_I2C_Master_Transmit(&hi2c1, ADDRESS, &temp, 1, 1000)!=HAL_OK);
 80037d8:	4e0f      	ldr	r6, [pc, #60]	; (8003818 <LCD_DATA+0x9c>)
  temp=((data << 4) & 0xF0)|RS1_EN1|BackLight;
 80037da:	f88d 300f 	strb.w	r3, [sp, #15]
  while(HAL_I2C_Master_Transmit(&hi2c1, ADDRESS, &temp, 1, 1000)!=HAL_OK);
 80037de:	9700      	str	r7, [sp, #0]
 80037e0:	2301      	movs	r3, #1
 80037e2:	462a      	mov	r2, r5
 80037e4:	214e      	movs	r1, #78	; 0x4e
 80037e6:	4630      	mov	r0, r6
 80037e8:	f7fc ffc0 	bl	800076c <HAL_I2C_Master_Transmit>
 80037ec:	2800      	cmp	r0, #0
 80037ee:	d1f6      	bne.n	80037de <LCD_DATA+0x62>
  temp = ((data << 4) & 0xF0)|RS1_EN0|BackLight;
  while(HAL_I2C_Master_Transmit(&hi2c1, ADDRESS, &temp, 1, 1000)!=HAL_OK);
 80037f0:	f44f 767a 	mov.w	r6, #1000	; 0x3e8
  temp = ((data << 4) & 0xF0)|RS1_EN0|BackLight;
 80037f4:	f044 0409 	orr.w	r4, r4, #9
 80037f8:	f88d 400f 	strb.w	r4, [sp, #15]
  while(HAL_I2C_Master_Transmit(&hi2c1, ADDRESS, &temp, 1, 1000)!=HAL_OK);
 80037fc:	4c06      	ldr	r4, [pc, #24]	; (8003818 <LCD_DATA+0x9c>)
 80037fe:	9600      	str	r6, [sp, #0]
 8003800:	2301      	movs	r3, #1
 8003802:	462a      	mov	r2, r5
 8003804:	214e      	movs	r1, #78	; 0x4e
 8003806:	4620      	mov	r0, r4
 8003808:	f7fc ffb0 	bl	800076c <HAL_I2C_Master_Transmit>
 800380c:	2800      	cmp	r0, #0
 800380e:	d1f6      	bne.n	80037fe <LCD_DATA+0x82>
  delay_us(50);
}
 8003810:	b004      	add	sp, #16
 8003812:	e8bd 81f0 	ldmia.w	sp!, {r4, r5, r6, r7, r8, pc}
 8003816:	bf00      	nop
 8003818:	20002354 	.word	0x20002354

0800381c <LCD_CMD>:

void LCD_CMD(uint8_t cmd) {
 800381c:	e92d 41ff 	stmdb	sp!, {r0, r1, r2, r3, r4, r5, r6, r7, r8, lr}
 8003820:	4604      	mov	r4, r0
  uint8_t temp=(cmd & 0xF0)|RS0_EN1|BackLight;
  while(HAL_I2C_Master_Transmit(&hi2c1, ADDRESS, &temp, 1, 1000)!=HAL_OK);
 8003822:	f44f 787a 	mov.w	r8, #1000	; 0x3e8
  uint8_t temp=(cmd & 0xF0)|RS0_EN1|BackLight;
 8003826:	f020 060f 	bic.w	r6, r0, #15
 800382a:	b276      	sxtb	r6, r6
 800382c:	f046 030c 	orr.w	r3, r6, #12
 8003830:	ad04      	add	r5, sp, #16
  while(HAL_I2C_Master_Transmit(&hi2c1, ADDRESS, &temp, 1, 1000)!=HAL_OK);
 8003832:	4f21      	ldr	r7, [pc, #132]	; (80038b8 <LCD_CMD+0x9c>)
  uint8_t temp=(cmd & 0xF0)|RS0_EN1|BackLight;
 8003834:	f805 3d01 	strb.w	r3, [r5, #-1]!
  while(HAL_I2C_Master_Transmit(&hi2c1, ADDRESS, &temp, 1, 1000)!=HAL_OK);
 8003838:	f8cd 8000 	str.w	r8, [sp]
 800383c:	2301      	movs	r3, #1
 800383e:	462a      	mov	r2, r5
 8003840:	214e      	movs	r1, #78	; 0x4e
 8003842:	4638      	mov	r0, r7
 8003844:	f7fc ff92 	bl	800076c <HAL_I2C_Master_Transmit>
 8003848:	2800      	cmp	r0, #0
 800384a:	d1f5      	bne.n	8003838 <LCD_CMD+0x1c>
  temp=(cmd & 0xF0)|RS0_EN0|BackLight;
  while(HAL_I2C_Master_Transmit(&hi2c1, ADDRESS, &temp, 1, 1000)!=HAL_OK);
 800384c:	f44f 777a 	mov.w	r7, #1000	; 0x3e8
  temp=(cmd & 0xF0)|RS0_EN0|BackLight;
 8003850:	f046 0608 	orr.w	r6, r6, #8
 8003854:	f88d 600f 	strb.w	r6, [sp, #15]
  while(HAL_I2C_Master_Transmit(&hi2c1, ADDRESS, &temp, 1, 1000)!=HAL_OK);
 8003858:	4e17      	ldr	r6, [pc, #92]	; (80038b8 <LCD_CMD+0x9c>)
 800385a:	9700      	str	r7, [sp, #0]
 800385c:	2301      	movs	r3, #1
 800385e:	462a      	mov	r2, r5
 8003860:	214e      	movs	r1, #78	; 0x4e
 8003862:	4630      	mov	r0, r6
 8003864:	f7fc ff82 	bl	800076c <HAL_I2C_Master_Transmit>
 8003868:	2800      	cmp	r0, #0
 800386a:	d1f6      	bne.n	800385a <LCD_CMD+0x3e>
  delay_us(4);

  temp=((cmd << 4) & 0xF0)|RS0_EN1|BackLight;
  while(HAL_I2C_Master_Transmit(&hi2c1, ADDRESS, &temp, 1, 1000)!=HAL_OK);
 800386c:	f44f 777a 	mov.w	r7, #1000	; 0x3e8
  temp=((cmd << 4) & 0xF0)|RS0_EN1|BackLight;
 8003870:	0124      	lsls	r4, r4, #4
 8003872:	b264      	sxtb	r4, r4
 8003874:	f044 030c 	orr.w	r3, r4, #12
  while(HAL_I2C_Master_Transmit(&hi2c1, ADDRESS, &temp, 1, 1000)!=HAL_OK);
 8003878:	4e0f      	ldr	r6, [pc, #60]	; (80038b8 <LCD_CMD+0x9c>)
  temp=((cmd << 4) & 0xF0)|RS0_EN1|BackLight;
 800387a:	f88d 300f 	strb.w	r3, [sp, #15]
  while(HAL_I2C_Master_Transmit(&hi2c1, ADDRESS, &temp, 1, 1000)!=HAL_OK);
 800387e:	9700      	str	r7, [sp, #0]
 8003880:	2301      	movs	r3, #1
 8003882:	462a      	mov	r2, r5
 8003884:	214e      	movs	r1, #78	; 0x4e
 8003886:	4630      	mov	r0, r6
 8003888:	f7fc ff70 	bl	800076c <HAL_I2C_Master_Transmit>
 800388c:	2800      	cmp	r0, #0
 800388e:	d1f6      	bne.n	800387e <LCD_CMD+0x62>
  temp=((cmd << 4) & 0xF0)|RS0_EN0|BackLight;
  while(HAL_I2C_Master_Transmit(&hi2c1, ADDRESS, &temp, 1, 1000)!=HAL_OK);
 8003890:	f44f 767a 	mov.w	r6, #1000	; 0x3e8
  temp=((cmd << 4) & 0xF0)|RS0_EN0|BackLight;
 8003894:	f044 0408 	orr.w	r4, r4, #8
 8003898:	f88d 400f 	strb.w	r4, [sp, #15]
  while(HAL_I2C_Master_Transmit(&hi2c1, ADDRESS, &temp, 1, 1000)!=HAL_OK);
 800389c:	4c06      	ldr	r4, [pc, #24]	; (80038b8 <LCD_CMD+0x9c>)
 800389e:	9600      	str	r6, [sp, #0]
 80038a0:	2301      	movs	r3, #1
 80038a2:	462a      	mov	r2, r5
 80038a4:	214e      	movs	r1, #78	; 0x4e
 80038a6:	4620      	mov	r0, r4
 80038a8:	f7fc ff60 	bl	800076c <HAL_I2C_Master_Transmit>
 80038ac:	2800      	cmp	r0, #0
 80038ae:	d1f6      	bne.n	800389e <LCD_CMD+0x82>
  delay_us(50);
}
 80038b0:	b004      	add	sp, #16
 80038b2:	e8bd 81f0 	ldmia.w	sp!, {r4, r5, r6, r7, r8, pc}
 80038b6:	bf00      	nop
 80038b8:	20002354 	.word	0x20002354

080038bc <LCD_CMD_4bit>:

void LCD_CMD_4bit(uint8_t cmd) {
 80038bc:	b5f0      	push	{r4, r5, r6, r7, lr}
  uint8_t temp=((cmd << 4) & 0xF0)|RS0_EN1|BackLight;
  while(HAL_I2C_Master_Transmit(&hi2c1, ADDRESS, &temp, 1, 1000)!=HAL_OK);
 80038be:	f44f 777a 	mov.w	r7, #1000	; 0x3e8
  uint8_t temp=((cmd << 4) & 0xF0)|RS0_EN1|BackLight;
 80038c2:	0100      	lsls	r0, r0, #4
void LCD_CMD_4bit(uint8_t cmd) {
 80038c4:	b085      	sub	sp, #20
  uint8_t temp=((cmd << 4) & 0xF0)|RS0_EN1|BackLight;
 80038c6:	b244      	sxtb	r4, r0
 80038c8:	f044 030c 	orr.w	r3, r4, #12
 80038cc:	ad04      	add	r5, sp, #16
  while(HAL_I2C_Master_Transmit(&hi2c1, ADDRESS, &temp, 1, 1000)!=HAL_OK);
 80038ce:	4e0f      	ldr	r6, [pc, #60]	; (800390c <LCD_CMD_4bit+0x50>)
  uint8_t temp=((cmd << 4) & 0xF0)|RS0_EN1|BackLight;
 80038d0:	f805 3d01 	strb.w	r3, [r5, #-1]!
  while(HAL_I2C_Master_Transmit(&hi2c1, ADDRESS, &temp, 1, 1000)!=HAL_OK);
 80038d4:	9700      	str	r7, [sp, #0]
 80038d6:	2301      	movs	r3, #1
 80038d8:	462a      	mov	r2, r5
 80038da:	214e      	movs	r1, #78	; 0x4e
 80038dc:	4630      	mov	r0, r6
 80038de:	f7fc ff45 	bl	800076c <HAL_I2C_Master_Transmit>
 80038e2:	2800      	cmp	r0, #0
 80038e4:	d1f6      	bne.n	80038d4 <LCD_CMD_4bit+0x18>
  temp=((cmd << 4) & 0xF0)|RS0_EN0|BackLight;
  while(HAL_I2C_Master_Transmit(&hi2c1, ADDRESS, &temp, 1, 1000)!=HAL_OK);
 80038e6:	f44f 767a 	mov.w	r6, #1000	; 0x3e8
  temp=((cmd << 4) & 0xF0)|RS0_EN0|BackLight;
 80038ea:	f044 0408 	orr.w	r4, r4, #8
 80038ee:	f88d 400f 	strb.w	r4, [sp, #15]
  while(HAL_I2C_Master_Transmit(&hi2c1, ADDRESS, &temp, 1, 1000)!=HAL_OK);
 80038f2:	4c06      	ldr	r4, [pc, #24]	; (800390c <LCD_CMD_4bit+0x50>)
 80038f4:	9600      	str	r6, [sp, #0]
 80038f6:	2301      	movs	r3, #1
 80038f8:	462a      	mov	r2, r5
 80038fa:	214e      	movs	r1, #78	; 0x4e
 80038fc:	4620      	mov	r0, r4
 80038fe:	f7fc ff35 	bl	800076c <HAL_I2C_Master_Transmit>
 8003902:	2800      	cmp	r0, #0
 8003904:	d1f6      	bne.n	80038f4 <LCD_CMD_4bit+0x38>
  delay_us(50);
}
 8003906:	b005      	add	sp, #20
 8003908:	bdf0      	pop	{r4, r5, r6, r7, pc}
 800390a:	bf00      	nop
 800390c:	20002354 	.word	0x20002354

08003910 <LCD_INIT>:

void LCD_INIT(void) {
 8003910:	b508      	push	{r3, lr}
  delay_ms(100);
 8003912:	2064      	movs	r0, #100	; 0x64
 8003914:	f7fc fc62 	bl	80001dc <HAL_Delay>

  LCD_CMD_4bit(0x03); delay_ms(5);
 8003918:	2003      	movs	r0, #3
 800391a:	f7ff ffcf 	bl	80038bc <LCD_CMD_4bit>
 800391e:	2005      	movs	r0, #5
 8003920:	f7fc fc5c 	bl	80001dc <HAL_Delay>
  LCD_CMD_4bit(0x03); delay_us(100);
 8003924:	2003      	movs	r0, #3
 8003926:	f7ff ffc9 	bl	80038bc <LCD_CMD_4bit>
  LCD_CMD_4bit(0x03); delay_us(100);
 800392a:	2003      	movs	r0, #3
 800392c:	f7ff ffc6 	bl	80038bc <LCD_CMD_4bit>
  LCD_CMD_4bit(0x02); delay_us(100);
 8003930:	2002      	movs	r0, #2
 8003932:	f7ff ffc3 	bl	80038bc <LCD_CMD_4bit>
  LCD_CMD(0x28);  // 4 bits, 2 line, 5x8 font
 8003936:	2028      	movs	r0, #40	; 0x28
 8003938:	f7ff ff70 	bl	800381c <LCD_CMD>
  LCD_CMD(0x08);  // display off, cursor off, blink off
 800393c:	2008      	movs	r0, #8
 800393e:	f7ff ff6d 	bl	800381c <LCD_CMD>
  LCD_CMD(0x01);  // clear display
 8003942:	2001      	movs	r0, #1
 8003944:	f7ff ff6a 	bl	800381c <LCD_CMD>
  delay_ms(3);
 8003948:	2003      	movs	r0, #3
 800394a:	f7fc fc47 	bl	80001dc <HAL_Delay>
  LCD_CMD(0x06);  // cursor movint direction
 800394e:	2006      	movs	r0, #6
 8003950:	f7ff ff64 	bl	800381c <LCD_CMD>
  LCD_CMD(0x0C);  // display on, cursor off, blink off
}
 8003954:	e8bd 4008 	ldmia.w	sp!, {r3, lr}
  LCD_CMD(0x0C);  // display on, cursor off, blink off
 8003958:	200c      	movs	r0, #12
 800395a:	f7ff bf5f 	b.w	800381c <LCD_CMD>

0800395e <LCD_CLEAR>:
  else if (y == 1) LCD_CMD(0xC0 + x);
  else if (y == 2) LCD_CMD(0x94 + x);
  else if (y == 3) LCD_CMD(0xD4 + x);
}

void LCD_CLEAR(void) {
 800395e:	b508      	push	{r3, lr}
  LCD_CMD(0x01);
 8003960:	2001      	movs	r0, #1
 8003962:	f7ff ff5b 	bl	800381c <LCD_CMD>
  delay_ms(2);
}
 8003966:	e8bd 4008 	ldmia.w	sp!, {r3, lr}
  delay_ms(2);
 800396a:	2002      	movs	r0, #2
 800396c:	f7fc bc36 	b.w	80001dc <HAL_Delay>

08003970 <LCD_PUTS>:

void LCD_PUTS(char *str) {
 8003970:	b510      	push	{r4, lr}
 8003972:	1e44      	subs	r4, r0, #1
  while (*str) LCD_DATA(*str++);
 8003974:	f814 0f01 	ldrb.w	r0, [r4, #1]!
 8003978:	b900      	cbnz	r0, 800397c <LCD_PUTS+0xc>
}
 800397a:	bd10      	pop	{r4, pc}
  while (*str) LCD_DATA(*str++);
 800397c:	f7ff fefe 	bl	800377c <LCD_DATA>
 8003980:	e7f8      	b.n	8003974 <LCD_PUTS+0x4>

08003982 <SystemClock_Config>:
/**
  * @brief System Clock Configuration
  * @retval None
  */
void SystemClock_Config(void)
{
 8003982:	b510      	push	{r4, lr}
 8003984:	b090      	sub	sp, #64	; 0x40
  RCC_OscInitTypeDef RCC_OscInitStruct = {0};
 8003986:	2228      	movs	r2, #40	; 0x28
 8003988:	2100      	movs	r1, #0
 800398a:	a806      	add	r0, sp, #24
 800398c:	f000 fda2 	bl	80044d4 <memset>
  RCC_ClkInitTypeDef RCC_ClkInitStruct = {0};
 8003990:	2214      	movs	r2, #20
 8003992:	2100      	movs	r1, #0
 8003994:	a801      	add	r0, sp, #4
 8003996:	f000 fd9d 	bl	80044d4 <memset>

  /** Initializes the CPU, AHB and APB busses clocks 
  */
  RCC_OscInitStruct.OscillatorType = RCC_OSCILLATORTYPE_HSE;
  RCC_OscInitStruct.HSEState = RCC_HSE_ON;
 800399a:	f44f 3380 	mov.w	r3, #65536	; 0x10000
  RCC_OscInitStruct.OscillatorType = RCC_OSCILLATORTYPE_HSE;
 800399e:	2201      	movs	r2, #1
  RCC_OscInitStruct.HSEState = RCC_HSE_ON;
 80039a0:	9307      	str	r3, [sp, #28]
  RCC_OscInitStruct.HSEPredivValue = RCC_HSE_PREDIV_DIV1;
  RCC_OscInitStruct.HSIState = RCC_HSI_ON;
  RCC_OscInitStruct.PLL.PLLState = RCC_PLL_ON;
 80039a2:	2402      	movs	r4, #2
  RCC_OscInitStruct.PLL.PLLSource = RCC_PLLSOURCE_HSE;
 80039a4:	930e      	str	r3, [sp, #56]	; 0x38
  RCC_OscInitStruct.PLL.PLLMUL = RCC_PLL_MUL9;
 80039a6:	f44f 13e0 	mov.w	r3, #1835008	; 0x1c0000
  if (HAL_RCC_OscConfig(&RCC_OscInitStruct) != HAL_OK)
 80039aa:	a806      	add	r0, sp, #24
  RCC_OscInitStruct.OscillatorType = RCC_OSCILLATORTYPE_HSE;
 80039ac:	9206      	str	r2, [sp, #24]
  RCC_OscInitStruct.HSIState = RCC_HSI_ON;
 80039ae:	920a      	str	r2, [sp, #40]	; 0x28
  RCC_OscInitStruct.PLL.PLLState = RCC_PLL_ON;
 80039b0:	940d      	str	r4, [sp, #52]	; 0x34
  RCC_OscInitStruct.PLL.PLLMUL = RCC_PLL_MUL9;
 80039b2:	930f      	str	r3, [sp, #60]	; 0x3c
  if (HAL_RCC_OscConfig(&RCC_OscInitStruct) != HAL_OK)
 80039b4:	f7fc ffb0 	bl	8000918 <HAL_RCC_OscConfig>
 80039b8:	b100      	cbz	r0, 80039bc <SystemClock_Config+0x3a>
 80039ba:	e7fe      	b.n	80039ba <SystemClock_Config+0x38>
  {
    Error_Handler();
  }
  /** Initializes the CPU, AHB and APB busses clocks 
  */
  RCC_ClkInitStruct.ClockType = RCC_CLOCKTYPE_HCLK|RCC_CLOCKTYPE_SYSCLK
 80039bc:	230f      	movs	r3, #15
 80039be:	9301      	str	r3, [sp, #4]
                              |RCC_CLOCKTYPE_PCLK1|RCC_CLOCKTYPE_PCLK2;
  RCC_ClkInitStruct.SYSCLKSource = RCC_SYSCLKSOURCE_PLLCLK;
  RCC_ClkInitStruct.AHBCLKDivider = RCC_SYSCLK_DIV1;
  RCC_ClkInitStruct.APB1CLKDivider = RCC_HCLK_DIV2;
 80039c0:	f44f 6380 	mov.w	r3, #1024	; 0x400
  RCC_ClkInitStruct.AHBCLKDivider = RCC_SYSCLK_DIV1;
 80039c4:	9003      	str	r0, [sp, #12]
  RCC_ClkInitStruct.APB2CLKDivider = RCC_HCLK_DIV1;
 80039c6:	9005      	str	r0, [sp, #20]

  if (HAL_RCC_ClockConfig(&RCC_ClkInitStruct, FLASH_LATENCY_2) != HAL_OK)
 80039c8:	4621      	mov	r1, r4
 80039ca:	a801      	add	r0, sp, #4
  RCC_ClkInitStruct.SYSCLKSource = RCC_SYSCLKSOURCE_PLLCLK;
 80039cc:	9402      	str	r4, [sp, #8]
  RCC_ClkInitStruct.APB1CLKDivider = RCC_HCLK_DIV2;
 80039ce:	9304      	str	r3, [sp, #16]
  if (HAL_RCC_ClockConfig(&RCC_ClkInitStruct, FLASH_LATENCY_2) != HAL_OK)
 80039d0:	f7fd f96a 	bl	8000ca8 <HAL_RCC_ClockConfig>
 80039d4:	b100      	cbz	r0, 80039d8 <SystemClock_Config+0x56>
 80039d6:	e7fe      	b.n	80039d6 <SystemClock_Config+0x54>
  {
    Error_Handler();
  }
}
 80039d8:	b010      	add	sp, #64	; 0x40
 80039da:	bd10      	pop	{r4, pc}

080039dc <main>:
{
 80039dc:	e92d 4ff0 	stmdb	sp!, {r4, r5, r6, r7, r8, r9, sl, fp, lr}
 80039e0:	b095      	sub	sp, #84	; 0x54
  HAL_Init();
 80039e2:	f7fc fbd7 	bl	8000194 <HAL_Init>
  SystemClock_Config();
 80039e6:	f7ff ffcc 	bl	8003982 <SystemClock_Config>
  MX_GPIO_Init();
 80039ea:	f7ff fdf3 	bl	80035d4 <MX_GPIO_Init>
  MX_I2C1_Init();
 80039ee:	f7ff fe5d 	bl	80036ac <MX_I2C1_Init>
  MX_SPI2_Init();
 80039f2:	f000 f9d1 	bl	8003d98 <MX_SPI2_Init>
  MX_USART2_UART_Init();
 80039f6:	f000 fb17 	bl	8004028 <MX_USART2_UART_Init>
  MX_SPI1_Init();
 80039fa:	f000 f9ab 	bl	8003d54 <MX_SPI1_Init>
  MX_FATFS_Init();
 80039fe:	f7ff facf 	bl	8002fa0 <MX_FATFS_Init>
  * @retval None
  */
static void MX_NVIC_Init(void)
{
  /* EXTI1_IRQn interrupt configuration */
  HAL_NVIC_SetPriority(EXTI1_IRQn, 0, 0);
 8003a02:	2200      	movs	r2, #0
 8003a04:	2007      	movs	r0, #7
 8003a06:	4611      	mov	r1, r2
 8003a08:	f7fc fc0c 	bl	8000224 <HAL_NVIC_SetPriority>
  HAL_NVIC_EnableIRQ(EXTI1_IRQn);
 8003a0c:	2007      	movs	r0, #7
 8003a0e:	f7fc fc3d 	bl	800028c <HAL_NVIC_EnableIRQ>
  /* EXTI2_IRQn interrupt configuration */
  HAL_NVIC_SetPriority(EXTI2_IRQn, 0, 0);
 8003a12:	2200      	movs	r2, #0
 8003a14:	2008      	movs	r0, #8
 8003a16:	4611      	mov	r1, r2
 8003a18:	f7fc fc04 	bl	8000224 <HAL_NVIC_SetPriority>
  HAL_NVIC_EnableIRQ(EXTI2_IRQn);
 8003a1c:	2008      	movs	r0, #8
 8003a1e:	f7fc fc35 	bl	800028c <HAL_NVIC_EnableIRQ>
  /* EXTI3_IRQn interrupt configuration */
  HAL_NVIC_SetPriority(EXTI3_IRQn, 0, 0);
 8003a22:	2200      	movs	r2, #0
 8003a24:	2009      	movs	r0, #9
 8003a26:	4611      	mov	r1, r2
 8003a28:	f7fc fbfc 	bl	8000224 <HAL_NVIC_SetPriority>
  HAL_NVIC_EnableIRQ(EXTI3_IRQn);
 8003a2c:	2009      	movs	r0, #9
 8003a2e:	f7fc fc2d 	bl	800028c <HAL_NVIC_EnableIRQ>
  /* EXTI4_IRQn interrupt configuration */
  HAL_NVIC_SetPriority(EXTI4_IRQn, 0, 0);
 8003a32:	2200      	movs	r2, #0
 8003a34:	200a      	movs	r0, #10
 8003a36:	4611      	mov	r1, r2
 8003a38:	f7fc fbf4 	bl	8000224 <HAL_NVIC_SetPriority>
  HAL_NVIC_EnableIRQ(EXTI4_IRQn);
 8003a3c:	200a      	movs	r0, #10
 8003a3e:	f7fc fc25 	bl	800028c <HAL_NVIC_EnableIRQ>
  LCD_INIT();
 8003a42:	f7ff ff65 	bl	8003910 <LCD_INIT>
  VS1003_Init();
 8003a46:	f000 fbdb 	bl	8004200 <VS1003_Init>
  VS1003_SoftReset();
 8003a4a:	f000 fc69 	bl	8004320 <VS1003_SoftReset>
  BYTE buf[32] = "Hello world ";
 8003a4e:	aa0c      	add	r2, sp, #48	; 0x30
 8003a50:	4690      	mov	r8, r2
 8003a52:	4b7b      	ldr	r3, [pc, #492]	; (8003c40 <main+0x264>)
 8003a54:	f103 0508 	add.w	r5, r3, #8
 8003a58:	4614      	mov	r4, r2
 8003a5a:	6818      	ldr	r0, [r3, #0]
 8003a5c:	6859      	ldr	r1, [r3, #4]
 8003a5e:	3308      	adds	r3, #8
 8003a60:	c403      	stmia	r4!, {r0, r1}
 8003a62:	42ab      	cmp	r3, r5
 8003a64:	4622      	mov	r2, r4
 8003a66:	d1f7      	bne.n	8003a58 <main+0x7c>
 8003a68:	6818      	ldr	r0, [r3, #0]
 8003a6a:	791b      	ldrb	r3, [r3, #4]
 8003a6c:	6020      	str	r0, [r4, #0]
 8003a6e:	2213      	movs	r2, #19
 8003a70:	2100      	movs	r1, #0
 8003a72:	7123      	strb	r3, [r4, #4]
 8003a74:	f10d 003d 	add.w	r0, sp, #61	; 0x3d
 8003a78:	f000 fd2c 	bl	80044d4 <memset>
  if(f_mount(&fs, "", 0) == FR_OK)
 8003a7c:	2200      	movs	r2, #0
 8003a7e:	4971      	ldr	r1, [pc, #452]	; (8003c44 <main+0x268>)
 8003a80:	4871      	ldr	r0, [pc, #452]	; (8003c48 <main+0x26c>)
 8003a82:	f7fe ff71 	bl	8002968 <f_mount>
 8003a86:	b928      	cbnz	r0, 8003a94 <main+0xb8>
  if      (y == 0) LCD_CMD(0x80 + x);
 8003a88:	2080      	movs	r0, #128	; 0x80
 8003a8a:	f7ff fec7 	bl	800381c <LCD_CMD>
	  LCD_PUTS("1111");
 8003a8e:	486f      	ldr	r0, [pc, #444]	; (8003c4c <main+0x270>)
 8003a90:	f7ff ff6e 	bl	8003970 <LCD_PUTS>
  unsigned char filename[20] = "0:/1.mp3";
 8003a94:	4a6e      	ldr	r2, [pc, #440]	; (8003c50 <main+0x274>)
 8003a96:	ab07      	add	r3, sp, #28
 8003a98:	6810      	ldr	r0, [r2, #0]
 8003a9a:	6851      	ldr	r1, [r2, #4]
 8003a9c:	7a12      	ldrb	r2, [r2, #8]
 8003a9e:	c303      	stmia	r3!, {r0, r1}
 8003aa0:	701a      	strb	r2, [r3, #0]
 8003aa2:	2300      	movs	r3, #0
 8003aa4:	f8cd 3029 	str.w	r3, [sp, #41]	; 0x29
 8003aa8:	f8cd 3025 	str.w	r3, [sp, #37]	; 0x25
 8003aac:	930b      	str	r3, [sp, #44]	; 0x2c
  LCD_CLEAR();
 8003aae:	f7ff ff56 	bl	800395e <LCD_CLEAR>
  if((retSD = f_open(&fil,filename, FA_OPEN_EXISTING | FA_READ ) == FR_OK))
 8003ab2:	a907      	add	r1, sp, #28
 8003ab4:	2201      	movs	r2, #1
 8003ab6:	4867      	ldr	r0, [pc, #412]	; (8003c54 <main+0x278>)
 8003ab8:	f7fe ff8e 	bl	80029d8 <f_open>
 8003abc:	2800      	cmp	r0, #0
 8003abe:	bf0c      	ite	eq
 8003ac0:	2301      	moveq	r3, #1
 8003ac2:	2300      	movne	r3, #0
  uint8_t pp_flag = 0;
 8003ac4:	f04f 0500 	mov.w	r5, #0
  if((retSD = f_open(&fil,filename, FA_OPEN_EXISTING | FA_READ ) == FR_OK))
 8003ac8:	4e63      	ldr	r6, [pc, #396]	; (8003c58 <main+0x27c>)
	  sprintf(str,"%s opend",filename);
 8003aca:	aa07      	add	r2, sp, #28
 8003acc:	bf0c      	ite	eq
 8003ace:	4963      	ldreq	r1, [pc, #396]	; (8003c5c <main+0x280>)
	  sprintf(str,"%s error",filename);
 8003ad0:	4963      	ldrne	r1, [pc, #396]	; (8003c60 <main+0x284>)
 8003ad2:	a802      	add	r0, sp, #8
  if((retSD = f_open(&fil,filename, FA_OPEN_EXISTING | FA_READ ) == FR_OK))
 8003ad4:	7033      	strb	r3, [r6, #0]
	  sprintf(str,"%s error",filename);
 8003ad6:	f000 fd81 	bl	80045dc <siprintf>
  if      (y == 0) LCD_CMD(0x80 + x);
 8003ada:	2080      	movs	r0, #128	; 0x80
 8003adc:	f7ff fe9e 	bl	800381c <LCD_CMD>
	  LCD_PUTS(str);
 8003ae0:	a802      	add	r0, sp, #8
 8003ae2:	f7ff ff45 	bl	8003970 <LCD_PUTS>
  printf("7878");
 8003ae6:	485f      	ldr	r0, [pc, #380]	; (8003c64 <main+0x288>)
 8003ae8:	f000 fcfc 	bl	80044e4 <iprintf>
  uint16_t index = 0;
 8003aec:	462c      	mov	r4, r5
	  	  if(MP3_DREQ == 1) //       
 8003aee:	f8df b198 	ldr.w	fp, [pc, #408]	; 8003c88 <main+0x2ac>
				  f_read(&fil, buf, 32, &br);
 8003af2:	4f58      	ldr	r7, [pc, #352]	; (8003c54 <main+0x278>)
		if(SW1_flag)
 8003af4:	f8df 9194 	ldr.w	r9, [pc, #404]	; 8003c8c <main+0x2b0>
	  	  if(MP3_DREQ == 1) //       
 8003af8:	2104      	movs	r1, #4
 8003afa:	4658      	mov	r0, fp
 8003afc:	f7fc fcce 	bl	800049c <HAL_GPIO_ReadPin>
 8003b00:	2801      	cmp	r0, #1
 8003b02:	d10c      	bne.n	8003b1e <main+0x142>
	  		  if(pp_flag)
 8003b04:	b15d      	cbz	r5, 8003b1e <main+0x142>
				  f_read(&fil, buf, 32, &br);
 8003b06:	ab01      	add	r3, sp, #4
 8003b08:	2220      	movs	r2, #32
 8003b0a:	4641      	mov	r1, r8
 8003b0c:	4638      	mov	r0, r7
 8003b0e:	f7ff f879 	bl	8002c04 <f_read>
				  if(br >=32)
 8003b12:	9b01      	ldr	r3, [sp, #4]
 8003b14:	2b1f      	cmp	r3, #31
 8003b16:	d902      	bls.n	8003b1e <main+0x142>
					  VS1003_WriteData(&buf[0]);
 8003b18:	4640      	mov	r0, r8
 8003b1a:	f000 fc6b 	bl	80043f4 <VS1003_WriteData>
		if(SW1_flag)
 8003b1e:	f899 3000 	ldrb.w	r3, [r9]
 8003b22:	b343      	cbz	r3, 8003b76 <main+0x19a>
			SW1_flag = 0;
 8003b24:	2300      	movs	r3, #0
 8003b26:	f889 3000 	strb.w	r3, [r9]
			index = index == 0 ? 4 :index-1;
 8003b2a:	2c00      	cmp	r4, #0
 8003b2c:	d03e      	beq.n	8003bac <main+0x1d0>
 8003b2e:	3c01      	subs	r4, #1
 8003b30:	b2a4      	uxth	r4, r4
			switch(index)
 8003b32:	2c02      	cmp	r4, #2
 8003b34:	d036      	beq.n	8003ba4 <main+0x1c8>
 8003b36:	2c03      	cmp	r4, #3
 8003b38:	d036      	beq.n	8003ba8 <main+0x1cc>
 8003b3a:	2c01      	cmp	r4, #1
			case 0:strcpy(filename, "0:/1.mp3"); break;
 8003b3c:	bf14      	ite	ne
 8003b3e:	4944      	ldrne	r1, [pc, #272]	; (8003c50 <main+0x274>)
			case 1:strcpy(filename, "0:/2.mp3"); break;
 8003b40:	4949      	ldreq	r1, [pc, #292]	; (8003c68 <main+0x28c>)
			case 3:strcpy(filename, "0:/4.mp3"); break;
 8003b42:	a807      	add	r0, sp, #28
 8003b44:	f000 fd6e 	bl	8004624 <strcpy>
			f_close(&fil);
 8003b48:	4638      	mov	r0, r7
 8003b4a:	f7ff f9c0 	bl	8002ece <f_close>
			if((retSD = f_open(&fil,filename, FA_OPEN_EXISTING | FA_READ )) == FR_OK)
 8003b4e:	2201      	movs	r2, #1
 8003b50:	a907      	add	r1, sp, #28
 8003b52:	4638      	mov	r0, r7
 8003b54:	f7fe ff40 	bl	80029d8 <f_open>
				  sprintf(str,"%s opend",filename);
 8003b58:	aa07      	add	r2, sp, #28
			if((retSD = f_open(&fil,filename, FA_OPEN_EXISTING | FA_READ )) == FR_OK)
 8003b5a:	7030      	strb	r0, [r6, #0]
 8003b5c:	bb60      	cbnz	r0, 8003bb8 <main+0x1dc>
				  sprintf(str,"%s opend",filename);
 8003b5e:	493f      	ldr	r1, [pc, #252]	; (8003c5c <main+0x280>)
				  sprintf(str,"%s error",filename);
 8003b60:	a802      	add	r0, sp, #8
 8003b62:	f000 fd3b 	bl	80045dc <siprintf>
  if      (y == 0) LCD_CMD(0x80 + x);
 8003b66:	2080      	movs	r0, #128	; 0x80
 8003b68:	f7ff fe58 	bl	800381c <LCD_CMD>
				  LCD_PUTS(str);
 8003b6c:	a802      	add	r0, sp, #8
 8003b6e:	f7ff feff 	bl	8003970 <LCD_PUTS>
			VS1003_SoftReset();
 8003b72:	f000 fbd5 	bl	8004320 <VS1003_SoftReset>
		if(SW3_flag)
 8003b76:	4b3d      	ldr	r3, [pc, #244]	; (8003c6c <main+0x290>)
 8003b78:	781a      	ldrb	r2, [r3, #0]
 8003b7a:	2a00      	cmp	r2, #0
 8003b7c:	d03a      	beq.n	8003bf4 <main+0x218>
			SW3_flag = 0;
 8003b7e:	f04f 0a00 	mov.w	sl, #0
			index = index == 4 ? 0 :index+1;
 8003b82:	2c04      	cmp	r4, #4
			SW3_flag = 0;
 8003b84:	f883 a000 	strb.w	sl, [r3]
			index = index == 4 ? 0 :index+1;
 8003b88:	d018      	beq.n	8003bbc <main+0x1e0>
 8003b8a:	3401      	adds	r4, #1
 8003b8c:	b2a4      	uxth	r4, r4
			switch(index)
 8003b8e:	2c03      	cmp	r4, #3
 8003b90:	d048      	beq.n	8003c24 <main+0x248>
 8003b92:	2c04      	cmp	r4, #4
 8003b94:	d048      	beq.n	8003c28 <main+0x24c>
 8003b96:	2c02      	cmp	r4, #2
 8003b98:	d13e      	bne.n	8003c18 <main+0x23c>
			case 2:strcpy(filename, "0:/3.mp3"); break;
 8003b9a:	4935      	ldr	r1, [pc, #212]	; (8003c70 <main+0x294>)
			case 4:strcpy(filename, "0:/5.mp3"); break;
 8003b9c:	a807      	add	r0, sp, #28
 8003b9e:	f000 fd41 	bl	8004624 <strcpy>
 8003ba2:	e010      	b.n	8003bc6 <main+0x1ea>
			case 2:strcpy(filename, "0:/3.mp3"); break;
 8003ba4:	4932      	ldr	r1, [pc, #200]	; (8003c70 <main+0x294>)
 8003ba6:	e7cc      	b.n	8003b42 <main+0x166>
			case 3:strcpy(filename, "0:/4.mp3"); break;
 8003ba8:	4932      	ldr	r1, [pc, #200]	; (8003c74 <main+0x298>)
 8003baa:	e7ca      	b.n	8003b42 <main+0x166>
			case 4:strcpy(filename, "0:/5.mp3"); break;
 8003bac:	4932      	ldr	r1, [pc, #200]	; (8003c78 <main+0x29c>)
 8003bae:	a807      	add	r0, sp, #28
 8003bb0:	f000 fd38 	bl	8004624 <strcpy>
 8003bb4:	2404      	movs	r4, #4
 8003bb6:	e7c7      	b.n	8003b48 <main+0x16c>
				  sprintf(str,"%s error",filename);
 8003bb8:	4929      	ldr	r1, [pc, #164]	; (8003c60 <main+0x284>)
 8003bba:	e7d1      	b.n	8003b60 <main+0x184>
			case 0:strcpy(filename, "0:/1.mp3"); break;
 8003bbc:	4924      	ldr	r1, [pc, #144]	; (8003c50 <main+0x274>)
 8003bbe:	a807      	add	r0, sp, #28
 8003bc0:	f000 fd30 	bl	8004624 <strcpy>
 8003bc4:	4654      	mov	r4, sl
			f_close(&fil);
 8003bc6:	4638      	mov	r0, r7
 8003bc8:	f7ff f981 	bl	8002ece <f_close>
			if((retSD = f_open(&fil,filename, FA_OPEN_EXISTING | FA_READ )) == FR_OK)
 8003bcc:	2201      	movs	r2, #1
 8003bce:	a907      	add	r1, sp, #28
 8003bd0:	4638      	mov	r0, r7
 8003bd2:	f7fe ff01 	bl	80029d8 <f_open>
				  sprintf(str,"%s opend",filename);
 8003bd6:	aa07      	add	r2, sp, #28
			if((retSD = f_open(&fil,filename, FA_OPEN_EXISTING | FA_READ )) == FR_OK)
 8003bd8:	7030      	strb	r0, [r6, #0]
 8003bda:	bb38      	cbnz	r0, 8003c2c <main+0x250>
				  sprintf(str,"%s opend",filename);
 8003bdc:	491f      	ldr	r1, [pc, #124]	; (8003c5c <main+0x280>)
				  sprintf(str,"%s error",filename);
 8003bde:	a802      	add	r0, sp, #8
 8003be0:	f000 fcfc 	bl	80045dc <siprintf>
  if      (y == 0) LCD_CMD(0x80 + x);
 8003be4:	2080      	movs	r0, #128	; 0x80
 8003be6:	f7ff fe19 	bl	800381c <LCD_CMD>
				  LCD_PUTS(str);
 8003bea:	a802      	add	r0, sp, #8
 8003bec:	f7ff fec0 	bl	8003970 <LCD_PUTS>
			VS1003_SoftReset();
 8003bf0:	f000 fb96 	bl	8004320 <VS1003_SoftReset>
	  	  if(SW2_flag)
 8003bf4:	4b21      	ldr	r3, [pc, #132]	; (8003c7c <main+0x2a0>)
 8003bf6:	781a      	ldrb	r2, [r3, #0]
 8003bf8:	2a00      	cmp	r2, #0
 8003bfa:	f43f af7d 	beq.w	8003af8 <main+0x11c>
	  		SW2_flag = 0;
 8003bfe:	f04f 0a00 	mov.w	sl, #0
  else if (y == 1) LCD_CMD(0xC0 + x);
 8003c02:	20c0      	movs	r0, #192	; 0xc0
	  		SW2_flag = 0;
 8003c04:	f883 a000 	strb.w	sl, [r3]
	  		if(pp_flag)
 8003c08:	b195      	cbz	r5, 8003c30 <main+0x254>
  else if (y == 1) LCD_CMD(0xC0 + x);
 8003c0a:	f7ff fe07 	bl	800381c <LCD_CMD>
				LCD_PUTS("paused ");
 8003c0e:	481c      	ldr	r0, [pc, #112]	; (8003c80 <main+0x2a4>)
 8003c10:	f7ff feae 	bl	8003970 <LCD_PUTS>
	  			pp_flag = 0;
 8003c14:	4655      	mov	r5, sl
 8003c16:	e76f      	b.n	8003af8 <main+0x11c>
			case 1:strcpy(filename, "0:/2.mp3"); break;
 8003c18:	4913      	ldr	r1, [pc, #76]	; (8003c68 <main+0x28c>)
 8003c1a:	a807      	add	r0, sp, #28
 8003c1c:	f000 fd02 	bl	8004624 <strcpy>
			index = index == 4 ? 0 :index+1;
 8003c20:	2401      	movs	r4, #1
			case 1:strcpy(filename, "0:/2.mp3"); break;
 8003c22:	e7d0      	b.n	8003bc6 <main+0x1ea>
			case 3:strcpy(filename, "0:/4.mp3"); break;
 8003c24:	4913      	ldr	r1, [pc, #76]	; (8003c74 <main+0x298>)
 8003c26:	e7b9      	b.n	8003b9c <main+0x1c0>
			case 4:strcpy(filename, "0:/5.mp3"); break;
 8003c28:	4913      	ldr	r1, [pc, #76]	; (8003c78 <main+0x29c>)
 8003c2a:	e7b7      	b.n	8003b9c <main+0x1c0>
				  sprintf(str,"%s error",filename);
 8003c2c:	490c      	ldr	r1, [pc, #48]	; (8003c60 <main+0x284>)
 8003c2e:	e7d6      	b.n	8003bde <main+0x202>
  else if (y == 1) LCD_CMD(0xC0 + x);
 8003c30:	f7ff fdf4 	bl	800381c <LCD_CMD>
				LCD_PUTS("playing  ");
 8003c34:	4813      	ldr	r0, [pc, #76]	; (8003c84 <main+0x2a8>)
 8003c36:	f7ff fe9b 	bl	8003970 <LCD_PUTS>
	  			pp_flag = 1;
 8003c3a:	2501      	movs	r5, #1
 8003c3c:	e75c      	b.n	8003af8 <main+0x11c>
 8003c3e:	bf00      	nop
 8003c40:	08005780 	.word	0x08005780
 8003c44:	08005d7f 	.word	0x08005d7f
 8003c48:	200023b0 	.word	0x200023b0
 8003c4c:	08005d12 	.word	0x08005d12
 8003c50:	080057a0 	.word	0x080057a0
 8003c54:	20003450 	.word	0x20003450
 8003c58:	200023ac 	.word	0x200023ac
 8003c5c:	08005d17 	.word	0x08005d17
 8003c60:	08005d20 	.word	0x08005d20
 8003c64:	08005d29 	.word	0x08005d29
 8003c68:	08005d2e 	.word	0x08005d2e
 8003c6c:	200002d4 	.word	0x200002d4
 8003c70:	08005d37 	.word	0x08005d37
 8003c74:	08005d40 	.word	0x08005d40
 8003c78:	08005d49 	.word	0x08005d49
 8003c7c:	200002d3 	.word	0x200002d3
 8003c80:	08005d52 	.word	0x08005d52
 8003c84:	08005d5a 	.word	0x08005d5a
 8003c88:	40010c00 	.word	0x40010c00
 8003c8c:	200002d2 	.word	0x200002d2

08003c90 <HAL_GPIO_EXTI_Callback>:


void HAL_GPIO_EXTI_Callback(uint16_t GPIO_Pin)
{
	static uint32_t temp;
	if(GPIO_Pin == GPIO_PIN_1)
 8003c90:	2802      	cmp	r0, #2
{
 8003c92:	b538      	push	{r3, r4, r5, lr}
	if(GPIO_Pin == GPIO_PIN_1)
 8003c94:	d114      	bne.n	8003cc0 <HAL_GPIO_EXTI_Callback+0x30>
	{
		if((HAL_GetTick()-temp)>200) SW1_flag =1;
 8003c96:	f7fc fa9b 	bl	80001d0 <HAL_GetTick>
 8003c9a:	4c27      	ldr	r4, [pc, #156]	; (8003d38 <HAL_GPIO_EXTI_Callback+0xa8>)
		while(HAL_GPIO_ReadPin(GPIOC, GPIO_PIN_1)==GPIO_PIN_RESET);
 8003c9c:	4d27      	ldr	r5, [pc, #156]	; (8003d3c <HAL_GPIO_EXTI_Callback+0xac>)
		if((HAL_GetTick()-temp)>200) SW1_flag =1;
 8003c9e:	6822      	ldr	r2, [r4, #0]
 8003ca0:	1a80      	subs	r0, r0, r2
 8003ca2:	28c8      	cmp	r0, #200	; 0xc8
 8003ca4:	bf82      	ittt	hi
 8003ca6:	2201      	movhi	r2, #1
 8003ca8:	4b25      	ldrhi	r3, [pc, #148]	; (8003d40 <HAL_GPIO_EXTI_Callback+0xb0>)
 8003caa:	701a      	strbhi	r2, [r3, #0]
		while(HAL_GPIO_ReadPin(GPIOC, GPIO_PIN_1)==GPIO_PIN_RESET);
 8003cac:	2102      	movs	r1, #2
 8003cae:	4628      	mov	r0, r5
 8003cb0:	f7fc fbf4 	bl	800049c <HAL_GPIO_ReadPin>
 8003cb4:	2800      	cmp	r0, #0
 8003cb6:	d0f9      	beq.n	8003cac <HAL_GPIO_EXTI_Callback+0x1c>

	if(GPIO_Pin == GPIO_PIN_4)
	{
		if((HAL_GetTick()-temp)>200) SW4_flag =1;
		while(HAL_GPIO_ReadPin(GPIOC, GPIO_PIN_4)==GPIO_PIN_RESET);
		temp = HAL_GetTick();
 8003cb8:	f7fc fa8a 	bl	80001d0 <HAL_GetTick>
 8003cbc:	6020      	str	r0, [r4, #0]
 8003cbe:	bd38      	pop	{r3, r4, r5, pc}
	if(GPIO_Pin == GPIO_PIN_2)
 8003cc0:	2804      	cmp	r0, #4
 8003cc2:	d111      	bne.n	8003ce8 <HAL_GPIO_EXTI_Callback+0x58>
		if((HAL_GetTick()-temp)>200) SW2_flag =1;
 8003cc4:	f7fc fa84 	bl	80001d0 <HAL_GetTick>
 8003cc8:	4c1b      	ldr	r4, [pc, #108]	; (8003d38 <HAL_GPIO_EXTI_Callback+0xa8>)
		while(HAL_GPIO_ReadPin(GPIOC, GPIO_PIN_2)==GPIO_PIN_RESET);
 8003cca:	4d1c      	ldr	r5, [pc, #112]	; (8003d3c <HAL_GPIO_EXTI_Callback+0xac>)
		if((HAL_GetTick()-temp)>200) SW2_flag =1;
 8003ccc:	6822      	ldr	r2, [r4, #0]
 8003cce:	1a80      	subs	r0, r0, r2
 8003cd0:	28c8      	cmp	r0, #200	; 0xc8
 8003cd2:	bf82      	ittt	hi
 8003cd4:	2201      	movhi	r2, #1
 8003cd6:	4b1b      	ldrhi	r3, [pc, #108]	; (8003d44 <HAL_GPIO_EXTI_Callback+0xb4>)
 8003cd8:	701a      	strbhi	r2, [r3, #0]
		while(HAL_GPIO_ReadPin(GPIOC, GPIO_PIN_2)==GPIO_PIN_RESET);
 8003cda:	2104      	movs	r1, #4
 8003cdc:	4628      	mov	r0, r5
 8003cde:	f7fc fbdd 	bl	800049c <HAL_GPIO_ReadPin>
 8003ce2:	2800      	cmp	r0, #0
 8003ce4:	d0f9      	beq.n	8003cda <HAL_GPIO_EXTI_Callback+0x4a>
 8003ce6:	e7e7      	b.n	8003cb8 <HAL_GPIO_EXTI_Callback+0x28>
	if(GPIO_Pin == GPIO_PIN_3)
 8003ce8:	2808      	cmp	r0, #8
 8003cea:	d111      	bne.n	8003d10 <HAL_GPIO_EXTI_Callback+0x80>
		if((HAL_GetTick()-temp)>200)  SW3_flag =1;
 8003cec:	f7fc fa70 	bl	80001d0 <HAL_GetTick>
 8003cf0:	4c11      	ldr	r4, [pc, #68]	; (8003d38 <HAL_GPIO_EXTI_Callback+0xa8>)
		while(HAL_GPIO_ReadPin(GPIOC, GPIO_PIN_3)==GPIO_PIN_RESET);
 8003cf2:	4d12      	ldr	r5, [pc, #72]	; (8003d3c <HAL_GPIO_EXTI_Callback+0xac>)
		if((HAL_GetTick()-temp)>200)  SW3_flag =1;
 8003cf4:	6822      	ldr	r2, [r4, #0]
 8003cf6:	1a80      	subs	r0, r0, r2
 8003cf8:	28c8      	cmp	r0, #200	; 0xc8
 8003cfa:	bf82      	ittt	hi
 8003cfc:	2201      	movhi	r2, #1
 8003cfe:	4b12      	ldrhi	r3, [pc, #72]	; (8003d48 <HAL_GPIO_EXTI_Callback+0xb8>)
 8003d00:	701a      	strbhi	r2, [r3, #0]
		while(HAL_GPIO_ReadPin(GPIOC, GPIO_PIN_3)==GPIO_PIN_RESET);
 8003d02:	2108      	movs	r1, #8
 8003d04:	4628      	mov	r0, r5
 8003d06:	f7fc fbc9 	bl	800049c <HAL_GPIO_ReadPin>
 8003d0a:	2800      	cmp	r0, #0
 8003d0c:	d0f9      	beq.n	8003d02 <HAL_GPIO_EXTI_Callback+0x72>
 8003d0e:	e7d3      	b.n	8003cb8 <HAL_GPIO_EXTI_Callback+0x28>
	if(GPIO_Pin == GPIO_PIN_4)
 8003d10:	2810      	cmp	r0, #16
 8003d12:	d1d4      	bne.n	8003cbe <HAL_GPIO_EXTI_Callback+0x2e>
		if((HAL_GetTick()-temp)>200) SW4_flag =1;
 8003d14:	f7fc fa5c 	bl	80001d0 <HAL_GetTick>
 8003d18:	4c07      	ldr	r4, [pc, #28]	; (8003d38 <HAL_GPIO_EXTI_Callback+0xa8>)
		while(HAL_GPIO_ReadPin(GPIOC, GPIO_PIN_4)==GPIO_PIN_RESET);
 8003d1a:	4d08      	ldr	r5, [pc, #32]	; (8003d3c <HAL_GPIO_EXTI_Callback+0xac>)
		if((HAL_GetTick()-temp)>200) SW4_flag =1;
 8003d1c:	6822      	ldr	r2, [r4, #0]
 8003d1e:	1a80      	subs	r0, r0, r2
 8003d20:	28c8      	cmp	r0, #200	; 0xc8
 8003d22:	bf82      	ittt	hi
 8003d24:	2201      	movhi	r2, #1
 8003d26:	4b09      	ldrhi	r3, [pc, #36]	; (8003d4c <HAL_GPIO_EXTI_Callback+0xbc>)
 8003d28:	701a      	strbhi	r2, [r3, #0]
		while(HAL_GPIO_ReadPin(GPIOC, GPIO_PIN_4)==GPIO_PIN_RESET);
 8003d2a:	2110      	movs	r1, #16
 8003d2c:	4628      	mov	r0, r5
 8003d2e:	f7fc fbb5 	bl	800049c <HAL_GPIO_ReadPin>
 8003d32:	2800      	cmp	r0, #0
 8003d34:	d0f9      	beq.n	8003d2a <HAL_GPIO_EXTI_Callback+0x9a>
 8003d36:	e7bf      	b.n	8003cb8 <HAL_GPIO_EXTI_Callback+0x28>
 8003d38:	200002d8 	.word	0x200002d8
 8003d3c:	40011000 	.word	0x40011000
 8003d40:	200002d2 	.word	0x200002d2
 8003d44:	200002d3 	.word	0x200002d3
 8003d48:	200002d4 	.word	0x200002d4
 8003d4c:	200002d5 	.word	0x200002d5

08003d50 <Error_Handler>:
/**
  * @brief  This function is executed in case of error occurrence.
  * @retval None
  */
void Error_Handler(void)
{
 8003d50:	e7fe      	b.n	8003d50 <Error_Handler>
	...

08003d54 <MX_SPI1_Init>:
SPI_HandleTypeDef hspi1;
SPI_HandleTypeDef hspi2;

/* SPI1 init function */
void MX_SPI1_Init(void)
{
 8003d54:	b508      	push	{r3, lr}

  hspi1.Instance = SPI1;
  hspi1.Init.Mode = SPI_MODE_MASTER;
 8003d56:	f44f 7e82 	mov.w	lr, #260	; 0x104
  hspi1.Instance = SPI1;
 8003d5a:	480d      	ldr	r0, [pc, #52]	; (8003d90 <MX_SPI1_Init+0x3c>)
  hspi1.Init.Mode = SPI_MODE_MASTER;
 8003d5c:	4b0d      	ldr	r3, [pc, #52]	; (8003d94 <MX_SPI1_Init+0x40>)
  hspi1.Init.Direction = SPI_DIRECTION_2LINES;
  hspi1.Init.DataSize = SPI_DATASIZE_8BIT;
  hspi1.Init.CLKPolarity = SPI_POLARITY_LOW;
  hspi1.Init.CLKPhase = SPI_PHASE_1EDGE;
  hspi1.Init.NSS = SPI_NSS_SOFT;
 8003d5e:	f44f 7200 	mov.w	r2, #512	; 0x200
  hspi1.Init.Mode = SPI_MODE_MASTER;
 8003d62:	e880 4008 	stmia.w	r0, {r3, lr}
  hspi1.Init.Direction = SPI_DIRECTION_2LINES;
 8003d66:	2300      	movs	r3, #0
  hspi1.Init.NSS = SPI_NSS_SOFT;
 8003d68:	6182      	str	r2, [r0, #24]
  hspi1.Init.Direction = SPI_DIRECTION_2LINES;
 8003d6a:	6083      	str	r3, [r0, #8]
  hspi1.Init.DataSize = SPI_DATASIZE_8BIT;
 8003d6c:	60c3      	str	r3, [r0, #12]
  hspi1.Init.CLKPolarity = SPI_POLARITY_LOW;
 8003d6e:	6103      	str	r3, [r0, #16]
  hspi1.Init.CLKPhase = SPI_PHASE_1EDGE;
 8003d70:	6143      	str	r3, [r0, #20]
  hspi1.Init.BaudRatePrescaler = SPI_BAUDRATEPRESCALER_8;
 8003d72:	2210      	movs	r2, #16
  hspi1.Init.FirstBit = SPI_FIRSTBIT_MSB;
 8003d74:	6203      	str	r3, [r0, #32]
  hspi1.Init.TIMode = SPI_TIMODE_DISABLE;
 8003d76:	6243      	str	r3, [r0, #36]	; 0x24
  hspi1.Init.CRCCalculation = SPI_CRCCALCULATION_DISABLE;
 8003d78:	6283      	str	r3, [r0, #40]	; 0x28
  hspi1.Init.CRCPolynomial = 10;
 8003d7a:	230a      	movs	r3, #10
  hspi1.Init.BaudRatePrescaler = SPI_BAUDRATEPRESCALER_8;
 8003d7c:	61c2      	str	r2, [r0, #28]
  hspi1.Init.CRCPolynomial = 10;
 8003d7e:	62c3      	str	r3, [r0, #44]	; 0x2c
  if (HAL_SPI_Init(&hspi1) != HAL_OK)
 8003d80:	f7fd fa64 	bl	800124c <HAL_SPI_Init>
 8003d84:	b118      	cbz	r0, 8003d8e <MX_SPI1_Init+0x3a>
  {
    Error_Handler();
  }

}
 8003d86:	e8bd 4008 	ldmia.w	sp!, {r3, lr}
    Error_Handler();
 8003d8a:	f7ff bfe1 	b.w	8003d50 <Error_Handler>
 8003d8e:	bd08      	pop	{r3, pc}
 8003d90:	200044d8 	.word	0x200044d8
 8003d94:	40013000 	.word	0x40013000

08003d98 <MX_SPI2_Init>:
/* SPI2 init function */
void MX_SPI2_Init(void)
{
 8003d98:	b508      	push	{r3, lr}

  hspi2.Instance = SPI2;
  hspi2.Init.Mode = SPI_MODE_MASTER;
  hspi2.Init.Direction = SPI_DIRECTION_2LINES;
  hspi2.Init.DataSize = SPI_DATASIZE_8BIT;
  hspi2.Init.CLKPolarity = SPI_POLARITY_HIGH;
 8003d9a:	2202      	movs	r2, #2
  hspi2.Init.Mode = SPI_MODE_MASTER;
 8003d9c:	f44f 7e82 	mov.w	lr, #260	; 0x104
  hspi2.Instance = SPI2;
 8003da0:	480d      	ldr	r0, [pc, #52]	; (8003dd8 <MX_SPI2_Init+0x40>)
  hspi2.Init.Mode = SPI_MODE_MASTER;
 8003da2:	4b0e      	ldr	r3, [pc, #56]	; (8003ddc <MX_SPI2_Init+0x44>)
  hspi2.Init.CLKPolarity = SPI_POLARITY_HIGH;
 8003da4:	6102      	str	r2, [r0, #16]
  hspi2.Init.Mode = SPI_MODE_MASTER;
 8003da6:	e880 4008 	stmia.w	r0, {r3, lr}
  hspi2.Init.CLKPhase = SPI_PHASE_2EDGE;
 8003daa:	2201      	movs	r2, #1
  hspi2.Init.Direction = SPI_DIRECTION_2LINES;
 8003dac:	2300      	movs	r3, #0
  hspi2.Init.CLKPhase = SPI_PHASE_2EDGE;
 8003dae:	6142      	str	r2, [r0, #20]
  hspi2.Init.Direction = SPI_DIRECTION_2LINES;
 8003db0:	6083      	str	r3, [r0, #8]
  hspi2.Init.DataSize = SPI_DATASIZE_8BIT;
 8003db2:	60c3      	str	r3, [r0, #12]
  hspi2.Init.NSS = SPI_NSS_SOFT;
 8003db4:	f44f 7200 	mov.w	r2, #512	; 0x200
  hspi2.Init.BaudRatePrescaler = SPI_BAUDRATEPRESCALER_2;
 8003db8:	61c3      	str	r3, [r0, #28]
  hspi2.Init.FirstBit = SPI_FIRSTBIT_MSB;
 8003dba:	6203      	str	r3, [r0, #32]
  hspi2.Init.TIMode = SPI_TIMODE_DISABLE;
 8003dbc:	6243      	str	r3, [r0, #36]	; 0x24
  hspi2.Init.CRCCalculation = SPI_CRCCALCULATION_DISABLE;
 8003dbe:	6283      	str	r3, [r0, #40]	; 0x28
  hspi2.Init.CRCPolynomial = 10;
 8003dc0:	230a      	movs	r3, #10
  hspi2.Init.NSS = SPI_NSS_SOFT;
 8003dc2:	6182      	str	r2, [r0, #24]
  hspi2.Init.CRCPolynomial = 10;
 8003dc4:	62c3      	str	r3, [r0, #44]	; 0x2c
  if (HAL_SPI_Init(&hspi2) != HAL_OK)
 8003dc6:	f7fd fa41 	bl	800124c <HAL_SPI_Init>
 8003dca:	b118      	cbz	r0, 8003dd4 <MX_SPI2_Init+0x3c>
  {
    Error_Handler();
  }

}
 8003dcc:	e8bd 4008 	ldmia.w	sp!, {r3, lr}
    Error_Handler();
 8003dd0:	f7ff bfbe 	b.w	8003d50 <Error_Handler>
 8003dd4:	bd08      	pop	{r3, pc}
 8003dd6:	bf00      	nop
 8003dd8:	20004480 	.word	0x20004480
 8003ddc:	40003800 	.word	0x40003800

08003de0 <HAL_SPI_MspInit>:

void HAL_SPI_MspInit(SPI_HandleTypeDef* spiHandle)
{

  GPIO_InitTypeDef GPIO_InitStruct = {0};
 8003de0:	2210      	movs	r2, #16
{
 8003de2:	b510      	push	{r4, lr}
 8003de4:	4604      	mov	r4, r0
 8003de6:	b088      	sub	sp, #32
  GPIO_InitTypeDef GPIO_InitStruct = {0};
 8003de8:	eb0d 0002 	add.w	r0, sp, r2
 8003dec:	2100      	movs	r1, #0
 8003dee:	f000 fb71 	bl	80044d4 <memset>
  if(spiHandle->Instance==SPI1)
 8003df2:	6823      	ldr	r3, [r4, #0]
 8003df4:	4a2a      	ldr	r2, [pc, #168]	; (8003ea0 <HAL_SPI_MspInit+0xc0>)
 8003df6:	4293      	cmp	r3, r2
 8003df8:	d127      	bne.n	8003e4a <HAL_SPI_MspInit+0x6a>
  {
  /* USER CODE BEGIN SPI1_MspInit 0 */

  /* USER CODE END SPI1_MspInit 0 */
    /* SPI1 clock enable */
    __HAL_RCC_SPI1_CLK_ENABLE();
 8003dfa:	4b2a      	ldr	r3, [pc, #168]	; (8003ea4 <HAL_SPI_MspInit+0xc4>)
    PA7     ------> SPI1_MOSI 
    */
    GPIO_InitStruct.Pin = GPIO_PIN_5|GPIO_PIN_7;
    GPIO_InitStruct.Mode = GPIO_MODE_AF_PP;
    GPIO_InitStruct.Speed = GPIO_SPEED_FREQ_HIGH;
    HAL_GPIO_Init(GPIOA, &GPIO_InitStruct);
 8003dfc:	a904      	add	r1, sp, #16
    __HAL_RCC_SPI1_CLK_ENABLE();
 8003dfe:	699a      	ldr	r2, [r3, #24]
    HAL_GPIO_Init(GPIOA, &GPIO_InitStruct);
 8003e00:	4829      	ldr	r0, [pc, #164]	; (8003ea8 <HAL_SPI_MspInit+0xc8>)
    __HAL_RCC_SPI1_CLK_ENABLE();
 8003e02:	f442 5280 	orr.w	r2, r2, #4096	; 0x1000
 8003e06:	619a      	str	r2, [r3, #24]
 8003e08:	699a      	ldr	r2, [r3, #24]
 8003e0a:	f402 5280 	and.w	r2, r2, #4096	; 0x1000
 8003e0e:	9200      	str	r2, [sp, #0]
 8003e10:	9a00      	ldr	r2, [sp, #0]
    __HAL_RCC_GPIOA_CLK_ENABLE();
 8003e12:	699a      	ldr	r2, [r3, #24]
 8003e14:	f042 0204 	orr.w	r2, r2, #4
 8003e18:	619a      	str	r2, [r3, #24]
 8003e1a:	699b      	ldr	r3, [r3, #24]
 8003e1c:	f003 0304 	and.w	r3, r3, #4
 8003e20:	9301      	str	r3, [sp, #4]
 8003e22:	9b01      	ldr	r3, [sp, #4]
    GPIO_InitStruct.Pin = GPIO_PIN_5|GPIO_PIN_7;
 8003e24:	23a0      	movs	r3, #160	; 0xa0
 8003e26:	9304      	str	r3, [sp, #16]
    GPIO_InitStruct.Mode = GPIO_MODE_AF_PP;
 8003e28:	2302      	movs	r3, #2
 8003e2a:	9305      	str	r3, [sp, #20]
    GPIO_InitStruct.Speed = GPIO_SPEED_FREQ_HIGH;
 8003e2c:	2303      	movs	r3, #3
 8003e2e:	9307      	str	r3, [sp, #28]
    HAL_GPIO_Init(GPIOA, &GPIO_InitStruct);
 8003e30:	f7fc fa54 	bl	80002dc <HAL_GPIO_Init>

    GPIO_InitStruct.Pin = GPIO_PIN_6;
 8003e34:	2340      	movs	r3, #64	; 0x40
 8003e36:	9304      	str	r3, [sp, #16]
    GPIO_InitStruct.Mode = GPIO_MODE_INPUT;
 8003e38:	2300      	movs	r3, #0
    GPIO_InitStruct.Pull = GPIO_NOPULL;
    HAL_GPIO_Init(GPIOA, &GPIO_InitStruct);
 8003e3a:	481b      	ldr	r0, [pc, #108]	; (8003ea8 <HAL_SPI_MspInit+0xc8>)
    GPIO_InitStruct.Mode = GPIO_MODE_INPUT;
 8003e3c:	9305      	str	r3, [sp, #20]
    GPIO_InitStruct.Pull = GPIO_NOPULL;
 8003e3e:	9306      	str	r3, [sp, #24]
    HAL_GPIO_Init(GPIOA, &GPIO_InitStruct);
 8003e40:	a904      	add	r1, sp, #16
    HAL_GPIO_Init(GPIOB, &GPIO_InitStruct);

    GPIO_InitStruct.Pin = GPIO_PIN_14;
    GPIO_InitStruct.Mode = GPIO_MODE_INPUT;
    GPIO_InitStruct.Pull = GPIO_NOPULL;
    HAL_GPIO_Init(GPIOB, &GPIO_InitStruct);
 8003e42:	f7fc fa4b 	bl	80002dc <HAL_GPIO_Init>

  /* USER CODE BEGIN SPI2_MspInit 1 */

  /* USER CODE END SPI2_MspInit 1 */
  }
}
 8003e46:	b008      	add	sp, #32
 8003e48:	bd10      	pop	{r4, pc}
  else if(spiHandle->Instance==SPI2)
 8003e4a:	4a18      	ldr	r2, [pc, #96]	; (8003eac <HAL_SPI_MspInit+0xcc>)
 8003e4c:	4293      	cmp	r3, r2
 8003e4e:	d1fa      	bne.n	8003e46 <HAL_SPI_MspInit+0x66>
    __HAL_RCC_SPI2_CLK_ENABLE();
 8003e50:	4b14      	ldr	r3, [pc, #80]	; (8003ea4 <HAL_SPI_MspInit+0xc4>)
    HAL_GPIO_Init(GPIOB, &GPIO_InitStruct);
 8003e52:	a904      	add	r1, sp, #16
    __HAL_RCC_SPI2_CLK_ENABLE();
 8003e54:	69da      	ldr	r2, [r3, #28]
    HAL_GPIO_Init(GPIOB, &GPIO_InitStruct);
 8003e56:	4816      	ldr	r0, [pc, #88]	; (8003eb0 <HAL_SPI_MspInit+0xd0>)
    __HAL_RCC_SPI2_CLK_ENABLE();
 8003e58:	f442 4280 	orr.w	r2, r2, #16384	; 0x4000
 8003e5c:	61da      	str	r2, [r3, #28]
 8003e5e:	69da      	ldr	r2, [r3, #28]
 8003e60:	f402 4280 	and.w	r2, r2, #16384	; 0x4000
 8003e64:	9202      	str	r2, [sp, #8]
 8003e66:	9a02      	ldr	r2, [sp, #8]
    __HAL_RCC_GPIOB_CLK_ENABLE();
 8003e68:	699a      	ldr	r2, [r3, #24]
 8003e6a:	f042 0208 	orr.w	r2, r2, #8
 8003e6e:	619a      	str	r2, [r3, #24]
 8003e70:	699b      	ldr	r3, [r3, #24]
 8003e72:	f003 0308 	and.w	r3, r3, #8
 8003e76:	9303      	str	r3, [sp, #12]
 8003e78:	9b03      	ldr	r3, [sp, #12]
    GPIO_InitStruct.Pin = GPIO_PIN_13|GPIO_PIN_15;
 8003e7a:	f44f 4320 	mov.w	r3, #40960	; 0xa000
 8003e7e:	9304      	str	r3, [sp, #16]
    GPIO_InitStruct.Mode = GPIO_MODE_AF_PP;
 8003e80:	2302      	movs	r3, #2
 8003e82:	9305      	str	r3, [sp, #20]
    GPIO_InitStruct.Speed = GPIO_SPEED_FREQ_HIGH;
 8003e84:	2303      	movs	r3, #3
 8003e86:	9307      	str	r3, [sp, #28]
    HAL_GPIO_Init(GPIOB, &GPIO_InitStruct);
 8003e88:	f7fc fa28 	bl	80002dc <HAL_GPIO_Init>
    GPIO_InitStruct.Pin = GPIO_PIN_14;
 8003e8c:	f44f 4380 	mov.w	r3, #16384	; 0x4000
 8003e90:	9304      	str	r3, [sp, #16]
    GPIO_InitStruct.Mode = GPIO_MODE_INPUT;
 8003e92:	2300      	movs	r3, #0
    HAL_GPIO_Init(GPIOB, &GPIO_InitStruct);
 8003e94:	a904      	add	r1, sp, #16
    GPIO_InitStruct.Mode = GPIO_MODE_INPUT;
 8003e96:	9305      	str	r3, [sp, #20]
    GPIO_InitStruct.Pull = GPIO_NOPULL;
 8003e98:	9306      	str	r3, [sp, #24]
    HAL_GPIO_Init(GPIOB, &GPIO_InitStruct);
 8003e9a:	4805      	ldr	r0, [pc, #20]	; (8003eb0 <HAL_SPI_MspInit+0xd0>)
 8003e9c:	e7d1      	b.n	8003e42 <HAL_SPI_MspInit+0x62>
 8003e9e:	bf00      	nop
 8003ea0:	40013000 	.word	0x40013000
 8003ea4:	40021000 	.word	0x40021000
 8003ea8:	40010800 	.word	0x40010800
 8003eac:	40003800 	.word	0x40003800
 8003eb0:	40010c00 	.word	0x40010c00

08003eb4 <HAL_MspInit>:
{
  /* USER CODE BEGIN MspInit 0 */

  /* USER CODE END MspInit 0 */

  __HAL_RCC_AFIO_CLK_ENABLE();
 8003eb4:	4b0e      	ldr	r3, [pc, #56]	; (8003ef0 <HAL_MspInit+0x3c>)
{
 8003eb6:	b082      	sub	sp, #8
  __HAL_RCC_AFIO_CLK_ENABLE();
 8003eb8:	699a      	ldr	r2, [r3, #24]
 8003eba:	f042 0201 	orr.w	r2, r2, #1
 8003ebe:	619a      	str	r2, [r3, #24]
 8003ec0:	699a      	ldr	r2, [r3, #24]
 8003ec2:	f002 0201 	and.w	r2, r2, #1
 8003ec6:	9200      	str	r2, [sp, #0]
 8003ec8:	9a00      	ldr	r2, [sp, #0]
  __HAL_RCC_PWR_CLK_ENABLE();
 8003eca:	69da      	ldr	r2, [r3, #28]
 8003ecc:	f042 5280 	orr.w	r2, r2, #268435456	; 0x10000000
 8003ed0:	61da      	str	r2, [r3, #28]
 8003ed2:	69db      	ldr	r3, [r3, #28]

  /* System interrupt init*/

  /** NOJTAG: JTAG-DP Disabled and SW-DP Enabled 
  */
  __HAL_AFIO_REMAP_SWJ_NOJTAG();
 8003ed4:	4a07      	ldr	r2, [pc, #28]	; (8003ef4 <HAL_MspInit+0x40>)
  __HAL_RCC_PWR_CLK_ENABLE();
 8003ed6:	f003 5380 	and.w	r3, r3, #268435456	; 0x10000000
 8003eda:	9301      	str	r3, [sp, #4]
 8003edc:	9b01      	ldr	r3, [sp, #4]
  __HAL_AFIO_REMAP_SWJ_NOJTAG();
 8003ede:	6853      	ldr	r3, [r2, #4]
 8003ee0:	f023 63e0 	bic.w	r3, r3, #117440512	; 0x7000000
 8003ee4:	f043 7300 	orr.w	r3, r3, #33554432	; 0x2000000
 8003ee8:	6053      	str	r3, [r2, #4]

  /* USER CODE BEGIN MspInit 1 */

  /* USER CODE END MspInit 1 */
}
 8003eea:	b002      	add	sp, #8
 8003eec:	4770      	bx	lr
 8003eee:	bf00      	nop
 8003ef0:	40021000 	.word	0x40021000
 8003ef4:	40010000 	.word	0x40010000

08003ef8 <SDTimer_Handler>:
volatile uint8_t Timer1, Timer2;


void SDTimer_Handler(void)
{
  if(Timer1 > 0)
 8003ef8:	4a07      	ldr	r2, [pc, #28]	; (8003f18 <SDTimer_Handler+0x20>)
 8003efa:	7813      	ldrb	r3, [r2, #0]
 8003efc:	b11b      	cbz	r3, 8003f06 <SDTimer_Handler+0xe>
    Timer1--;
 8003efe:	7813      	ldrb	r3, [r2, #0]
 8003f00:	3b01      	subs	r3, #1
 8003f02:	b2db      	uxtb	r3, r3
 8003f04:	7013      	strb	r3, [r2, #0]

  if(Timer2 > 0)
 8003f06:	4a05      	ldr	r2, [pc, #20]	; (8003f1c <SDTimer_Handler+0x24>)
 8003f08:	7813      	ldrb	r3, [r2, #0]
 8003f0a:	b11b      	cbz	r3, 8003f14 <SDTimer_Handler+0x1c>
    Timer2--;
 8003f0c:	7813      	ldrb	r3, [r2, #0]
 8003f0e:	3b01      	subs	r3, #1
 8003f10:	b2db      	uxtb	r3, r3
 8003f12:	7013      	strb	r3, [r2, #0]
 8003f14:	4770      	bx	lr
 8003f16:	bf00      	nop
 8003f18:	20004531 	.word	0x20004531
 8003f1c:	20004530 	.word	0x20004530

08003f20 <NMI_Handler>:
 8003f20:	4770      	bx	lr

08003f22 <HardFault_Handler>:

/**
  * @brief This function handles Hard fault interrupt.
  */
void HardFault_Handler(void)
{
 8003f22:	e7fe      	b.n	8003f22 <HardFault_Handler>

08003f24 <MemManage_Handler>:

/**
  * @brief This function handles Memory management fault.
  */
void MemManage_Handler(void)
{
 8003f24:	e7fe      	b.n	8003f24 <MemManage_Handler>

08003f26 <BusFault_Handler>:

/**
  * @brief This function handles Prefetch fault, memory access fault.
  */
void BusFault_Handler(void)
{
 8003f26:	e7fe      	b.n	8003f26 <BusFault_Handler>

08003f28 <UsageFault_Handler>:

/**
  * @brief This function handles Undefined instruction or illegal state.
  */
void UsageFault_Handler(void)
{
 8003f28:	e7fe      	b.n	8003f28 <UsageFault_Handler>

08003f2a <SVC_Handler>:
 8003f2a:	4770      	bx	lr

08003f2c <DebugMon_Handler>:
 8003f2c:	4770      	bx	lr

08003f2e <PendSV_Handler>:

/**
  * @brief This function handles Pendable request for system service.
  */
void PendSV_Handler(void)
{
 8003f2e:	4770      	bx	lr

08003f30 <SysTick_Handler>:

/**
  * @brief This function handles System tick timer.
  */
void SysTick_Handler(void)
{
 8003f30:	b508      	push	{r3, lr}
  /* USER CODE BEGIN SysTick_IRQn 0 */
	FatFsCnt++;
 8003f32:	4a09      	ldr	r2, [pc, #36]	; (8003f58 <SysTick_Handler+0x28>)
 8003f34:	7813      	ldrb	r3, [r2, #0]
 8003f36:	3301      	adds	r3, #1
 8003f38:	b2db      	uxtb	r3, r3
 8003f3a:	7013      	strb	r3, [r2, #0]
	  if(FatFsCnt >= 10)
 8003f3c:	7813      	ldrb	r3, [r2, #0]
 8003f3e:	2b09      	cmp	r3, #9
 8003f40:	d903      	bls.n	8003f4a <SysTick_Handler+0x1a>
	  {
		FatFsCnt = 0;
 8003f42:	2300      	movs	r3, #0
 8003f44:	7013      	strb	r3, [r2, #0]
		SDTimer_Handler();
 8003f46:	f7ff ffd7 	bl	8003ef8 <SDTimer_Handler>
	  }
  /* USER CODE END SysTick_IRQn 0 */
  HAL_IncTick();
 8003f4a:	f7fc f935 	bl	80001b8 <HAL_IncTick>
  /* USER CODE BEGIN SysTick_IRQn 1 */
  HAL_SYSTICK_IRQHandler();
  /* USER CODE END SysTick_IRQn 1 */
}
 8003f4e:	e8bd 4008 	ldmia.w	sp!, {r3, lr}
  HAL_SYSTICK_IRQHandler();
 8003f52:	f7fc b9be 	b.w	80002d2 <HAL_SYSTICK_IRQHandler>
 8003f56:	bf00      	nop
 8003f58:	200002dc 	.word	0x200002dc

08003f5c <EXTI1_IRQHandler>:
void EXTI1_IRQHandler(void)
{
  /* USER CODE BEGIN EXTI1_IRQn 0 */

  /* USER CODE END EXTI1_IRQn 0 */
  HAL_GPIO_EXTI_IRQHandler(GPIO_PIN_1);
 8003f5c:	2002      	movs	r0, #2
 8003f5e:	f7fc baa9 	b.w	80004b4 <HAL_GPIO_EXTI_IRQHandler>

08003f62 <EXTI2_IRQHandler>:
void EXTI2_IRQHandler(void)
{
  /* USER CODE BEGIN EXTI2_IRQn 0 */

  /* USER CODE END EXTI2_IRQn 0 */
  HAL_GPIO_EXTI_IRQHandler(GPIO_PIN_2);
 8003f62:	2004      	movs	r0, #4
 8003f64:	f7fc baa6 	b.w	80004b4 <HAL_GPIO_EXTI_IRQHandler>

08003f68 <EXTI3_IRQHandler>:
void EXTI3_IRQHandler(void)
{
  /* USER CODE BEGIN EXTI3_IRQn 0 */

  /* USER CODE END EXTI3_IRQn 0 */
  HAL_GPIO_EXTI_IRQHandler(GPIO_PIN_3);
 8003f68:	2008      	movs	r0, #8
 8003f6a:	f7fc baa3 	b.w	80004b4 <HAL_GPIO_EXTI_IRQHandler>

08003f6e <EXTI4_IRQHandler>:
void EXTI4_IRQHandler(void)
{
  /* USER CODE BEGIN EXTI4_IRQn 0 */

  /* USER CODE END EXTI4_IRQn 0 */
  HAL_GPIO_EXTI_IRQHandler(GPIO_PIN_4);
 8003f6e:	2010      	movs	r0, #16
 8003f70:	f7fc baa0 	b.w	80004b4 <HAL_GPIO_EXTI_IRQHandler>

08003f74 <_read>:
	_kill(status, -1);
	while (1) {}		/* Make sure we hang here */
}

__attribute__((weak)) int _read(int file, char *ptr, int len)
{
 8003f74:	b570      	push	{r4, r5, r6, lr}
 8003f76:	460e      	mov	r6, r1
 8003f78:	4615      	mov	r5, r2
	int DataIdx;

	for (DataIdx = 0; DataIdx < len; DataIdx++)
 8003f7a:	460c      	mov	r4, r1
 8003f7c:	1ba3      	subs	r3, r4, r6
 8003f7e:	429d      	cmp	r5, r3
 8003f80:	dc01      	bgt.n	8003f86 <_read+0x12>
	{
		*ptr++ = __io_getchar();
	}

return len;
}
 8003f82:	4628      	mov	r0, r5
 8003f84:	bd70      	pop	{r4, r5, r6, pc}
		*ptr++ = __io_getchar();
 8003f86:	f3af 8000 	nop.w
 8003f8a:	f804 0b01 	strb.w	r0, [r4], #1
 8003f8e:	e7f5      	b.n	8003f7c <_read+0x8>

08003f90 <_sbrk>:
	}
	return len;
}

caddr_t _sbrk(int incr)
{
 8003f90:	b508      	push	{r3, lr}
	extern char end asm("end");
	static char *heap_end;
	char *prev_heap_end;

	if (heap_end == 0)
 8003f92:	4b0a      	ldr	r3, [pc, #40]	; (8003fbc <_sbrk+0x2c>)
{
 8003f94:	4602      	mov	r2, r0
	if (heap_end == 0)
 8003f96:	6819      	ldr	r1, [r3, #0]
 8003f98:	b909      	cbnz	r1, 8003f9e <_sbrk+0xe>
		heap_end = &end;
 8003f9a:	4909      	ldr	r1, [pc, #36]	; (8003fc0 <_sbrk+0x30>)
 8003f9c:	6019      	str	r1, [r3, #0]

	prev_heap_end = heap_end;
	if (heap_end + incr > stack_ptr)
 8003f9e:	4669      	mov	r1, sp
	prev_heap_end = heap_end;
 8003fa0:	6818      	ldr	r0, [r3, #0]
	if (heap_end + incr > stack_ptr)
 8003fa2:	4402      	add	r2, r0
 8003fa4:	428a      	cmp	r2, r1
 8003fa6:	d906      	bls.n	8003fb6 <_sbrk+0x26>
	{
//		write(1, "Heap and stack collision\n", 25);
//		abort();
		errno = ENOMEM;
 8003fa8:	f000 fa6a 	bl	8004480 <__errno>
 8003fac:	230c      	movs	r3, #12
 8003fae:	6003      	str	r3, [r0, #0]
		return (caddr_t) -1;
 8003fb0:	f04f 30ff 	mov.w	r0, #4294967295
 8003fb4:	bd08      	pop	{r3, pc}
	}

	heap_end += incr;
 8003fb6:	601a      	str	r2, [r3, #0]

	return (caddr_t) prev_heap_end;
}
 8003fb8:	bd08      	pop	{r3, pc}
 8003fba:	bf00      	nop
 8003fbc:	200002e0 	.word	0x200002e0
 8003fc0:	20004578 	.word	0x20004578

08003fc4 <_close>:

int _close(int file)
{
	return -1;
}
 8003fc4:	f04f 30ff 	mov.w	r0, #4294967295
 8003fc8:	4770      	bx	lr

08003fca <_fstat>:


int _fstat(int file, struct stat *st)
{
	st->st_mode = S_IFCHR;
 8003fca:	f44f 5300 	mov.w	r3, #8192	; 0x2000
	return 0;
}
 8003fce:	2000      	movs	r0, #0
	st->st_mode = S_IFCHR;
 8003fd0:	604b      	str	r3, [r1, #4]
}
 8003fd2:	4770      	bx	lr

08003fd4 <_isatty>:

int _isatty(int file)
{
	return 1;
}
 8003fd4:	2001      	movs	r0, #1
 8003fd6:	4770      	bx	lr

08003fd8 <_lseek>:

int _lseek(int file, int ptr, int dir)
{
	return 0;
}
 8003fd8:	2000      	movs	r0, #0
 8003fda:	4770      	bx	lr

08003fdc <SystemInit>:
  */
void SystemInit (void)
{
  /* Reset the RCC clock configuration to the default reset state(for debug purpose) */
  /* Set HSION bit */
  RCC->CR |= 0x00000001U;
 8003fdc:	4b0f      	ldr	r3, [pc, #60]	; (800401c <SystemInit+0x40>)
 8003fde:	681a      	ldr	r2, [r3, #0]
 8003fe0:	f042 0201 	orr.w	r2, r2, #1
 8003fe4:	601a      	str	r2, [r3, #0]

  /* Reset SW, HPRE, PPRE1, PPRE2, ADCPRE and MCO bits */
#if !defined(STM32F105xC) && !defined(STM32F107xC)
  RCC->CFGR &= 0xF8FF0000U;
 8003fe6:	6859      	ldr	r1, [r3, #4]
 8003fe8:	4a0d      	ldr	r2, [pc, #52]	; (8004020 <SystemInit+0x44>)
 8003fea:	400a      	ands	r2, r1
 8003fec:	605a      	str	r2, [r3, #4]
#else
  RCC->CFGR &= 0xF0FF0000U;
#endif /* STM32F105xC */   
  
  /* Reset HSEON, CSSON and PLLON bits */
  RCC->CR &= 0xFEF6FFFFU;
 8003fee:	681a      	ldr	r2, [r3, #0]
 8003ff0:	f022 7284 	bic.w	r2, r2, #17301504	; 0x1080000
 8003ff4:	f422 3280 	bic.w	r2, r2, #65536	; 0x10000
 8003ff8:	601a      	str	r2, [r3, #0]

  /* Reset HSEBYP bit */
  RCC->CR &= 0xFFFBFFFFU;
 8003ffa:	681a      	ldr	r2, [r3, #0]
 8003ffc:	f422 2280 	bic.w	r2, r2, #262144	; 0x40000
 8004000:	601a      	str	r2, [r3, #0]

  /* Reset PLLSRC, PLLXTPRE, PLLMUL and USBPRE/OTGFSPRE bits */
  RCC->CFGR &= 0xFF80FFFFU;
 8004002:	685a      	ldr	r2, [r3, #4]
 8004004:	f422 02fe 	bic.w	r2, r2, #8323072	; 0x7f0000
 8004008:	605a      	str	r2, [r3, #4]

  /* Reset CFGR2 register */
  RCC->CFGR2 = 0x00000000U;      
#else
  /* Disable all interrupts and clear pending bits  */
  RCC->CIR = 0x009F0000U;
 800400a:	f44f 021f 	mov.w	r2, #10420224	; 0x9f0000
 800400e:	609a      	str	r2, [r3, #8]
#endif 

#ifdef VECT_TAB_SRAM
  SCB->VTOR = SRAM_BASE | VECT_TAB_OFFSET; /* Vector Table Relocation in Internal SRAM. */
#else
  SCB->VTOR = FLASH_BASE | VECT_TAB_OFFSET; /* Vector Table Relocation in Internal FLASH. */
 8004010:	f04f 6200 	mov.w	r2, #134217728	; 0x8000000
 8004014:	4b03      	ldr	r3, [pc, #12]	; (8004024 <SystemInit+0x48>)
 8004016:	609a      	str	r2, [r3, #8]
 8004018:	4770      	bx	lr
 800401a:	bf00      	nop
 800401c:	40021000 	.word	0x40021000
 8004020:	f8ff0000 	.word	0xf8ff0000
 8004024:	e000ed00 	.word	0xe000ed00

08004028 <MX_USART2_UART_Init>:
UART_HandleTypeDef huart2;

/* USART2 init function */

void MX_USART2_UART_Init(void)
{
 8004028:	b508      	push	{r3, lr}

  huart2.Instance = USART2;
  huart2.Init.BaudRate = 115200;
 800402a:	f44f 3ee1 	mov.w	lr, #115200	; 0x1c200
  huart2.Instance = USART2;
 800402e:	480a      	ldr	r0, [pc, #40]	; (8004058 <MX_USART2_UART_Init+0x30>)
  huart2.Init.BaudRate = 115200;
 8004030:	4b0a      	ldr	r3, [pc, #40]	; (800405c <MX_USART2_UART_Init+0x34>)
  huart2.Init.WordLength = UART_WORDLENGTH_8B;
  huart2.Init.StopBits = UART_STOPBITS_1;
  huart2.Init.Parity = UART_PARITY_NONE;
  huart2.Init.Mode = UART_MODE_TX_RX;
 8004032:	220c      	movs	r2, #12
  huart2.Init.BaudRate = 115200;
 8004034:	e880 4008 	stmia.w	r0, {r3, lr}
  huart2.Init.WordLength = UART_WORDLENGTH_8B;
 8004038:	2300      	movs	r3, #0
  huart2.Init.Mode = UART_MODE_TX_RX;
 800403a:	6142      	str	r2, [r0, #20]
  huart2.Init.WordLength = UART_WORDLENGTH_8B;
 800403c:	6083      	str	r3, [r0, #8]
  huart2.Init.StopBits = UART_STOPBITS_1;
 800403e:	60c3      	str	r3, [r0, #12]
  huart2.Init.Parity = UART_PARITY_NONE;
 8004040:	6103      	str	r3, [r0, #16]
  huart2.Init.HwFlowCtl = UART_HWCONTROL_NONE;
 8004042:	6183      	str	r3, [r0, #24]
  huart2.Init.OverSampling = UART_OVERSAMPLING_16;
 8004044:	61c3      	str	r3, [r0, #28]
  if (HAL_UART_Init(&huart2) != HAL_OK)
 8004046:	f7fd fa03 	bl	8001450 <HAL_UART_Init>
 800404a:	b118      	cbz	r0, 8004054 <MX_USART2_UART_Init+0x2c>
  {
    Error_Handler();
  }

}
 800404c:	e8bd 4008 	ldmia.w	sp!, {r3, lr}
    Error_Handler();
 8004050:	f7ff be7e 	b.w	8003d50 <Error_Handler>
 8004054:	bd08      	pop	{r3, pc}
 8004056:	bf00      	nop
 8004058:	20004534 	.word	0x20004534
 800405c:	40004400 	.word	0x40004400

08004060 <HAL_UART_MspInit>:

void HAL_UART_MspInit(UART_HandleTypeDef* uartHandle)
{
 8004060:	b510      	push	{r4, lr}
 8004062:	4604      	mov	r4, r0
 8004064:	b086      	sub	sp, #24

  GPIO_InitTypeDef GPIO_InitStruct = {0};
 8004066:	2210      	movs	r2, #16
 8004068:	2100      	movs	r1, #0
 800406a:	a802      	add	r0, sp, #8
 800406c:	f000 fa32 	bl	80044d4 <memset>
  if(uartHandle->Instance==USART2)
 8004070:	6822      	ldr	r2, [r4, #0]
 8004072:	4b16      	ldr	r3, [pc, #88]	; (80040cc <HAL_UART_MspInit+0x6c>)
 8004074:	429a      	cmp	r2, r3
 8004076:	d126      	bne.n	80040c6 <HAL_UART_MspInit+0x66>
  {
  /* USER CODE BEGIN USART2_MspInit 0 */

  /* USER CODE END USART2_MspInit 0 */
    /* USART2 clock enable */
    __HAL_RCC_USART2_CLK_ENABLE();
 8004078:	f503 33e6 	add.w	r3, r3, #117760	; 0x1cc00
 800407c:	69da      	ldr	r2, [r3, #28]
    PA3     ------> USART2_RX 
    */
    GPIO_InitStruct.Pin = GPIO_PIN_2;
    GPIO_InitStruct.Mode = GPIO_MODE_AF_PP;
    GPIO_InitStruct.Speed = GPIO_SPEED_FREQ_HIGH;
    HAL_GPIO_Init(GPIOA, &GPIO_InitStruct);
 800407e:	a902      	add	r1, sp, #8
    __HAL_RCC_USART2_CLK_ENABLE();
 8004080:	f442 3200 	orr.w	r2, r2, #131072	; 0x20000
 8004084:	61da      	str	r2, [r3, #28]
 8004086:	69da      	ldr	r2, [r3, #28]
    HAL_GPIO_Init(GPIOA, &GPIO_InitStruct);
 8004088:	4811      	ldr	r0, [pc, #68]	; (80040d0 <HAL_UART_MspInit+0x70>)
    __HAL_RCC_USART2_CLK_ENABLE();
 800408a:	f402 3200 	and.w	r2, r2, #131072	; 0x20000
 800408e:	9200      	str	r2, [sp, #0]
 8004090:	9a00      	ldr	r2, [sp, #0]
    __HAL_RCC_GPIOA_CLK_ENABLE();
 8004092:	699a      	ldr	r2, [r3, #24]
 8004094:	f042 0204 	orr.w	r2, r2, #4
 8004098:	619a      	str	r2, [r3, #24]
 800409a:	699b      	ldr	r3, [r3, #24]
 800409c:	f003 0304 	and.w	r3, r3, #4
 80040a0:	9301      	str	r3, [sp, #4]
 80040a2:	9b01      	ldr	r3, [sp, #4]
    GPIO_InitStruct.Pin = GPIO_PIN_2;
 80040a4:	2304      	movs	r3, #4
 80040a6:	9302      	str	r3, [sp, #8]
    GPIO_InitStruct.Mode = GPIO_MODE_AF_PP;
 80040a8:	2302      	movs	r3, #2
 80040aa:	9303      	str	r3, [sp, #12]
    GPIO_InitStruct.Speed = GPIO_SPEED_FREQ_HIGH;
 80040ac:	2303      	movs	r3, #3
 80040ae:	9305      	str	r3, [sp, #20]
    HAL_GPIO_Init(GPIOA, &GPIO_InitStruct);
 80040b0:	f7fc f914 	bl	80002dc <HAL_GPIO_Init>

    GPIO_InitStruct.Pin = GPIO_PIN_3;
 80040b4:	2308      	movs	r3, #8
 80040b6:	9302      	str	r3, [sp, #8]
    GPIO_InitStruct.Mode = GPIO_MODE_INPUT;
 80040b8:	2300      	movs	r3, #0
    GPIO_InitStruct.Pull = GPIO_NOPULL;
    HAL_GPIO_Init(GPIOA, &GPIO_InitStruct);
 80040ba:	a902      	add	r1, sp, #8
 80040bc:	4804      	ldr	r0, [pc, #16]	; (80040d0 <HAL_UART_MspInit+0x70>)
    GPIO_InitStruct.Mode = GPIO_MODE_INPUT;
 80040be:	9303      	str	r3, [sp, #12]
    GPIO_InitStruct.Pull = GPIO_NOPULL;
 80040c0:	9304      	str	r3, [sp, #16]
    HAL_GPIO_Init(GPIOA, &GPIO_InitStruct);
 80040c2:	f7fc f90b 	bl	80002dc <HAL_GPIO_Init>

  /* USER CODE BEGIN USART2_MspInit 1 */

  /* USER CODE END USART2_MspInit 1 */
  }
}
 80040c6:	b006      	add	sp, #24
 80040c8:	bd10      	pop	{r4, pc}
 80040ca:	bf00      	nop
 80040cc:	40004400 	.word	0x40004400
 80040d0:	40010800 	.word	0x40010800

080040d4 <USER_initialize>:
  * @retval DSTATUS: Operation status
  */
DSTATUS USER_initialize (
	BYTE pdrv           /* Physical drive nmuber to identify the drive */
)
{
 80040d4:	b508      	push	{r3, lr}
  /* USER CODE BEGIN INIT */
	return SD_disk_initialize(pdrv);
 80040d6:	f7ff f88d 	bl	80031f4 <SD_disk_initialize>
  /* USER CODE END INIT */
}
 80040da:	b2c0      	uxtb	r0, r0
 80040dc:	bd08      	pop	{r3, pc}

080040de <USER_status>:
  * @retval DSTATUS: Operation status
  */
DSTATUS USER_status (
	BYTE pdrv       /* Physical drive number to identify the drive */
)
{
 80040de:	b508      	push	{r3, lr}
  /* USER CODE BEGIN STATUS */
	return SD_disk_status(pdrv);
 80040e0:	f7ff f92c 	bl	800333c <SD_disk_status>

  /* USER CODE END STATUS */
}
 80040e4:	b2c0      	uxtb	r0, r0
 80040e6:	bd08      	pop	{r3, pc}

080040e8 <USER_read>:
	BYTE pdrv,      /* Physical drive nmuber to identify the drive */
	BYTE *buff,     /* Data buffer to store read data */
	DWORD sector,   /* Sector address in LBA */
	UINT count      /* Number of sectors to read */
)
{
 80040e8:	b508      	push	{r3, lr}
  /* USER CODE BEGIN READ */
	return SD_disk_read(pdrv, buff, sector, count);
 80040ea:	f7ff f931 	bl	8003350 <SD_disk_read>
  /* USER CODE END READ */
}
 80040ee:	b2c0      	uxtb	r0, r0
 80040f0:	bd08      	pop	{r3, pc}

080040f2 <USER_write>:
	BYTE pdrv,          /* Physical drive nmuber to identify the drive */
	const BYTE *buff,   /* Data to be written */
	DWORD sector,       /* Sector address in LBA */
	UINT count          /* Number of sectors to write */
)
{ 
 80040f2:	b508      	push	{r3, lr}
  /* USER CODE BEGIN WRITE */
  /* USER CODE HERE */
	return SD_disk_write(pdrv, buff, sector, count);
 80040f4:	f7ff f972 	bl	80033dc <SD_disk_write>
  /* USER CODE END WRITE */
}
 80040f8:	b2c0      	uxtb	r0, r0
 80040fa:	bd08      	pop	{r3, pc}

080040fc <USER_ioctl>:
DRESULT USER_ioctl (
	BYTE pdrv,      /* Physical drive nmuber (0..) */
	BYTE cmd,       /* Control code */
	void *buff      /* Buffer to send/receive control data */
)
{
 80040fc:	b508      	push	{r3, lr}
  /* USER CODE BEGIN IOCTL */
    DRESULT res = RES_ERROR;
    return SD_disk_ioctl(pdrv, cmd, buff);
 80040fe:	f7ff f9c5 	bl	800348c <SD_disk_ioctl>
  /* USER CODE END IOCTL */
}
 8004102:	b2c0      	uxtb	r0, r0
 8004104:	bd08      	pop	{r3, pc}
	...

08004108 <VS1003_SPI_ReadWriteByte>:
* Output         : None
* Return         : None
* Attention		 : None
*******************************************************************************/
static uint16_t VS1003_SPI_ReadWriteByte( uint16_t TxData )
{
 8004108:	b57f      	push	{r0, r1, r2, r3, r4, r5, r6, lr}
  /* Loop while DR register in not emplty */
  uint8_t RxData;
  HAL_SPI_TransmitReceive(&hspi2,(uint8_t*)&TxData,&RxData,1,10);
 800410a:	230a      	movs	r3, #10
{
 800410c:	f8ad 000e 	strh.w	r0, [sp, #14]
  HAL_SPI_TransmitReceive(&hspi2,(uint8_t*)&TxData,&RxData,1,10);
 8004110:	9300      	str	r3, [sp, #0]
 8004112:	f10d 0217 	add.w	r2, sp, #23
 8004116:	2301      	movs	r3, #1
 8004118:	f10d 010e 	add.w	r1, sp, #14
 800411c:	4803      	ldr	r0, [pc, #12]	; (800412c <VS1003_SPI_ReadWriteByte+0x24>)
 800411e:	f7fc ff95 	bl	800104c <HAL_SPI_TransmitReceive>
  return RxData;
}
 8004122:	f89d 0017 	ldrb.w	r0, [sp, #23]
 8004126:	b007      	add	sp, #28
 8004128:	f85d fb04 	ldr.w	pc, [sp], #4
 800412c:	20004480 	.word	0x20004480

08004130 <VS1003_SPI_SetSpeed>:
	  hspi2.Init.CLKPolarity = SPI_POLARITY_HIGH;
 8004130:	2102      	movs	r1, #2
{
 8004132:	b508      	push	{r3, lr}
	  hspi2.Instance = SPI2;
 8004134:	4b12      	ldr	r3, [pc, #72]	; (8004180 <VS1003_SPI_SetSpeed+0x50>)
	  hspi2.Init.Mode = SPI_MODE_MASTER;
 8004136:	f44f 7c82 	mov.w	ip, #260	; 0x104
	  hspi2.Init.CLKPolarity = SPI_POLARITY_HIGH;
 800413a:	6119      	str	r1, [r3, #16]
	  hspi2.Init.CLKPhase = SPI_PHASE_2EDGE;
 800413c:	2101      	movs	r1, #1
	  hspi2.Init.Mode = SPI_MODE_MASTER;
 800413e:	4a11      	ldr	r2, [pc, #68]	; (8004184 <VS1003_SPI_SetSpeed+0x54>)
	  hspi2.Init.CLKPhase = SPI_PHASE_2EDGE;
 8004140:	6159      	str	r1, [r3, #20]
	  hspi2.Init.Mode = SPI_MODE_MASTER;
 8004142:	e883 1004 	stmia.w	r3, {r2, ip}
	  hspi2.Init.NSS = SPI_NSS_SOFT;
 8004146:	f44f 7100 	mov.w	r1, #512	; 0x200
	  hspi2.Init.Direction = SPI_DIRECTION_2LINES;
 800414a:	2200      	movs	r2, #0
	  hspi2.Init.NSS = SPI_NSS_SOFT;
 800414c:	6199      	str	r1, [r3, #24]
	  hspi2.Init.Direction = SPI_DIRECTION_2LINES;
 800414e:	609a      	str	r2, [r3, #8]
	  hspi2.Init.DataSize = SPI_DATASIZE_8BIT;
 8004150:	60da      	str	r2, [r3, #12]
	  hspi2.Init.FirstBit = SPI_FIRSTBIT_MSB;
 8004152:	621a      	str	r2, [r3, #32]
	  hspi2.Init.TIMode = SPI_TIMODE_DISABLE;
 8004154:	625a      	str	r2, [r3, #36]	; 0x24
	  hspi2.Init.CRCCalculation = SPI_CRCCALCULATION_DISABLE;
 8004156:	629a      	str	r2, [r3, #40]	; 0x28
	  hspi2.Init.CRCPolynomial = 0;
 8004158:	62da      	str	r2, [r3, #44]	; 0x2c
  if( SpeedSet == SPI_SPEED_LOW )
 800415a:	b970      	cbnz	r0, 800417a <VS1003_SPI_SetSpeed+0x4a>
      hspi2.Init.BaudRatePrescaler =  SPI_BAUDRATEPRESCALER_128;
 800415c:	2230      	movs	r2, #48	; 0x30
  if (HAL_SPI_Init(&hspi2) != HAL_OK)
 800415e:	4808      	ldr	r0, [pc, #32]	; (8004180 <VS1003_SPI_SetSpeed+0x50>)
	  hspi2.Init.BaudRatePrescaler =  SPI_BAUDRATEPRESCALER_8;
 8004160:	61da      	str	r2, [r3, #28]
  if (HAL_SPI_Init(&hspi2) != HAL_OK)
 8004162:	f7fd f873 	bl	800124c <HAL_SPI_Init>
 8004166:	b150      	cbz	r0, 800417e <VS1003_SPI_SetSpeed+0x4e>
	  printf("bb\r\n");
 8004168:	4807      	ldr	r0, [pc, #28]	; (8004188 <VS1003_SPI_SetSpeed+0x58>)
 800416a:	f000 fa2f 	bl	80045cc <puts>
}
 800416e:	e8bd 4008 	ldmia.w	sp!, {r3, lr}
    Error_Handler(__FILE__,__LINE__);
 8004172:	2162      	movs	r1, #98	; 0x62
 8004174:	4805      	ldr	r0, [pc, #20]	; (800418c <VS1003_SPI_SetSpeed+0x5c>)
 8004176:	f7ff bdeb 	b.w	8003d50 <Error_Handler>
	  hspi2.Init.BaudRatePrescaler =  SPI_BAUDRATEPRESCALER_8;
 800417a:	2210      	movs	r2, #16
 800417c:	e7ef      	b.n	800415e <VS1003_SPI_SetSpeed+0x2e>
 800417e:	bd08      	pop	{r3, pc}
 8004180:	20004480 	.word	0x20004480
 8004184:	40003800 	.word	0x40003800
 8004188:	08005d80 	.word	0x08005d80
 800418c:	08005d84 	.word	0x08005d84

08004190 <VS1003_SPI_Init>:
	  __HAL_RCC_SPI2_CLK_ENABLE();
 8004190:	4b16      	ldr	r3, [pc, #88]	; (80041ec <VS1003_SPI_Init+0x5c>)
{
 8004192:	b507      	push	{r0, r1, r2, lr}
	  __HAL_RCC_SPI2_CLK_ENABLE();
 8004194:	69da      	ldr	r2, [r3, #28]
	  hspi2.Instance = SPI2;
 8004196:	4816      	ldr	r0, [pc, #88]	; (80041f0 <VS1003_SPI_Init+0x60>)
	  __HAL_RCC_SPI2_CLK_ENABLE();
 8004198:	f442 4280 	orr.w	r2, r2, #16384	; 0x4000
 800419c:	61da      	str	r2, [r3, #28]
	  hspi2.Init.CLKPolarity = SPI_POLARITY_HIGH;
 800419e:	2202      	movs	r2, #2
	  __HAL_RCC_SPI2_CLK_ENABLE();
 80041a0:	69db      	ldr	r3, [r3, #28]
	  hspi2.Init.CLKPolarity = SPI_POLARITY_HIGH;
 80041a2:	6102      	str	r2, [r0, #16]
	  hspi2.Init.CLKPhase = SPI_PHASE_2EDGE;
 80041a4:	2201      	movs	r2, #1
	  hspi2.Init.Mode = SPI_MODE_MASTER;
 80041a6:	f44f 7e82 	mov.w	lr, #260	; 0x104
	  hspi2.Init.CLKPhase = SPI_PHASE_2EDGE;
 80041aa:	6142      	str	r2, [r0, #20]
	  hspi2.Init.NSS = SPI_NSS_SOFT;
 80041ac:	f44f 7200 	mov.w	r2, #512	; 0x200
	  __HAL_RCC_SPI2_CLK_ENABLE();
 80041b0:	f403 4380 	and.w	r3, r3, #16384	; 0x4000
 80041b4:	9301      	str	r3, [sp, #4]
 80041b6:	9b01      	ldr	r3, [sp, #4]
	  hspi2.Init.Mode = SPI_MODE_MASTER;
 80041b8:	4b0e      	ldr	r3, [pc, #56]	; (80041f4 <VS1003_SPI_Init+0x64>)
	  hspi2.Init.NSS = SPI_NSS_SOFT;
 80041ba:	6182      	str	r2, [r0, #24]
	  hspi2.Init.Mode = SPI_MODE_MASTER;
 80041bc:	e880 4008 	stmia.w	r0, {r3, lr}
	  hspi2.Init.BaudRatePrescaler = SPI_BAUDRATEPRESCALER_8;
 80041c0:	2210      	movs	r2, #16
	  hspi2.Init.Direction = SPI_DIRECTION_2LINES;
 80041c2:	2300      	movs	r3, #0
	  hspi2.Init.BaudRatePrescaler = SPI_BAUDRATEPRESCALER_8;
 80041c4:	61c2      	str	r2, [r0, #28]
	  hspi2.Init.Direction = SPI_DIRECTION_2LINES;
 80041c6:	6083      	str	r3, [r0, #8]
	  hspi2.Init.DataSize = SPI_DATASIZE_8BIT;
 80041c8:	60c3      	str	r3, [r0, #12]
	  hspi2.Init.FirstBit = SPI_FIRSTBIT_MSB;
 80041ca:	6203      	str	r3, [r0, #32]
	  hspi2.Init.TIMode = SPI_TIMODE_DISABLE;
 80041cc:	6243      	str	r3, [r0, #36]	; 0x24
	  hspi2.Init.CRCCalculation = SPI_CRCCALCULATION_DISABLE;
 80041ce:	6283      	str	r3, [r0, #40]	; 0x28
	  hspi2.Init.CRCPolynomial = 0;
 80041d0:	62c3      	str	r3, [r0, #44]	; 0x2c
	  if (HAL_SPI_Init(&hspi2) != HAL_OK)
 80041d2:	f7fd f83b 	bl	800124c <HAL_SPI_Init>
 80041d6:	b130      	cbz	r0, 80041e6 <VS1003_SPI_Init+0x56>
		printf("aa\r\n");
 80041d8:	4807      	ldr	r0, [pc, #28]	; (80041f8 <VS1003_SPI_Init+0x68>)
 80041da:	f000 f9f7 	bl	80045cc <puts>
		Error_Handler(__FILE__,__LINE__);
 80041de:	213d      	movs	r1, #61	; 0x3d
 80041e0:	4806      	ldr	r0, [pc, #24]	; (80041fc <VS1003_SPI_Init+0x6c>)
 80041e2:	f7ff fdb5 	bl	8003d50 <Error_Handler>
}
 80041e6:	b003      	add	sp, #12
 80041e8:	f85d fb04 	ldr.w	pc, [sp], #4
 80041ec:	40021000 	.word	0x40021000
 80041f0:	20004480 	.word	0x20004480
 80041f4:	40003800 	.word	0x40003800
 80041f8:	08005d7c 	.word	0x08005d7c
 80041fc:	08005d84 	.word	0x08005d84

08004200 <VS1003_Init>:
* Output         : None
* Return         : None
* Attention		 : None
*******************************************************************************/	 
void VS1003_Init(void)
{		  
 8004200:	b510      	push	{r4, lr}
//	  GPIO_InitStruct.Pull = GPIO_NOPULL;
//	  GPIO_InitStruct.Speed = GPIO_SPEED_FREQ_VERY_HIGH;
//	  GPIO_InitStruct.Alternate = GPIO_AF5_SPI2;
//	  HAL_GPIO_Init(GPIOB, &GPIO_InitStruct);

	  MP3_RESET(0);
 8004202:	4c0e      	ldr	r4, [pc, #56]	; (800423c <VS1003_Init+0x3c>)
 8004204:	2200      	movs	r2, #0
 8004206:	2102      	movs	r1, #2
 8004208:	4620      	mov	r0, r4
 800420a:	f7fc f94d 	bl	80004a8 <HAL_GPIO_WritePin>
	  HAL_Delay(1);
 800420e:	2001      	movs	r0, #1
 8004210:	f7fb ffe4 	bl	80001dc <HAL_Delay>
	  MP3_RESET(1);
 8004214:	4620      	mov	r0, r4
 8004216:	2201      	movs	r2, #1
 8004218:	2102      	movs	r1, #2
 800421a:	f7fc f945 	bl	80004a8 <HAL_GPIO_WritePin>

	  MP3_DCS(1);
 800421e:	2201      	movs	r2, #1
 8004220:	4620      	mov	r0, r4
 8004222:	4611      	mov	r1, r2
 8004224:	f7fc f940 	bl	80004a8 <HAL_GPIO_WritePin>
	  MP3_CCS(1);
 8004228:	4620      	mov	r0, r4
 800422a:	2201      	movs	r2, #1
 800422c:	f44f 5180 	mov.w	r1, #4096	; 0x1000
 8004230:	f7fc f93a 	bl	80004a8 <HAL_GPIO_WritePin>

	  VS1003_SPI_Init();

}
 8004234:	e8bd 4010 	ldmia.w	sp!, {r4, lr}
	  VS1003_SPI_Init();
 8004238:	f7ff bfaa 	b.w	8004190 <VS1003_SPI_Init>
 800423c:	40010c00 	.word	0x40010c00

08004240 <VS1003_WriteReg>:
* Output         : None
* Return         : None
* Attention		 : None
*******************************************************************************/
void VS1003_WriteReg( uint8_t reg,uint16_t value )
{  
 8004240:	b538      	push	{r3, r4, r5, lr}
 8004242:	4605      	mov	r5, r0
 8004244:	460c      	mov	r4, r1
   while(MP3_DREQ ==0);           /*  */
 8004246:	2104      	movs	r1, #4
 8004248:	4814      	ldr	r0, [pc, #80]	; (800429c <VS1003_WriteReg+0x5c>)
 800424a:	f7fc f927 	bl	800049c <HAL_GPIO_ReadPin>
 800424e:	2800      	cmp	r0, #0
 8004250:	d0f9      	beq.n	8004246 <VS1003_WriteReg+0x6>
   
   VS1003_SPI_SetSpeed( SPI_SPEED_LOW );	 
 8004252:	2000      	movs	r0, #0
 8004254:	f7ff ff6c 	bl	8004130 <VS1003_SPI_SetSpeed>
   MP3_DCS(1); 
 8004258:	2201      	movs	r2, #1
 800425a:	4810      	ldr	r0, [pc, #64]	; (800429c <VS1003_WriteReg+0x5c>)
 800425c:	4611      	mov	r1, r2
 800425e:	f7fc f923 	bl	80004a8 <HAL_GPIO_WritePin>
   MP3_CCS(0); 
 8004262:	2200      	movs	r2, #0
 8004264:	f44f 5180 	mov.w	r1, #4096	; 0x1000
 8004268:	480c      	ldr	r0, [pc, #48]	; (800429c <VS1003_WriteReg+0x5c>)
 800426a:	f7fc f91d 	bl	80004a8 <HAL_GPIO_WritePin>
   VS1003_SPI_ReadWriteByte(VS1003_WRITE_COMMAND); /* VS1003 */
 800426e:	2002      	movs	r0, #2
 8004270:	f7ff ff4a 	bl	8004108 <VS1003_SPI_ReadWriteByte>
   VS1003_SPI_ReadWriteByte(reg);             
 8004274:	4628      	mov	r0, r5
 8004276:	f7ff ff47 	bl	8004108 <VS1003_SPI_ReadWriteByte>
   VS1003_SPI_ReadWriteByte(value>>8);        
 800427a:	0a20      	lsrs	r0, r4, #8
 800427c:	f7ff ff44 	bl	8004108 <VS1003_SPI_ReadWriteByte>
   VS1003_SPI_ReadWriteByte(value);	          
 8004280:	4620      	mov	r0, r4
 8004282:	f7ff ff41 	bl	8004108 <VS1003_SPI_ReadWriteByte>
   MP3_CCS(1);         
 8004286:	4805      	ldr	r0, [pc, #20]	; (800429c <VS1003_WriteReg+0x5c>)
 8004288:	2201      	movs	r2, #1
 800428a:	f44f 5180 	mov.w	r1, #4096	; 0x1000
 800428e:	f7fc f90b 	bl	80004a8 <HAL_GPIO_WritePin>
   VS1003_SPI_SetSpeed( SPI_SPEED_HIGH );
} 
 8004292:	e8bd 4038 	ldmia.w	sp!, {r3, r4, r5, lr}
   VS1003_SPI_SetSpeed( SPI_SPEED_HIGH );
 8004296:	2001      	movs	r0, #1
 8004298:	f7ff bf4a 	b.w	8004130 <VS1003_SPI_SetSpeed>
 800429c:	40010c00 	.word	0x40010c00

080042a0 <VS1003_ReadReg>:
* Output         : None
* Return         : - value: 
* Attention		 : None
*******************************************************************************/
uint16_t VS1003_ReadReg( uint8_t reg)
{ 
 80042a0:	b510      	push	{r4, lr}
 80042a2:	4604      	mov	r4, r0
   uint16_t value;
    
   while(  MP3_DREQ ==0 );           /*  */
 80042a4:	2104      	movs	r1, #4
 80042a6:	4817      	ldr	r0, [pc, #92]	; (8004304 <VS1003_ReadReg+0x64>)
 80042a8:	f7fc f8f8 	bl	800049c <HAL_GPIO_ReadPin>
 80042ac:	2800      	cmp	r0, #0
 80042ae:	d0f9      	beq.n	80042a4 <VS1003_ReadReg+0x4>
   VS1003_SPI_SetSpeed( SPI_SPEED_LOW );
 80042b0:	2000      	movs	r0, #0
 80042b2:	f7ff ff3d 	bl	8004130 <VS1003_SPI_SetSpeed>
   MP3_DCS(1);     
 80042b6:	2201      	movs	r2, #1
 80042b8:	4812      	ldr	r0, [pc, #72]	; (8004304 <VS1003_ReadReg+0x64>)
 80042ba:	4611      	mov	r1, r2
 80042bc:	f7fc f8f4 	bl	80004a8 <HAL_GPIO_WritePin>
   MP3_CCS(0);     
 80042c0:	2200      	movs	r2, #0
 80042c2:	f44f 5180 	mov.w	r1, #4096	; 0x1000
 80042c6:	480f      	ldr	r0, [pc, #60]	; (8004304 <VS1003_ReadReg+0x64>)
 80042c8:	f7fc f8ee 	bl	80004a8 <HAL_GPIO_WritePin>
   VS1003_SPI_ReadWriteByte(VS1003_READ_COMMAND);/* VS1003 */
 80042cc:	2003      	movs	r0, #3
 80042ce:	f7ff ff1b 	bl	8004108 <VS1003_SPI_ReadWriteByte>
   VS1003_SPI_ReadWriteByte( reg );   
 80042d2:	4620      	mov	r0, r4
 80042d4:	f7ff ff18 	bl	8004108 <VS1003_SPI_ReadWriteByte>
   value = VS1003_SPI_ReadWriteByte(0xff);		
 80042d8:	20ff      	movs	r0, #255	; 0xff
 80042da:	f7ff ff15 	bl	8004108 <VS1003_SPI_ReadWriteByte>
   value = value << 8;
 80042de:	0200      	lsls	r0, r0, #8
 80042e0:	b284      	uxth	r4, r0
   value |= VS1003_SPI_ReadWriteByte(0xff); 
 80042e2:	20ff      	movs	r0, #255	; 0xff
 80042e4:	f7ff ff10 	bl	8004108 <VS1003_SPI_ReadWriteByte>
   MP3_CCS(1);   
 80042e8:	2201      	movs	r2, #1
 80042ea:	f44f 5180 	mov.w	r1, #4096	; 0x1000
   value |= VS1003_SPI_ReadWriteByte(0xff); 
 80042ee:	4304      	orrs	r4, r0
   MP3_CCS(1);   
 80042f0:	4804      	ldr	r0, [pc, #16]	; (8004304 <VS1003_ReadReg+0x64>)
 80042f2:	f7fc f8d9 	bl	80004a8 <HAL_GPIO_WritePin>
   value |= VS1003_SPI_ReadWriteByte(0xff); 
 80042f6:	b2a4      	uxth	r4, r4
   VS1003_SPI_SetSpeed( SPI_SPEED_HIGH );
 80042f8:	2001      	movs	r0, #1
 80042fa:	f7ff ff19 	bl	8004130 <VS1003_SPI_SetSpeed>
   return value; 
} 
 80042fe:	4620      	mov	r0, r4
 8004300:	bd10      	pop	{r4, pc}
 8004302:	bf00      	nop
 8004304:	40010c00 	.word	0x40010c00

08004308 <VS1003_ResetDecodeTime>:
* Output         : None
* Return         : None
* Attention		 : None
*******************************************************************************/                       
void VS1003_ResetDecodeTime(void)
{
 8004308:	b508      	push	{r3, lr}
   VS1003_WriteReg(SPI_DECODE_TIME,0x0000);
 800430a:	2100      	movs	r1, #0
 800430c:	2004      	movs	r0, #4
 800430e:	f7ff ff97 	bl	8004240 <VS1003_WriteReg>
   VS1003_WriteReg(SPI_DECODE_TIME,0x0000); /*  */
}
 8004312:	e8bd 4008 	ldmia.w	sp!, {r3, lr}
   VS1003_WriteReg(SPI_DECODE_TIME,0x0000); /*  */
 8004316:	2100      	movs	r1, #0
 8004318:	2004      	movs	r0, #4
 800431a:	f7ff bf91 	b.w	8004240 <VS1003_WriteReg>
	...

08004320 <VS1003_SoftReset>:
* Output         : None
* Return         : None
* Attention		 : None
*******************************************************************************/
void VS1003_SoftReset(void)
{
 8004320:	b538      	push	{r3, r4, r5, lr}
   uint8_t retry; 	
   			   
   while(  MP3_DREQ ==0 );
 8004322:	4c33      	ldr	r4, [pc, #204]	; (80043f0 <VS1003_SoftReset+0xd0>)
 8004324:	2104      	movs	r1, #4
 8004326:	4620      	mov	r0, r4
 8004328:	f7fc f8b8 	bl	800049c <HAL_GPIO_ReadPin>
 800432c:	2800      	cmp	r0, #0
 800432e:	d0f9      	beq.n	8004324 <VS1003_SoftReset+0x4>
   VS1003_SPI_ReadWriteByte(0xff);
 8004330:	20ff      	movs	r0, #255	; 0xff
 8004332:	f7ff fee9 	bl	8004108 <VS1003_SPI_ReadWriteByte>
   retry = 0;
   while( VS1003_ReadReg(SPI_MODE) != 0x0804 )
 8004336:	2466      	movs	r4, #102	; 0x66
 8004338:	f640 0504 	movw	r5, #2052	; 0x804
 800433c:	2000      	movs	r0, #0
 800433e:	f7ff ffaf 	bl	80042a0 <VS1003_ReadReg>
 8004342:	42a8      	cmp	r0, r5
 8004344:	d00b      	beq.n	800435e <VS1003_SoftReset+0x3e>
   {

	   VS1003_WriteReg(SPI_MODE,0x0804);
 8004346:	f640 0104 	movw	r1, #2052	; 0x804
 800434a:	2000      	movs	r0, #0
 800434c:	f7ff ff78 	bl	8004240 <VS1003_WriteReg>
 8004350:	3c01      	subs	r4, #1
	   HAL_Delay(2);
 8004352:	2002      	movs	r0, #2
 8004354:	f7fb ff42 	bl	80001dc <HAL_Delay>
	   if( retry++ > 100 )
 8004358:	f014 04ff 	ands.w	r4, r4, #255	; 0xff
 800435c:	d1ee      	bne.n	800433c <VS1003_SoftReset+0x1c>
	   { 
	      break;
	   }
   }	 	

   while(  MP3_DREQ ==0 );
 800435e:	4c24      	ldr	r4, [pc, #144]	; (80043f0 <VS1003_SoftReset+0xd0>)
 8004360:	2104      	movs	r1, #4
 8004362:	4620      	mov	r0, r4
 8004364:	f7fc f89a 	bl	800049c <HAL_GPIO_ReadPin>
 8004368:	2800      	cmp	r0, #0
 800436a:	d0f9      	beq.n	8004360 <VS1003_SoftReset+0x40>
 800436c:	2466      	movs	r4, #102	; 0x66

   retry = 0;

   while( VS1003_ReadReg(SPI_CLOCKF) != 0x9800 )
 800436e:	2003      	movs	r0, #3
 8004370:	f7ff ff96 	bl	80042a0 <VS1003_ReadReg>
 8004374:	f5b0 4f18 	cmp.w	r0, #38912	; 0x9800
 8004378:	d008      	beq.n	800438c <VS1003_SoftReset+0x6c>
   {
	   VS1003_WriteReg(SPI_CLOCKF,0x9800);
 800437a:	f44f 4118 	mov.w	r1, #38912	; 0x9800
 800437e:	2003      	movs	r0, #3
 8004380:	3c01      	subs	r4, #1
 8004382:	f7ff ff5d 	bl	8004240 <VS1003_WriteReg>
	   if( retry++ > 100 )
 8004386:	f014 04ff 	ands.w	r4, r4, #255	; 0xff
 800438a:	d1f0      	bne.n	800436e <VS1003_SoftReset+0x4e>
 800438c:	2466      	movs	r4, #102	; 0x66
	      break; 
	   }
   }		   
   retry = 0;

   while( VS1003_ReadReg(SPI_AUDATA) != 0xBB81 )
 800438e:	f64b 3581 	movw	r5, #48001	; 0xbb81
 8004392:	2005      	movs	r0, #5
 8004394:	f7ff ff84 	bl	80042a0 <VS1003_ReadReg>
 8004398:	42a8      	cmp	r0, r5
 800439a:	d008      	beq.n	80043ae <VS1003_SoftReset+0x8e>
   {
	   VS1003_WriteReg(SPI_AUDATA,0xBB81);
 800439c:	f64b 3181 	movw	r1, #48001	; 0xbb81
 80043a0:	2005      	movs	r0, #5
 80043a2:	3c01      	subs	r4, #1
 80043a4:	f7ff ff4c 	bl	8004240 <VS1003_WriteReg>
	   if( retry++ > 100 )
 80043a8:	f014 04ff 	ands.w	r4, r4, #255	; 0xff
 80043ac:	d1f1      	bne.n	8004392 <VS1003_SoftReset+0x72>
	   { 
	      break; 
	   }   
   }

   VS1003_WriteReg(SPI_VOL,0x0000);	 /*  */
 80043ae:	2100      	movs	r1, #0
 80043b0:	200b      	movs	r0, #11
 80043b2:	f7ff ff45 	bl	8004240 <VS1003_WriteReg>
   VS1003_ResetDecodeTime();     /*  */	     
 80043b6:	f7ff ffa7 	bl	8004308 <VS1003_ResetDecodeTime>
   /* vs10034SPI */	
   MP3_DCS(0);  /*  */
 80043ba:	2200      	movs	r2, #0
 80043bc:	2101      	movs	r1, #1
 80043be:	480c      	ldr	r0, [pc, #48]	; (80043f0 <VS1003_SoftReset+0xd0>)
 80043c0:	f7fc f872 	bl	80004a8 <HAL_GPIO_WritePin>
   VS1003_SPI_ReadWriteByte(0xFF);
 80043c4:	20ff      	movs	r0, #255	; 0xff
 80043c6:	f7ff fe9f 	bl	8004108 <VS1003_SPI_ReadWriteByte>
   VS1003_SPI_ReadWriteByte(0xFF);
 80043ca:	20ff      	movs	r0, #255	; 0xff
 80043cc:	f7ff fe9c 	bl	8004108 <VS1003_SPI_ReadWriteByte>
   VS1003_SPI_ReadWriteByte(0xFF);
 80043d0:	20ff      	movs	r0, #255	; 0xff
 80043d2:	f7ff fe99 	bl	8004108 <VS1003_SPI_ReadWriteByte>
   VS1003_SPI_ReadWriteByte(0xFF);
 80043d6:	20ff      	movs	r0, #255	; 0xff
 80043d8:	f7ff fe96 	bl	8004108 <VS1003_SPI_ReadWriteByte>
   MP3_DCS(1);  /*  */
 80043dc:	2201      	movs	r2, #1
 80043de:	4804      	ldr	r0, [pc, #16]	; (80043f0 <VS1003_SoftReset+0xd0>)
 80043e0:	4611      	mov	r1, r2
 80043e2:	f7fc f861 	bl	80004a8 <HAL_GPIO_WritePin>
   HAL_Delay(20);
} 
 80043e6:	e8bd 4038 	ldmia.w	sp!, {r3, r4, r5, lr}
   HAL_Delay(20);
 80043ea:	2014      	movs	r0, #20
 80043ec:	f7fb bef6 	b.w	80001dc <HAL_Delay>
 80043f0:	40010c00 	.word	0x40010c00

080043f4 <VS1003_WriteData>:
* Output         : None
* Return         : None
* Attention		 : None
*******************************************************************************/  
void VS1003_WriteData( uint8_t * buf)
{		
 80043f4:	b538      	push	{r3, r4, r5, lr}
   uint8_t  count = 32;

   MP3_DCS(0);   
 80043f6:	2200      	movs	r2, #0
{		
 80043f8:	4604      	mov	r4, r0
   MP3_DCS(0);   
 80043fa:	2101      	movs	r1, #1
 80043fc:	480c      	ldr	r0, [pc, #48]	; (8004430 <VS1003_WriteData+0x3c>)
 80043fe:	f7fc f853 	bl	80004a8 <HAL_GPIO_WritePin>
 8004402:	f104 0520 	add.w	r5, r4, #32
   while( count-- )
 8004406:	42ac      	cmp	r4, r5
 8004408:	d10c      	bne.n	8004424 <VS1003_WriteData+0x30>
   {
	  VS1003_SPI_ReadWriteByte( *buf++ );
   }
   MP3_DCS(1);  
 800440a:	2201      	movs	r2, #1
 800440c:	4808      	ldr	r0, [pc, #32]	; (8004430 <VS1003_WriteData+0x3c>)
 800440e:	4611      	mov	r1, r2
 8004410:	f7fc f84a 	bl	80004a8 <HAL_GPIO_WritePin>
   MP3_CCS(1);  
} 
 8004414:	e8bd 4038 	ldmia.w	sp!, {r3, r4, r5, lr}
   MP3_CCS(1);  
 8004418:	2201      	movs	r2, #1
 800441a:	f44f 5180 	mov.w	r1, #4096	; 0x1000
 800441e:	4804      	ldr	r0, [pc, #16]	; (8004430 <VS1003_WriteData+0x3c>)
 8004420:	f7fc b842 	b.w	80004a8 <HAL_GPIO_WritePin>
	  VS1003_SPI_ReadWriteByte( *buf++ );
 8004424:	f814 0b01 	ldrb.w	r0, [r4], #1
 8004428:	f7ff fe6e 	bl	8004108 <VS1003_SPI_ReadWriteByte>
 800442c:	e7eb      	b.n	8004406 <VS1003_WriteData+0x12>
 800442e:	bf00      	nop
 8004430:	40010c00 	.word	0x40010c00

08004434 <Reset_Handler>:
  .weak Reset_Handler
  .type Reset_Handler, %function
Reset_Handler:

/* Copy the data segment initializers from flash to SRAM */
  movs r1, #0
 8004434:	2100      	movs	r1, #0
  b LoopCopyDataInit
 8004436:	e003      	b.n	8004440 <LoopCopyDataInit>

08004438 <CopyDataInit>:

CopyDataInit:
  ldr r3, =_sidata
 8004438:	4b0b      	ldr	r3, [pc, #44]	; (8004468 <LoopFillZerobss+0x14>)
  ldr r3, [r3, r1]
 800443a:	585b      	ldr	r3, [r3, r1]
  str r3, [r0, r1]
 800443c:	5043      	str	r3, [r0, r1]
  adds r1, r1, #4
 800443e:	3104      	adds	r1, #4

08004440 <LoopCopyDataInit>:

LoopCopyDataInit:
  ldr r0, =_sdata
 8004440:	480a      	ldr	r0, [pc, #40]	; (800446c <LoopFillZerobss+0x18>)
  ldr r3, =_edata
 8004442:	4b0b      	ldr	r3, [pc, #44]	; (8004470 <LoopFillZerobss+0x1c>)
  adds r2, r0, r1
 8004444:	1842      	adds	r2, r0, r1
  cmp r2, r3
 8004446:	429a      	cmp	r2, r3
  bcc CopyDataInit
 8004448:	d3f6      	bcc.n	8004438 <CopyDataInit>
  ldr r2, =_sbss
 800444a:	4a0a      	ldr	r2, [pc, #40]	; (8004474 <LoopFillZerobss+0x20>)
  b LoopFillZerobss
 800444c:	e002      	b.n	8004454 <LoopFillZerobss>

0800444e <FillZerobss>:
/* Zero fill the bss segment. */
FillZerobss:
  movs r3, #0
 800444e:	2300      	movs	r3, #0
  str r3, [r2], #4
 8004450:	f842 3b04 	str.w	r3, [r2], #4

08004454 <LoopFillZerobss>:

LoopFillZerobss:
  ldr r3, = _ebss
 8004454:	4b08      	ldr	r3, [pc, #32]	; (8004478 <LoopFillZerobss+0x24>)
  cmp r2, r3
 8004456:	429a      	cmp	r2, r3
  bcc FillZerobss
 8004458:	d3f9      	bcc.n	800444e <FillZerobss>

/* Call the clock system intitialization function.*/
    bl  SystemInit
 800445a:	f7ff fdbf 	bl	8003fdc <SystemInit>
/* Call static constructors */
    bl __libc_init_array
 800445e:	f000 f815 	bl	800448c <__libc_init_array>
/* Call the application's entry point.*/
  bl main
 8004462:	f7ff fabb 	bl	80039dc <main>
  bx lr
 8004466:	4770      	bx	lr
  ldr r3, =_sidata
 8004468:	08005e34 	.word	0x08005e34
  ldr r0, =_sdata
 800446c:	20000000 	.word	0x20000000
  ldr r3, =_edata
 8004470:	20000088 	.word	0x20000088
  ldr r2, =_sbss
 8004474:	20000088 	.word	0x20000088
  ldr r3, = _ebss
 8004478:	20004578 	.word	0x20004578

0800447c <ADC1_2_IRQHandler>:
 * @retval : None
*/
    .section .text.Default_Handler,"ax",%progbits
Default_Handler:
Infinite_Loop:
  b Infinite_Loop
 800447c:	e7fe      	b.n	800447c <ADC1_2_IRQHandler>
	...

08004480 <__errno>:
 8004480:	4b01      	ldr	r3, [pc, #4]	; (8004488 <__errno+0x8>)
 8004482:	6818      	ldr	r0, [r3, #0]
 8004484:	4770      	bx	lr
 8004486:	bf00      	nop
 8004488:	20000024 	.word	0x20000024

0800448c <__libc_init_array>:
 800448c:	b570      	push	{r4, r5, r6, lr}
 800448e:	2500      	movs	r5, #0
 8004490:	4e0c      	ldr	r6, [pc, #48]	; (80044c4 <__libc_init_array+0x38>)
 8004492:	4c0d      	ldr	r4, [pc, #52]	; (80044c8 <__libc_init_array+0x3c>)
 8004494:	1ba4      	subs	r4, r4, r6
 8004496:	10a4      	asrs	r4, r4, #2
 8004498:	42a5      	cmp	r5, r4
 800449a:	d109      	bne.n	80044b0 <__libc_init_array+0x24>
 800449c:	f001 f95c 	bl	8005758 <_init>
 80044a0:	2500      	movs	r5, #0
 80044a2:	4e0a      	ldr	r6, [pc, #40]	; (80044cc <__libc_init_array+0x40>)
 80044a4:	4c0a      	ldr	r4, [pc, #40]	; (80044d0 <__libc_init_array+0x44>)
 80044a6:	1ba4      	subs	r4, r4, r6
 80044a8:	10a4      	asrs	r4, r4, #2
 80044aa:	42a5      	cmp	r5, r4
 80044ac:	d105      	bne.n	80044ba <__libc_init_array+0x2e>
 80044ae:	bd70      	pop	{r4, r5, r6, pc}
 80044b0:	f856 3025 	ldr.w	r3, [r6, r5, lsl #2]
 80044b4:	4798      	blx	r3
 80044b6:	3501      	adds	r5, #1
 80044b8:	e7ee      	b.n	8004498 <__libc_init_array+0xc>
 80044ba:	f856 3025 	ldr.w	r3, [r6, r5, lsl #2]
 80044be:	4798      	blx	r3
 80044c0:	3501      	adds	r5, #1
 80044c2:	e7f2      	b.n	80044aa <__libc_init_array+0x1e>
 80044c4:	08005e2c 	.word	0x08005e2c
 80044c8:	08005e2c 	.word	0x08005e2c
 80044cc:	08005e2c 	.word	0x08005e2c
 80044d0:	08005e30 	.word	0x08005e30

080044d4 <memset>:
 80044d4:	4603      	mov	r3, r0
 80044d6:	4402      	add	r2, r0
 80044d8:	4293      	cmp	r3, r2
 80044da:	d100      	bne.n	80044de <memset+0xa>
 80044dc:	4770      	bx	lr
 80044de:	f803 1b01 	strb.w	r1, [r3], #1
 80044e2:	e7f9      	b.n	80044d8 <memset+0x4>

080044e4 <iprintf>:
 80044e4:	b40f      	push	{r0, r1, r2, r3}
 80044e6:	4b0a      	ldr	r3, [pc, #40]	; (8004510 <iprintf+0x2c>)
 80044e8:	b513      	push	{r0, r1, r4, lr}
 80044ea:	681c      	ldr	r4, [r3, #0]
 80044ec:	b124      	cbz	r4, 80044f8 <iprintf+0x14>
 80044ee:	69a3      	ldr	r3, [r4, #24]
 80044f0:	b913      	cbnz	r3, 80044f8 <iprintf+0x14>
 80044f2:	4620      	mov	r0, r4
 80044f4:	f000 fa50 	bl	8004998 <__sinit>
 80044f8:	ab05      	add	r3, sp, #20
 80044fa:	9a04      	ldr	r2, [sp, #16]
 80044fc:	68a1      	ldr	r1, [r4, #8]
 80044fe:	4620      	mov	r0, r4
 8004500:	9301      	str	r3, [sp, #4]
 8004502:	f000 fd59 	bl	8004fb8 <_vfiprintf_r>
 8004506:	b002      	add	sp, #8
 8004508:	e8bd 4010 	ldmia.w	sp!, {r4, lr}
 800450c:	b004      	add	sp, #16
 800450e:	4770      	bx	lr
 8004510:	20000024 	.word	0x20000024

08004514 <_puts_r>:
 8004514:	b570      	push	{r4, r5, r6, lr}
 8004516:	460e      	mov	r6, r1
 8004518:	4605      	mov	r5, r0
 800451a:	b118      	cbz	r0, 8004524 <_puts_r+0x10>
 800451c:	6983      	ldr	r3, [r0, #24]
 800451e:	b90b      	cbnz	r3, 8004524 <_puts_r+0x10>
 8004520:	f000 fa3a 	bl	8004998 <__sinit>
 8004524:	69ab      	ldr	r3, [r5, #24]
 8004526:	68ac      	ldr	r4, [r5, #8]
 8004528:	b913      	cbnz	r3, 8004530 <_puts_r+0x1c>
 800452a:	4628      	mov	r0, r5
 800452c:	f000 fa34 	bl	8004998 <__sinit>
 8004530:	4b23      	ldr	r3, [pc, #140]	; (80045c0 <_puts_r+0xac>)
 8004532:	429c      	cmp	r4, r3
 8004534:	d117      	bne.n	8004566 <_puts_r+0x52>
 8004536:	686c      	ldr	r4, [r5, #4]
 8004538:	89a3      	ldrh	r3, [r4, #12]
 800453a:	071b      	lsls	r3, r3, #28
 800453c:	d51d      	bpl.n	800457a <_puts_r+0x66>
 800453e:	6923      	ldr	r3, [r4, #16]
 8004540:	b1db      	cbz	r3, 800457a <_puts_r+0x66>
 8004542:	3e01      	subs	r6, #1
 8004544:	68a3      	ldr	r3, [r4, #8]
 8004546:	f816 1f01 	ldrb.w	r1, [r6, #1]!
 800454a:	3b01      	subs	r3, #1
 800454c:	60a3      	str	r3, [r4, #8]
 800454e:	b9e9      	cbnz	r1, 800458c <_puts_r+0x78>
 8004550:	2b00      	cmp	r3, #0
 8004552:	da2e      	bge.n	80045b2 <_puts_r+0x9e>
 8004554:	4622      	mov	r2, r4
 8004556:	210a      	movs	r1, #10
 8004558:	4628      	mov	r0, r5
 800455a:	f000 f86b 	bl	8004634 <__swbuf_r>
 800455e:	3001      	adds	r0, #1
 8004560:	d011      	beq.n	8004586 <_puts_r+0x72>
 8004562:	200a      	movs	r0, #10
 8004564:	bd70      	pop	{r4, r5, r6, pc}
 8004566:	4b17      	ldr	r3, [pc, #92]	; (80045c4 <_puts_r+0xb0>)
 8004568:	429c      	cmp	r4, r3
 800456a:	d101      	bne.n	8004570 <_puts_r+0x5c>
 800456c:	68ac      	ldr	r4, [r5, #8]
 800456e:	e7e3      	b.n	8004538 <_puts_r+0x24>
 8004570:	4b15      	ldr	r3, [pc, #84]	; (80045c8 <_puts_r+0xb4>)
 8004572:	429c      	cmp	r4, r3
 8004574:	bf08      	it	eq
 8004576:	68ec      	ldreq	r4, [r5, #12]
 8004578:	e7de      	b.n	8004538 <_puts_r+0x24>
 800457a:	4621      	mov	r1, r4
 800457c:	4628      	mov	r0, r5
 800457e:	f000 f8ab 	bl	80046d8 <__swsetup_r>
 8004582:	2800      	cmp	r0, #0
 8004584:	d0dd      	beq.n	8004542 <_puts_r+0x2e>
 8004586:	f04f 30ff 	mov.w	r0, #4294967295
 800458a:	bd70      	pop	{r4, r5, r6, pc}
 800458c:	2b00      	cmp	r3, #0
 800458e:	da04      	bge.n	800459a <_puts_r+0x86>
 8004590:	69a2      	ldr	r2, [r4, #24]
 8004592:	4293      	cmp	r3, r2
 8004594:	db06      	blt.n	80045a4 <_puts_r+0x90>
 8004596:	290a      	cmp	r1, #10
 8004598:	d004      	beq.n	80045a4 <_puts_r+0x90>
 800459a:	6823      	ldr	r3, [r4, #0]
 800459c:	1c5a      	adds	r2, r3, #1
 800459e:	6022      	str	r2, [r4, #0]
 80045a0:	7019      	strb	r1, [r3, #0]
 80045a2:	e7cf      	b.n	8004544 <_puts_r+0x30>
 80045a4:	4622      	mov	r2, r4
 80045a6:	4628      	mov	r0, r5
 80045a8:	f000 f844 	bl	8004634 <__swbuf_r>
 80045ac:	3001      	adds	r0, #1
 80045ae:	d1c9      	bne.n	8004544 <_puts_r+0x30>
 80045b0:	e7e9      	b.n	8004586 <_puts_r+0x72>
 80045b2:	200a      	movs	r0, #10
 80045b4:	6823      	ldr	r3, [r4, #0]
 80045b6:	1c5a      	adds	r2, r3, #1
 80045b8:	6022      	str	r2, [r4, #0]
 80045ba:	7018      	strb	r0, [r3, #0]
 80045bc:	bd70      	pop	{r4, r5, r6, pc}
 80045be:	bf00      	nop
 80045c0:	08005db8 	.word	0x08005db8
 80045c4:	08005dd8 	.word	0x08005dd8
 80045c8:	08005d98 	.word	0x08005d98

080045cc <puts>:
 80045cc:	4b02      	ldr	r3, [pc, #8]	; (80045d8 <puts+0xc>)
 80045ce:	4601      	mov	r1, r0
 80045d0:	6818      	ldr	r0, [r3, #0]
 80045d2:	f7ff bf9f 	b.w	8004514 <_puts_r>
 80045d6:	bf00      	nop
 80045d8:	20000024 	.word	0x20000024

080045dc <siprintf>:
 80045dc:	b40e      	push	{r1, r2, r3}
 80045de:	f44f 7102 	mov.w	r1, #520	; 0x208
 80045e2:	b500      	push	{lr}
 80045e4:	b09c      	sub	sp, #112	; 0x70
 80045e6:	f8ad 1014 	strh.w	r1, [sp, #20]
 80045ea:	f06f 4100 	mvn.w	r1, #2147483648	; 0x80000000
 80045ee:	9104      	str	r1, [sp, #16]
 80045f0:	9107      	str	r1, [sp, #28]
 80045f2:	f64f 71ff 	movw	r1, #65535	; 0xffff
 80045f6:	ab1d      	add	r3, sp, #116	; 0x74
 80045f8:	9002      	str	r0, [sp, #8]
 80045fa:	9006      	str	r0, [sp, #24]
 80045fc:	4808      	ldr	r0, [pc, #32]	; (8004620 <siprintf+0x44>)
 80045fe:	f853 2b04 	ldr.w	r2, [r3], #4
 8004602:	f8ad 1016 	strh.w	r1, [sp, #22]
 8004606:	6800      	ldr	r0, [r0, #0]
 8004608:	a902      	add	r1, sp, #8
 800460a:	9301      	str	r3, [sp, #4]
 800460c:	f000 fbb8 	bl	8004d80 <_svfiprintf_r>
 8004610:	2200      	movs	r2, #0
 8004612:	9b02      	ldr	r3, [sp, #8]
 8004614:	701a      	strb	r2, [r3, #0]
 8004616:	b01c      	add	sp, #112	; 0x70
 8004618:	f85d eb04 	ldr.w	lr, [sp], #4
 800461c:	b003      	add	sp, #12
 800461e:	4770      	bx	lr
 8004620:	20000024 	.word	0x20000024

08004624 <strcpy>:
 8004624:	4603      	mov	r3, r0
 8004626:	f811 2b01 	ldrb.w	r2, [r1], #1
 800462a:	f803 2b01 	strb.w	r2, [r3], #1
 800462e:	2a00      	cmp	r2, #0
 8004630:	d1f9      	bne.n	8004626 <strcpy+0x2>
 8004632:	4770      	bx	lr

08004634 <__swbuf_r>:
 8004634:	b5f8      	push	{r3, r4, r5, r6, r7, lr}
 8004636:	460e      	mov	r6, r1
 8004638:	4614      	mov	r4, r2
 800463a:	4605      	mov	r5, r0
 800463c:	b118      	cbz	r0, 8004646 <__swbuf_r+0x12>
 800463e:	6983      	ldr	r3, [r0, #24]
 8004640:	b90b      	cbnz	r3, 8004646 <__swbuf_r+0x12>
 8004642:	f000 f9a9 	bl	8004998 <__sinit>
 8004646:	4b21      	ldr	r3, [pc, #132]	; (80046cc <__swbuf_r+0x98>)
 8004648:	429c      	cmp	r4, r3
 800464a:	d12a      	bne.n	80046a2 <__swbuf_r+0x6e>
 800464c:	686c      	ldr	r4, [r5, #4]
 800464e:	69a3      	ldr	r3, [r4, #24]
 8004650:	60a3      	str	r3, [r4, #8]
 8004652:	89a3      	ldrh	r3, [r4, #12]
 8004654:	071a      	lsls	r2, r3, #28
 8004656:	d52e      	bpl.n	80046b6 <__swbuf_r+0x82>
 8004658:	6923      	ldr	r3, [r4, #16]
 800465a:	b363      	cbz	r3, 80046b6 <__swbuf_r+0x82>
 800465c:	6923      	ldr	r3, [r4, #16]
 800465e:	6820      	ldr	r0, [r4, #0]
 8004660:	b2f6      	uxtb	r6, r6
 8004662:	1ac0      	subs	r0, r0, r3
 8004664:	6963      	ldr	r3, [r4, #20]
 8004666:	4637      	mov	r7, r6
 8004668:	4298      	cmp	r0, r3
 800466a:	db04      	blt.n	8004676 <__swbuf_r+0x42>
 800466c:	4621      	mov	r1, r4
 800466e:	4628      	mov	r0, r5
 8004670:	f000 f928 	bl	80048c4 <_fflush_r>
 8004674:	bb28      	cbnz	r0, 80046c2 <__swbuf_r+0x8e>
 8004676:	68a3      	ldr	r3, [r4, #8]
 8004678:	3001      	adds	r0, #1
 800467a:	3b01      	subs	r3, #1
 800467c:	60a3      	str	r3, [r4, #8]
 800467e:	6823      	ldr	r3, [r4, #0]
 8004680:	1c5a      	adds	r2, r3, #1
 8004682:	6022      	str	r2, [r4, #0]
 8004684:	701e      	strb	r6, [r3, #0]
 8004686:	6963      	ldr	r3, [r4, #20]
 8004688:	4298      	cmp	r0, r3
 800468a:	d004      	beq.n	8004696 <__swbuf_r+0x62>
 800468c:	89a3      	ldrh	r3, [r4, #12]
 800468e:	07db      	lsls	r3, r3, #31
 8004690:	d519      	bpl.n	80046c6 <__swbuf_r+0x92>
 8004692:	2e0a      	cmp	r6, #10
 8004694:	d117      	bne.n	80046c6 <__swbuf_r+0x92>
 8004696:	4621      	mov	r1, r4
 8004698:	4628      	mov	r0, r5
 800469a:	f000 f913 	bl	80048c4 <_fflush_r>
 800469e:	b190      	cbz	r0, 80046c6 <__swbuf_r+0x92>
 80046a0:	e00f      	b.n	80046c2 <__swbuf_r+0x8e>
 80046a2:	4b0b      	ldr	r3, [pc, #44]	; (80046d0 <__swbuf_r+0x9c>)
 80046a4:	429c      	cmp	r4, r3
 80046a6:	d101      	bne.n	80046ac <__swbuf_r+0x78>
 80046a8:	68ac      	ldr	r4, [r5, #8]
 80046aa:	e7d0      	b.n	800464e <__swbuf_r+0x1a>
 80046ac:	4b09      	ldr	r3, [pc, #36]	; (80046d4 <__swbuf_r+0xa0>)
 80046ae:	429c      	cmp	r4, r3
 80046b0:	bf08      	it	eq
 80046b2:	68ec      	ldreq	r4, [r5, #12]
 80046b4:	e7cb      	b.n	800464e <__swbuf_r+0x1a>
 80046b6:	4621      	mov	r1, r4
 80046b8:	4628      	mov	r0, r5
 80046ba:	f000 f80d 	bl	80046d8 <__swsetup_r>
 80046be:	2800      	cmp	r0, #0
 80046c0:	d0cc      	beq.n	800465c <__swbuf_r+0x28>
 80046c2:	f04f 37ff 	mov.w	r7, #4294967295
 80046c6:	4638      	mov	r0, r7
 80046c8:	bdf8      	pop	{r3, r4, r5, r6, r7, pc}
 80046ca:	bf00      	nop
 80046cc:	08005db8 	.word	0x08005db8
 80046d0:	08005dd8 	.word	0x08005dd8
 80046d4:	08005d98 	.word	0x08005d98

080046d8 <__swsetup_r>:
 80046d8:	4b32      	ldr	r3, [pc, #200]	; (80047a4 <__swsetup_r+0xcc>)
 80046da:	b570      	push	{r4, r5, r6, lr}
 80046dc:	681d      	ldr	r5, [r3, #0]
 80046de:	4606      	mov	r6, r0
 80046e0:	460c      	mov	r4, r1
 80046e2:	b125      	cbz	r5, 80046ee <__swsetup_r+0x16>
 80046e4:	69ab      	ldr	r3, [r5, #24]
 80046e6:	b913      	cbnz	r3, 80046ee <__swsetup_r+0x16>
 80046e8:	4628      	mov	r0, r5
 80046ea:	f000 f955 	bl	8004998 <__sinit>
 80046ee:	4b2e      	ldr	r3, [pc, #184]	; (80047a8 <__swsetup_r+0xd0>)
 80046f0:	429c      	cmp	r4, r3
 80046f2:	d10f      	bne.n	8004714 <__swsetup_r+0x3c>
 80046f4:	686c      	ldr	r4, [r5, #4]
 80046f6:	f9b4 300c 	ldrsh.w	r3, [r4, #12]
 80046fa:	b29a      	uxth	r2, r3
 80046fc:	0715      	lsls	r5, r2, #28
 80046fe:	d42c      	bmi.n	800475a <__swsetup_r+0x82>
 8004700:	06d0      	lsls	r0, r2, #27
 8004702:	d411      	bmi.n	8004728 <__swsetup_r+0x50>
 8004704:	2209      	movs	r2, #9
 8004706:	6032      	str	r2, [r6, #0]
 8004708:	f043 0340 	orr.w	r3, r3, #64	; 0x40
 800470c:	81a3      	strh	r3, [r4, #12]
 800470e:	f04f 30ff 	mov.w	r0, #4294967295
 8004712:	bd70      	pop	{r4, r5, r6, pc}
 8004714:	4b25      	ldr	r3, [pc, #148]	; (80047ac <__swsetup_r+0xd4>)
 8004716:	429c      	cmp	r4, r3
 8004718:	d101      	bne.n	800471e <__swsetup_r+0x46>
 800471a:	68ac      	ldr	r4, [r5, #8]
 800471c:	e7eb      	b.n	80046f6 <__swsetup_r+0x1e>
 800471e:	4b24      	ldr	r3, [pc, #144]	; (80047b0 <__swsetup_r+0xd8>)
 8004720:	429c      	cmp	r4, r3
 8004722:	bf08      	it	eq
 8004724:	68ec      	ldreq	r4, [r5, #12]
 8004726:	e7e6      	b.n	80046f6 <__swsetup_r+0x1e>
 8004728:	0751      	lsls	r1, r2, #29
 800472a:	d512      	bpl.n	8004752 <__swsetup_r+0x7a>
 800472c:	6b61      	ldr	r1, [r4, #52]	; 0x34
 800472e:	b141      	cbz	r1, 8004742 <__swsetup_r+0x6a>
 8004730:	f104 0344 	add.w	r3, r4, #68	; 0x44
 8004734:	4299      	cmp	r1, r3
 8004736:	d002      	beq.n	800473e <__swsetup_r+0x66>
 8004738:	4630      	mov	r0, r6
 800473a:	f000 fa1b 	bl	8004b74 <_free_r>
 800473e:	2300      	movs	r3, #0
 8004740:	6363      	str	r3, [r4, #52]	; 0x34
 8004742:	89a3      	ldrh	r3, [r4, #12]
 8004744:	f023 0324 	bic.w	r3, r3, #36	; 0x24
 8004748:	81a3      	strh	r3, [r4, #12]
 800474a:	2300      	movs	r3, #0
 800474c:	6063      	str	r3, [r4, #4]
 800474e:	6923      	ldr	r3, [r4, #16]
 8004750:	6023      	str	r3, [r4, #0]
 8004752:	89a3      	ldrh	r3, [r4, #12]
 8004754:	f043 0308 	orr.w	r3, r3, #8
 8004758:	81a3      	strh	r3, [r4, #12]
 800475a:	6923      	ldr	r3, [r4, #16]
 800475c:	b94b      	cbnz	r3, 8004772 <__swsetup_r+0x9a>
 800475e:	89a3      	ldrh	r3, [r4, #12]
 8004760:	f403 7320 	and.w	r3, r3, #640	; 0x280
 8004764:	f5b3 7f00 	cmp.w	r3, #512	; 0x200
 8004768:	d003      	beq.n	8004772 <__swsetup_r+0x9a>
 800476a:	4621      	mov	r1, r4
 800476c:	4630      	mov	r0, r6
 800476e:	f000 f9c1 	bl	8004af4 <__smakebuf_r>
 8004772:	89a2      	ldrh	r2, [r4, #12]
 8004774:	f012 0301 	ands.w	r3, r2, #1
 8004778:	d00c      	beq.n	8004794 <__swsetup_r+0xbc>
 800477a:	2300      	movs	r3, #0
 800477c:	60a3      	str	r3, [r4, #8]
 800477e:	6963      	ldr	r3, [r4, #20]
 8004780:	425b      	negs	r3, r3
 8004782:	61a3      	str	r3, [r4, #24]
 8004784:	6923      	ldr	r3, [r4, #16]
 8004786:	b953      	cbnz	r3, 800479e <__swsetup_r+0xc6>
 8004788:	f9b4 300c 	ldrsh.w	r3, [r4, #12]
 800478c:	f013 0080 	ands.w	r0, r3, #128	; 0x80
 8004790:	d1ba      	bne.n	8004708 <__swsetup_r+0x30>
 8004792:	bd70      	pop	{r4, r5, r6, pc}
 8004794:	0792      	lsls	r2, r2, #30
 8004796:	bf58      	it	pl
 8004798:	6963      	ldrpl	r3, [r4, #20]
 800479a:	60a3      	str	r3, [r4, #8]
 800479c:	e7f2      	b.n	8004784 <__swsetup_r+0xac>
 800479e:	2000      	movs	r0, #0
 80047a0:	e7f7      	b.n	8004792 <__swsetup_r+0xba>
 80047a2:	bf00      	nop
 80047a4:	20000024 	.word	0x20000024
 80047a8:	08005db8 	.word	0x08005db8
 80047ac:	08005dd8 	.word	0x08005dd8
 80047b0:	08005d98 	.word	0x08005d98

080047b4 <__sflush_r>:
 80047b4:	898a      	ldrh	r2, [r1, #12]
 80047b6:	e92d 41f0 	stmdb	sp!, {r4, r5, r6, r7, r8, lr}
 80047ba:	4605      	mov	r5, r0
 80047bc:	0710      	lsls	r0, r2, #28
 80047be:	460c      	mov	r4, r1
 80047c0:	d45a      	bmi.n	8004878 <__sflush_r+0xc4>
 80047c2:	684b      	ldr	r3, [r1, #4]
 80047c4:	2b00      	cmp	r3, #0
 80047c6:	dc05      	bgt.n	80047d4 <__sflush_r+0x20>
 80047c8:	6c0b      	ldr	r3, [r1, #64]	; 0x40
 80047ca:	2b00      	cmp	r3, #0
 80047cc:	dc02      	bgt.n	80047d4 <__sflush_r+0x20>
 80047ce:	2000      	movs	r0, #0
 80047d0:	e8bd 81f0 	ldmia.w	sp!, {r4, r5, r6, r7, r8, pc}
 80047d4:	6ae6      	ldr	r6, [r4, #44]	; 0x2c
 80047d6:	2e00      	cmp	r6, #0
 80047d8:	d0f9      	beq.n	80047ce <__sflush_r+0x1a>
 80047da:	2300      	movs	r3, #0
 80047dc:	f412 5280 	ands.w	r2, r2, #4096	; 0x1000
 80047e0:	682f      	ldr	r7, [r5, #0]
 80047e2:	602b      	str	r3, [r5, #0]
 80047e4:	d033      	beq.n	800484e <__sflush_r+0x9a>
 80047e6:	6d60      	ldr	r0, [r4, #84]	; 0x54
 80047e8:	89a3      	ldrh	r3, [r4, #12]
 80047ea:	075a      	lsls	r2, r3, #29
 80047ec:	d505      	bpl.n	80047fa <__sflush_r+0x46>
 80047ee:	6863      	ldr	r3, [r4, #4]
 80047f0:	1ac0      	subs	r0, r0, r3
 80047f2:	6b63      	ldr	r3, [r4, #52]	; 0x34
 80047f4:	b10b      	cbz	r3, 80047fa <__sflush_r+0x46>
 80047f6:	6c23      	ldr	r3, [r4, #64]	; 0x40
 80047f8:	1ac0      	subs	r0, r0, r3
 80047fa:	2300      	movs	r3, #0
 80047fc:	4602      	mov	r2, r0
 80047fe:	6ae6      	ldr	r6, [r4, #44]	; 0x2c
 8004800:	6a21      	ldr	r1, [r4, #32]
 8004802:	4628      	mov	r0, r5
 8004804:	47b0      	blx	r6
 8004806:	1c43      	adds	r3, r0, #1
 8004808:	89a3      	ldrh	r3, [r4, #12]
 800480a:	d106      	bne.n	800481a <__sflush_r+0x66>
 800480c:	6829      	ldr	r1, [r5, #0]
 800480e:	291d      	cmp	r1, #29
 8004810:	d84b      	bhi.n	80048aa <__sflush_r+0xf6>
 8004812:	4a2b      	ldr	r2, [pc, #172]	; (80048c0 <__sflush_r+0x10c>)
 8004814:	40ca      	lsrs	r2, r1
 8004816:	07d6      	lsls	r6, r2, #31
 8004818:	d547      	bpl.n	80048aa <__sflush_r+0xf6>
 800481a:	2200      	movs	r2, #0
 800481c:	6062      	str	r2, [r4, #4]
 800481e:	6922      	ldr	r2, [r4, #16]
 8004820:	04d9      	lsls	r1, r3, #19
 8004822:	6022      	str	r2, [r4, #0]
 8004824:	d504      	bpl.n	8004830 <__sflush_r+0x7c>
 8004826:	1c42      	adds	r2, r0, #1
 8004828:	d101      	bne.n	800482e <__sflush_r+0x7a>
 800482a:	682b      	ldr	r3, [r5, #0]
 800482c:	b903      	cbnz	r3, 8004830 <__sflush_r+0x7c>
 800482e:	6560      	str	r0, [r4, #84]	; 0x54
 8004830:	6b61      	ldr	r1, [r4, #52]	; 0x34
 8004832:	602f      	str	r7, [r5, #0]
 8004834:	2900      	cmp	r1, #0
 8004836:	d0ca      	beq.n	80047ce <__sflush_r+0x1a>
 8004838:	f104 0344 	add.w	r3, r4, #68	; 0x44
 800483c:	4299      	cmp	r1, r3
 800483e:	d002      	beq.n	8004846 <__sflush_r+0x92>
 8004840:	4628      	mov	r0, r5
 8004842:	f000 f997 	bl	8004b74 <_free_r>
 8004846:	2000      	movs	r0, #0
 8004848:	6360      	str	r0, [r4, #52]	; 0x34
 800484a:	e8bd 81f0 	ldmia.w	sp!, {r4, r5, r6, r7, r8, pc}
 800484e:	6a21      	ldr	r1, [r4, #32]
 8004850:	2301      	movs	r3, #1
 8004852:	4628      	mov	r0, r5
 8004854:	47b0      	blx	r6
 8004856:	1c41      	adds	r1, r0, #1
 8004858:	d1c6      	bne.n	80047e8 <__sflush_r+0x34>
 800485a:	682b      	ldr	r3, [r5, #0]
 800485c:	2b00      	cmp	r3, #0
 800485e:	d0c3      	beq.n	80047e8 <__sflush_r+0x34>
 8004860:	2b1d      	cmp	r3, #29
 8004862:	d001      	beq.n	8004868 <__sflush_r+0xb4>
 8004864:	2b16      	cmp	r3, #22
 8004866:	d101      	bne.n	800486c <__sflush_r+0xb8>
 8004868:	602f      	str	r7, [r5, #0]
 800486a:	e7b0      	b.n	80047ce <__sflush_r+0x1a>
 800486c:	89a3      	ldrh	r3, [r4, #12]
 800486e:	f043 0340 	orr.w	r3, r3, #64	; 0x40
 8004872:	81a3      	strh	r3, [r4, #12]
 8004874:	e8bd 81f0 	ldmia.w	sp!, {r4, r5, r6, r7, r8, pc}
 8004878:	690f      	ldr	r7, [r1, #16]
 800487a:	2f00      	cmp	r7, #0
 800487c:	d0a7      	beq.n	80047ce <__sflush_r+0x1a>
 800487e:	0793      	lsls	r3, r2, #30
 8004880:	bf18      	it	ne
 8004882:	2300      	movne	r3, #0
 8004884:	680e      	ldr	r6, [r1, #0]
 8004886:	bf08      	it	eq
 8004888:	694b      	ldreq	r3, [r1, #20]
 800488a:	eba6 0807 	sub.w	r8, r6, r7
 800488e:	600f      	str	r7, [r1, #0]
 8004890:	608b      	str	r3, [r1, #8]
 8004892:	f1b8 0f00 	cmp.w	r8, #0
 8004896:	dd9a      	ble.n	80047ce <__sflush_r+0x1a>
 8004898:	4643      	mov	r3, r8
 800489a:	463a      	mov	r2, r7
 800489c:	6a21      	ldr	r1, [r4, #32]
 800489e:	4628      	mov	r0, r5
 80048a0:	6aa6      	ldr	r6, [r4, #40]	; 0x28
 80048a2:	47b0      	blx	r6
 80048a4:	2800      	cmp	r0, #0
 80048a6:	dc07      	bgt.n	80048b8 <__sflush_r+0x104>
 80048a8:	89a3      	ldrh	r3, [r4, #12]
 80048aa:	f043 0340 	orr.w	r3, r3, #64	; 0x40
 80048ae:	81a3      	strh	r3, [r4, #12]
 80048b0:	f04f 30ff 	mov.w	r0, #4294967295
 80048b4:	e8bd 81f0 	ldmia.w	sp!, {r4, r5, r6, r7, r8, pc}
 80048b8:	4407      	add	r7, r0
 80048ba:	eba8 0800 	sub.w	r8, r8, r0
 80048be:	e7e8      	b.n	8004892 <__sflush_r+0xde>
 80048c0:	20400001 	.word	0x20400001

080048c4 <_fflush_r>:
 80048c4:	b538      	push	{r3, r4, r5, lr}
 80048c6:	690b      	ldr	r3, [r1, #16]
 80048c8:	4605      	mov	r5, r0
 80048ca:	460c      	mov	r4, r1
 80048cc:	b1db      	cbz	r3, 8004906 <_fflush_r+0x42>
 80048ce:	b118      	cbz	r0, 80048d8 <_fflush_r+0x14>
 80048d0:	6983      	ldr	r3, [r0, #24]
 80048d2:	b90b      	cbnz	r3, 80048d8 <_fflush_r+0x14>
 80048d4:	f000 f860 	bl	8004998 <__sinit>
 80048d8:	4b0c      	ldr	r3, [pc, #48]	; (800490c <_fflush_r+0x48>)
 80048da:	429c      	cmp	r4, r3
 80048dc:	d109      	bne.n	80048f2 <_fflush_r+0x2e>
 80048de:	686c      	ldr	r4, [r5, #4]
 80048e0:	f9b4 300c 	ldrsh.w	r3, [r4, #12]
 80048e4:	b17b      	cbz	r3, 8004906 <_fflush_r+0x42>
 80048e6:	4621      	mov	r1, r4
 80048e8:	4628      	mov	r0, r5
 80048ea:	e8bd 4038 	ldmia.w	sp!, {r3, r4, r5, lr}
 80048ee:	f7ff bf61 	b.w	80047b4 <__sflush_r>
 80048f2:	4b07      	ldr	r3, [pc, #28]	; (8004910 <_fflush_r+0x4c>)
 80048f4:	429c      	cmp	r4, r3
 80048f6:	d101      	bne.n	80048fc <_fflush_r+0x38>
 80048f8:	68ac      	ldr	r4, [r5, #8]
 80048fa:	e7f1      	b.n	80048e0 <_fflush_r+0x1c>
 80048fc:	4b05      	ldr	r3, [pc, #20]	; (8004914 <_fflush_r+0x50>)
 80048fe:	429c      	cmp	r4, r3
 8004900:	bf08      	it	eq
 8004902:	68ec      	ldreq	r4, [r5, #12]
 8004904:	e7ec      	b.n	80048e0 <_fflush_r+0x1c>
 8004906:	2000      	movs	r0, #0
 8004908:	bd38      	pop	{r3, r4, r5, pc}
 800490a:	bf00      	nop
 800490c:	08005db8 	.word	0x08005db8
 8004910:	08005dd8 	.word	0x08005dd8
 8004914:	08005d98 	.word	0x08005d98

08004918 <_cleanup_r>:
 8004918:	4901      	ldr	r1, [pc, #4]	; (8004920 <_cleanup_r+0x8>)
 800491a:	f000 b8a9 	b.w	8004a70 <_fwalk_reent>
 800491e:	bf00      	nop
 8004920:	080048c5 	.word	0x080048c5

08004924 <std.isra.0>:
 8004924:	2300      	movs	r3, #0
 8004926:	b510      	push	{r4, lr}
 8004928:	4604      	mov	r4, r0
 800492a:	6003      	str	r3, [r0, #0]
 800492c:	6043      	str	r3, [r0, #4]
 800492e:	6083      	str	r3, [r0, #8]
 8004930:	8181      	strh	r1, [r0, #12]
 8004932:	6643      	str	r3, [r0, #100]	; 0x64
 8004934:	81c2      	strh	r2, [r0, #14]
 8004936:	6103      	str	r3, [r0, #16]
 8004938:	6143      	str	r3, [r0, #20]
 800493a:	6183      	str	r3, [r0, #24]
 800493c:	4619      	mov	r1, r3
 800493e:	2208      	movs	r2, #8
 8004940:	305c      	adds	r0, #92	; 0x5c
 8004942:	f7ff fdc7 	bl	80044d4 <memset>
 8004946:	4b05      	ldr	r3, [pc, #20]	; (800495c <std.isra.0+0x38>)
 8004948:	6224      	str	r4, [r4, #32]
 800494a:	6263      	str	r3, [r4, #36]	; 0x24
 800494c:	4b04      	ldr	r3, [pc, #16]	; (8004960 <std.isra.0+0x3c>)
 800494e:	62a3      	str	r3, [r4, #40]	; 0x28
 8004950:	4b04      	ldr	r3, [pc, #16]	; (8004964 <std.isra.0+0x40>)
 8004952:	62e3      	str	r3, [r4, #44]	; 0x2c
 8004954:	4b04      	ldr	r3, [pc, #16]	; (8004968 <std.isra.0+0x44>)
 8004956:	6323      	str	r3, [r4, #48]	; 0x30
 8004958:	bd10      	pop	{r4, pc}
 800495a:	bf00      	nop
 800495c:	08005535 	.word	0x08005535
 8004960:	08005557 	.word	0x08005557
 8004964:	0800558f 	.word	0x0800558f
 8004968:	080055b3 	.word	0x080055b3

0800496c <__sfmoreglue>:
 800496c:	b570      	push	{r4, r5, r6, lr}
 800496e:	2568      	movs	r5, #104	; 0x68
 8004970:	1e4a      	subs	r2, r1, #1
 8004972:	4355      	muls	r5, r2
 8004974:	460e      	mov	r6, r1
 8004976:	f105 0174 	add.w	r1, r5, #116	; 0x74
 800497a:	f000 f947 	bl	8004c0c <_malloc_r>
 800497e:	4604      	mov	r4, r0
 8004980:	b140      	cbz	r0, 8004994 <__sfmoreglue+0x28>
 8004982:	2100      	movs	r1, #0
 8004984:	e880 0042 	stmia.w	r0, {r1, r6}
 8004988:	300c      	adds	r0, #12
 800498a:	60a0      	str	r0, [r4, #8]
 800498c:	f105 0268 	add.w	r2, r5, #104	; 0x68
 8004990:	f7ff fda0 	bl	80044d4 <memset>
 8004994:	4620      	mov	r0, r4
 8004996:	bd70      	pop	{r4, r5, r6, pc}

08004998 <__sinit>:
 8004998:	6983      	ldr	r3, [r0, #24]
 800499a:	b510      	push	{r4, lr}
 800499c:	4604      	mov	r4, r0
 800499e:	bb33      	cbnz	r3, 80049ee <__sinit+0x56>
 80049a0:	6483      	str	r3, [r0, #72]	; 0x48
 80049a2:	64c3      	str	r3, [r0, #76]	; 0x4c
 80049a4:	6503      	str	r3, [r0, #80]	; 0x50
 80049a6:	4b12      	ldr	r3, [pc, #72]	; (80049f0 <__sinit+0x58>)
 80049a8:	4a12      	ldr	r2, [pc, #72]	; (80049f4 <__sinit+0x5c>)
 80049aa:	681b      	ldr	r3, [r3, #0]
 80049ac:	6282      	str	r2, [r0, #40]	; 0x28
 80049ae:	4298      	cmp	r0, r3
 80049b0:	bf04      	itt	eq
 80049b2:	2301      	moveq	r3, #1
 80049b4:	6183      	streq	r3, [r0, #24]
 80049b6:	f000 f81f 	bl	80049f8 <__sfp>
 80049ba:	6060      	str	r0, [r4, #4]
 80049bc:	4620      	mov	r0, r4
 80049be:	f000 f81b 	bl	80049f8 <__sfp>
 80049c2:	60a0      	str	r0, [r4, #8]
 80049c4:	4620      	mov	r0, r4
 80049c6:	f000 f817 	bl	80049f8 <__sfp>
 80049ca:	2200      	movs	r2, #0
 80049cc:	60e0      	str	r0, [r4, #12]
 80049ce:	2104      	movs	r1, #4
 80049d0:	6860      	ldr	r0, [r4, #4]
 80049d2:	f7ff ffa7 	bl	8004924 <std.isra.0>
 80049d6:	2201      	movs	r2, #1
 80049d8:	2109      	movs	r1, #9
 80049da:	68a0      	ldr	r0, [r4, #8]
 80049dc:	f7ff ffa2 	bl	8004924 <std.isra.0>
 80049e0:	2202      	movs	r2, #2
 80049e2:	2112      	movs	r1, #18
 80049e4:	68e0      	ldr	r0, [r4, #12]
 80049e6:	f7ff ff9d 	bl	8004924 <std.isra.0>
 80049ea:	2301      	movs	r3, #1
 80049ec:	61a3      	str	r3, [r4, #24]
 80049ee:	bd10      	pop	{r4, pc}
 80049f0:	08005d94 	.word	0x08005d94
 80049f4:	08004919 	.word	0x08004919

080049f8 <__sfp>:
 80049f8:	b5f8      	push	{r3, r4, r5, r6, r7, lr}
 80049fa:	4b1c      	ldr	r3, [pc, #112]	; (8004a6c <__sfp+0x74>)
 80049fc:	4607      	mov	r7, r0
 80049fe:	681e      	ldr	r6, [r3, #0]
 8004a00:	69b3      	ldr	r3, [r6, #24]
 8004a02:	b913      	cbnz	r3, 8004a0a <__sfp+0x12>
 8004a04:	4630      	mov	r0, r6
 8004a06:	f7ff ffc7 	bl	8004998 <__sinit>
 8004a0a:	3648      	adds	r6, #72	; 0x48
 8004a0c:	68b4      	ldr	r4, [r6, #8]
 8004a0e:	6873      	ldr	r3, [r6, #4]
 8004a10:	3b01      	subs	r3, #1
 8004a12:	d503      	bpl.n	8004a1c <__sfp+0x24>
 8004a14:	6833      	ldr	r3, [r6, #0]
 8004a16:	b133      	cbz	r3, 8004a26 <__sfp+0x2e>
 8004a18:	6836      	ldr	r6, [r6, #0]
 8004a1a:	e7f7      	b.n	8004a0c <__sfp+0x14>
 8004a1c:	f9b4 500c 	ldrsh.w	r5, [r4, #12]
 8004a20:	b16d      	cbz	r5, 8004a3e <__sfp+0x46>
 8004a22:	3468      	adds	r4, #104	; 0x68
 8004a24:	e7f4      	b.n	8004a10 <__sfp+0x18>
 8004a26:	2104      	movs	r1, #4
 8004a28:	4638      	mov	r0, r7
 8004a2a:	f7ff ff9f 	bl	800496c <__sfmoreglue>
 8004a2e:	6030      	str	r0, [r6, #0]
 8004a30:	2800      	cmp	r0, #0
 8004a32:	d1f1      	bne.n	8004a18 <__sfp+0x20>
 8004a34:	230c      	movs	r3, #12
 8004a36:	4604      	mov	r4, r0
 8004a38:	603b      	str	r3, [r7, #0]
 8004a3a:	4620      	mov	r0, r4
 8004a3c:	bdf8      	pop	{r3, r4, r5, r6, r7, pc}
 8004a3e:	f64f 73ff 	movw	r3, #65535	; 0xffff
 8004a42:	81e3      	strh	r3, [r4, #14]
 8004a44:	2301      	movs	r3, #1
 8004a46:	6665      	str	r5, [r4, #100]	; 0x64
 8004a48:	81a3      	strh	r3, [r4, #12]
 8004a4a:	6025      	str	r5, [r4, #0]
 8004a4c:	60a5      	str	r5, [r4, #8]
 8004a4e:	6065      	str	r5, [r4, #4]
 8004a50:	6125      	str	r5, [r4, #16]
 8004a52:	6165      	str	r5, [r4, #20]
 8004a54:	61a5      	str	r5, [r4, #24]
 8004a56:	2208      	movs	r2, #8
 8004a58:	4629      	mov	r1, r5
 8004a5a:	f104 005c 	add.w	r0, r4, #92	; 0x5c
 8004a5e:	f7ff fd39 	bl	80044d4 <memset>
 8004a62:	6365      	str	r5, [r4, #52]	; 0x34
 8004a64:	63a5      	str	r5, [r4, #56]	; 0x38
 8004a66:	64a5      	str	r5, [r4, #72]	; 0x48
 8004a68:	64e5      	str	r5, [r4, #76]	; 0x4c
 8004a6a:	e7e6      	b.n	8004a3a <__sfp+0x42>
 8004a6c:	08005d94 	.word	0x08005d94

08004a70 <_fwalk_reent>:
 8004a70:	e92d 43f8 	stmdb	sp!, {r3, r4, r5, r6, r7, r8, r9, lr}
 8004a74:	4680      	mov	r8, r0
 8004a76:	4689      	mov	r9, r1
 8004a78:	2600      	movs	r6, #0
 8004a7a:	f100 0448 	add.w	r4, r0, #72	; 0x48
 8004a7e:	b914      	cbnz	r4, 8004a86 <_fwalk_reent+0x16>
 8004a80:	4630      	mov	r0, r6
 8004a82:	e8bd 83f8 	ldmia.w	sp!, {r3, r4, r5, r6, r7, r8, r9, pc}
 8004a86:	68a5      	ldr	r5, [r4, #8]
 8004a88:	6867      	ldr	r7, [r4, #4]
 8004a8a:	3f01      	subs	r7, #1
 8004a8c:	d501      	bpl.n	8004a92 <_fwalk_reent+0x22>
 8004a8e:	6824      	ldr	r4, [r4, #0]
 8004a90:	e7f5      	b.n	8004a7e <_fwalk_reent+0xe>
 8004a92:	89ab      	ldrh	r3, [r5, #12]
 8004a94:	2b01      	cmp	r3, #1
 8004a96:	d907      	bls.n	8004aa8 <_fwalk_reent+0x38>
 8004a98:	f9b5 300e 	ldrsh.w	r3, [r5, #14]
 8004a9c:	3301      	adds	r3, #1
 8004a9e:	d003      	beq.n	8004aa8 <_fwalk_reent+0x38>
 8004aa0:	4629      	mov	r1, r5
 8004aa2:	4640      	mov	r0, r8
 8004aa4:	47c8      	blx	r9
 8004aa6:	4306      	orrs	r6, r0
 8004aa8:	3568      	adds	r5, #104	; 0x68
 8004aaa:	e7ee      	b.n	8004a8a <_fwalk_reent+0x1a>

08004aac <__swhatbuf_r>:
 8004aac:	b570      	push	{r4, r5, r6, lr}
 8004aae:	460e      	mov	r6, r1
 8004ab0:	f9b1 100e 	ldrsh.w	r1, [r1, #14]
 8004ab4:	b090      	sub	sp, #64	; 0x40
 8004ab6:	2900      	cmp	r1, #0
 8004ab8:	4614      	mov	r4, r2
 8004aba:	461d      	mov	r5, r3
 8004abc:	da07      	bge.n	8004ace <__swhatbuf_r+0x22>
 8004abe:	2300      	movs	r3, #0
 8004ac0:	602b      	str	r3, [r5, #0]
 8004ac2:	89b3      	ldrh	r3, [r6, #12]
 8004ac4:	061a      	lsls	r2, r3, #24
 8004ac6:	d410      	bmi.n	8004aea <__swhatbuf_r+0x3e>
 8004ac8:	f44f 6380 	mov.w	r3, #1024	; 0x400
 8004acc:	e00e      	b.n	8004aec <__swhatbuf_r+0x40>
 8004ace:	aa01      	add	r2, sp, #4
 8004ad0:	f000 fd96 	bl	8005600 <_fstat_r>
 8004ad4:	2800      	cmp	r0, #0
 8004ad6:	dbf2      	blt.n	8004abe <__swhatbuf_r+0x12>
 8004ad8:	9a02      	ldr	r2, [sp, #8]
 8004ada:	f402 4270 	and.w	r2, r2, #61440	; 0xf000
 8004ade:	f5a2 5300 	sub.w	r3, r2, #8192	; 0x2000
 8004ae2:	425a      	negs	r2, r3
 8004ae4:	415a      	adcs	r2, r3
 8004ae6:	602a      	str	r2, [r5, #0]
 8004ae8:	e7ee      	b.n	8004ac8 <__swhatbuf_r+0x1c>
 8004aea:	2340      	movs	r3, #64	; 0x40
 8004aec:	2000      	movs	r0, #0
 8004aee:	6023      	str	r3, [r4, #0]
 8004af0:	b010      	add	sp, #64	; 0x40
 8004af2:	bd70      	pop	{r4, r5, r6, pc}

08004af4 <__smakebuf_r>:
 8004af4:	898b      	ldrh	r3, [r1, #12]
 8004af6:	b573      	push	{r0, r1, r4, r5, r6, lr}
 8004af8:	079d      	lsls	r5, r3, #30
 8004afa:	4606      	mov	r6, r0
 8004afc:	460c      	mov	r4, r1
 8004afe:	d507      	bpl.n	8004b10 <__smakebuf_r+0x1c>
 8004b00:	f104 0347 	add.w	r3, r4, #71	; 0x47
 8004b04:	6023      	str	r3, [r4, #0]
 8004b06:	6123      	str	r3, [r4, #16]
 8004b08:	2301      	movs	r3, #1
 8004b0a:	6163      	str	r3, [r4, #20]
 8004b0c:	b002      	add	sp, #8
 8004b0e:	bd70      	pop	{r4, r5, r6, pc}
 8004b10:	ab01      	add	r3, sp, #4
 8004b12:	466a      	mov	r2, sp
 8004b14:	f7ff ffca 	bl	8004aac <__swhatbuf_r>
 8004b18:	9900      	ldr	r1, [sp, #0]
 8004b1a:	4605      	mov	r5, r0
 8004b1c:	4630      	mov	r0, r6
 8004b1e:	f000 f875 	bl	8004c0c <_malloc_r>
 8004b22:	b948      	cbnz	r0, 8004b38 <__smakebuf_r+0x44>
 8004b24:	f9b4 300c 	ldrsh.w	r3, [r4, #12]
 8004b28:	059a      	lsls	r2, r3, #22
 8004b2a:	d4ef      	bmi.n	8004b0c <__smakebuf_r+0x18>
 8004b2c:	f023 0303 	bic.w	r3, r3, #3
 8004b30:	f043 0302 	orr.w	r3, r3, #2
 8004b34:	81a3      	strh	r3, [r4, #12]
 8004b36:	e7e3      	b.n	8004b00 <__smakebuf_r+0xc>
 8004b38:	4b0d      	ldr	r3, [pc, #52]	; (8004b70 <__smakebuf_r+0x7c>)
 8004b3a:	62b3      	str	r3, [r6, #40]	; 0x28
 8004b3c:	89a3      	ldrh	r3, [r4, #12]
 8004b3e:	6020      	str	r0, [r4, #0]
 8004b40:	f043 0380 	orr.w	r3, r3, #128	; 0x80
 8004b44:	81a3      	strh	r3, [r4, #12]
 8004b46:	9b00      	ldr	r3, [sp, #0]
 8004b48:	6120      	str	r0, [r4, #16]
 8004b4a:	6163      	str	r3, [r4, #20]
 8004b4c:	9b01      	ldr	r3, [sp, #4]
 8004b4e:	b15b      	cbz	r3, 8004b68 <__smakebuf_r+0x74>
 8004b50:	f9b4 100e 	ldrsh.w	r1, [r4, #14]
 8004b54:	4630      	mov	r0, r6
 8004b56:	f000 fd65 	bl	8005624 <_isatty_r>
 8004b5a:	b128      	cbz	r0, 8004b68 <__smakebuf_r+0x74>
 8004b5c:	89a3      	ldrh	r3, [r4, #12]
 8004b5e:	f023 0303 	bic.w	r3, r3, #3
 8004b62:	f043 0301 	orr.w	r3, r3, #1
 8004b66:	81a3      	strh	r3, [r4, #12]
 8004b68:	89a3      	ldrh	r3, [r4, #12]
 8004b6a:	431d      	orrs	r5, r3
 8004b6c:	81a5      	strh	r5, [r4, #12]
 8004b6e:	e7cd      	b.n	8004b0c <__smakebuf_r+0x18>
 8004b70:	08004919 	.word	0x08004919

08004b74 <_free_r>:
 8004b74:	b538      	push	{r3, r4, r5, lr}
 8004b76:	4605      	mov	r5, r0
 8004b78:	2900      	cmp	r1, #0
 8004b7a:	d043      	beq.n	8004c04 <_free_r+0x90>
 8004b7c:	f851 3c04 	ldr.w	r3, [r1, #-4]
 8004b80:	1f0c      	subs	r4, r1, #4
 8004b82:	2b00      	cmp	r3, #0
 8004b84:	bfb8      	it	lt
 8004b86:	18e4      	addlt	r4, r4, r3
 8004b88:	f000 fda1 	bl	80056ce <__malloc_lock>
 8004b8c:	4a1e      	ldr	r2, [pc, #120]	; (8004c08 <_free_r+0x94>)
 8004b8e:	6813      	ldr	r3, [r2, #0]
 8004b90:	4610      	mov	r0, r2
 8004b92:	b933      	cbnz	r3, 8004ba2 <_free_r+0x2e>
 8004b94:	6063      	str	r3, [r4, #4]
 8004b96:	6014      	str	r4, [r2, #0]
 8004b98:	4628      	mov	r0, r5
 8004b9a:	e8bd 4038 	ldmia.w	sp!, {r3, r4, r5, lr}
 8004b9e:	f000 bd97 	b.w	80056d0 <__malloc_unlock>
 8004ba2:	42a3      	cmp	r3, r4
 8004ba4:	d90b      	bls.n	8004bbe <_free_r+0x4a>
 8004ba6:	6821      	ldr	r1, [r4, #0]
 8004ba8:	1862      	adds	r2, r4, r1
 8004baa:	4293      	cmp	r3, r2
 8004bac:	bf01      	itttt	eq
 8004bae:	681a      	ldreq	r2, [r3, #0]
 8004bb0:	685b      	ldreq	r3, [r3, #4]
 8004bb2:	1852      	addeq	r2, r2, r1
 8004bb4:	6022      	streq	r2, [r4, #0]
 8004bb6:	6063      	str	r3, [r4, #4]
 8004bb8:	6004      	str	r4, [r0, #0]
 8004bba:	e7ed      	b.n	8004b98 <_free_r+0x24>
 8004bbc:	4613      	mov	r3, r2
 8004bbe:	685a      	ldr	r2, [r3, #4]
 8004bc0:	b10a      	cbz	r2, 8004bc6 <_free_r+0x52>
 8004bc2:	42a2      	cmp	r2, r4
 8004bc4:	d9fa      	bls.n	8004bbc <_free_r+0x48>
 8004bc6:	6819      	ldr	r1, [r3, #0]
 8004bc8:	1858      	adds	r0, r3, r1
 8004bca:	42a0      	cmp	r0, r4
 8004bcc:	d10b      	bne.n	8004be6 <_free_r+0x72>
 8004bce:	6820      	ldr	r0, [r4, #0]
 8004bd0:	4401      	add	r1, r0
 8004bd2:	1858      	adds	r0, r3, r1
 8004bd4:	4282      	cmp	r2, r0
 8004bd6:	6019      	str	r1, [r3, #0]
 8004bd8:	d1de      	bne.n	8004b98 <_free_r+0x24>
 8004bda:	6810      	ldr	r0, [r2, #0]
 8004bdc:	6852      	ldr	r2, [r2, #4]
 8004bde:	4401      	add	r1, r0
 8004be0:	6019      	str	r1, [r3, #0]
 8004be2:	605a      	str	r2, [r3, #4]
 8004be4:	e7d8      	b.n	8004b98 <_free_r+0x24>
 8004be6:	d902      	bls.n	8004bee <_free_r+0x7a>
 8004be8:	230c      	movs	r3, #12
 8004bea:	602b      	str	r3, [r5, #0]
 8004bec:	e7d4      	b.n	8004b98 <_free_r+0x24>
 8004bee:	6820      	ldr	r0, [r4, #0]
 8004bf0:	1821      	adds	r1, r4, r0
 8004bf2:	428a      	cmp	r2, r1
 8004bf4:	bf01      	itttt	eq
 8004bf6:	6811      	ldreq	r1, [r2, #0]
 8004bf8:	6852      	ldreq	r2, [r2, #4]
 8004bfa:	1809      	addeq	r1, r1, r0
 8004bfc:	6021      	streq	r1, [r4, #0]
 8004bfe:	6062      	str	r2, [r4, #4]
 8004c00:	605c      	str	r4, [r3, #4]
 8004c02:	e7c9      	b.n	8004b98 <_free_r+0x24>
 8004c04:	bd38      	pop	{r3, r4, r5, pc}
 8004c06:	bf00      	nop
 8004c08:	200002e4 	.word	0x200002e4

08004c0c <_malloc_r>:
 8004c0c:	b570      	push	{r4, r5, r6, lr}
 8004c0e:	1ccd      	adds	r5, r1, #3
 8004c10:	f025 0503 	bic.w	r5, r5, #3
 8004c14:	3508      	adds	r5, #8
 8004c16:	2d0c      	cmp	r5, #12
 8004c18:	bf38      	it	cc
 8004c1a:	250c      	movcc	r5, #12
 8004c1c:	2d00      	cmp	r5, #0
 8004c1e:	4606      	mov	r6, r0
 8004c20:	db01      	blt.n	8004c26 <_malloc_r+0x1a>
 8004c22:	42a9      	cmp	r1, r5
 8004c24:	d903      	bls.n	8004c2e <_malloc_r+0x22>
 8004c26:	230c      	movs	r3, #12
 8004c28:	6033      	str	r3, [r6, #0]
 8004c2a:	2000      	movs	r0, #0
 8004c2c:	bd70      	pop	{r4, r5, r6, pc}
 8004c2e:	f000 fd4e 	bl	80056ce <__malloc_lock>
 8004c32:	4a23      	ldr	r2, [pc, #140]	; (8004cc0 <_malloc_r+0xb4>)
 8004c34:	6814      	ldr	r4, [r2, #0]
 8004c36:	4621      	mov	r1, r4
 8004c38:	b991      	cbnz	r1, 8004c60 <_malloc_r+0x54>
 8004c3a:	4c22      	ldr	r4, [pc, #136]	; (8004cc4 <_malloc_r+0xb8>)
 8004c3c:	6823      	ldr	r3, [r4, #0]
 8004c3e:	b91b      	cbnz	r3, 8004c48 <_malloc_r+0x3c>
 8004c40:	4630      	mov	r0, r6
 8004c42:	f000 fc67 	bl	8005514 <_sbrk_r>
 8004c46:	6020      	str	r0, [r4, #0]
 8004c48:	4629      	mov	r1, r5
 8004c4a:	4630      	mov	r0, r6
 8004c4c:	f000 fc62 	bl	8005514 <_sbrk_r>
 8004c50:	1c43      	adds	r3, r0, #1
 8004c52:	d126      	bne.n	8004ca2 <_malloc_r+0x96>
 8004c54:	230c      	movs	r3, #12
 8004c56:	4630      	mov	r0, r6
 8004c58:	6033      	str	r3, [r6, #0]
 8004c5a:	f000 fd39 	bl	80056d0 <__malloc_unlock>
 8004c5e:	e7e4      	b.n	8004c2a <_malloc_r+0x1e>
 8004c60:	680b      	ldr	r3, [r1, #0]
 8004c62:	1b5b      	subs	r3, r3, r5
 8004c64:	d41a      	bmi.n	8004c9c <_malloc_r+0x90>
 8004c66:	2b0b      	cmp	r3, #11
 8004c68:	d90f      	bls.n	8004c8a <_malloc_r+0x7e>
 8004c6a:	600b      	str	r3, [r1, #0]
 8004c6c:	18cc      	adds	r4, r1, r3
 8004c6e:	50cd      	str	r5, [r1, r3]
 8004c70:	4630      	mov	r0, r6
 8004c72:	f000 fd2d 	bl	80056d0 <__malloc_unlock>
 8004c76:	f104 000b 	add.w	r0, r4, #11
 8004c7a:	1d23      	adds	r3, r4, #4
 8004c7c:	f020 0007 	bic.w	r0, r0, #7
 8004c80:	1ac3      	subs	r3, r0, r3
 8004c82:	d01b      	beq.n	8004cbc <_malloc_r+0xb0>
 8004c84:	425a      	negs	r2, r3
 8004c86:	50e2      	str	r2, [r4, r3]
 8004c88:	bd70      	pop	{r4, r5, r6, pc}
 8004c8a:	428c      	cmp	r4, r1
 8004c8c:	bf0b      	itete	eq
 8004c8e:	6863      	ldreq	r3, [r4, #4]
 8004c90:	684b      	ldrne	r3, [r1, #4]
 8004c92:	6013      	streq	r3, [r2, #0]
 8004c94:	6063      	strne	r3, [r4, #4]
 8004c96:	bf18      	it	ne
 8004c98:	460c      	movne	r4, r1
 8004c9a:	e7e9      	b.n	8004c70 <_malloc_r+0x64>
 8004c9c:	460c      	mov	r4, r1
 8004c9e:	6849      	ldr	r1, [r1, #4]
 8004ca0:	e7ca      	b.n	8004c38 <_malloc_r+0x2c>
 8004ca2:	1cc4      	adds	r4, r0, #3
 8004ca4:	f024 0403 	bic.w	r4, r4, #3
 8004ca8:	42a0      	cmp	r0, r4
 8004caa:	d005      	beq.n	8004cb8 <_malloc_r+0xac>
 8004cac:	1a21      	subs	r1, r4, r0
 8004cae:	4630      	mov	r0, r6
 8004cb0:	f000 fc30 	bl	8005514 <_sbrk_r>
 8004cb4:	3001      	adds	r0, #1
 8004cb6:	d0cd      	beq.n	8004c54 <_malloc_r+0x48>
 8004cb8:	6025      	str	r5, [r4, #0]
 8004cba:	e7d9      	b.n	8004c70 <_malloc_r+0x64>
 8004cbc:	bd70      	pop	{r4, r5, r6, pc}
 8004cbe:	bf00      	nop
 8004cc0:	200002e4 	.word	0x200002e4
 8004cc4:	200002e8 	.word	0x200002e8

08004cc8 <__ssputs_r>:
 8004cc8:	e92d 47f0 	stmdb	sp!, {r4, r5, r6, r7, r8, r9, sl, lr}
 8004ccc:	688e      	ldr	r6, [r1, #8]
 8004cce:	4682      	mov	sl, r0
 8004cd0:	429e      	cmp	r6, r3
 8004cd2:	460c      	mov	r4, r1
 8004cd4:	4691      	mov	r9, r2
 8004cd6:	4698      	mov	r8, r3
 8004cd8:	d835      	bhi.n	8004d46 <__ssputs_r+0x7e>
 8004cda:	898a      	ldrh	r2, [r1, #12]
 8004cdc:	f412 6f90 	tst.w	r2, #1152	; 0x480
 8004ce0:	d031      	beq.n	8004d46 <__ssputs_r+0x7e>
 8004ce2:	2302      	movs	r3, #2
 8004ce4:	6825      	ldr	r5, [r4, #0]
 8004ce6:	6909      	ldr	r1, [r1, #16]
 8004ce8:	1a6f      	subs	r7, r5, r1
 8004cea:	6965      	ldr	r5, [r4, #20]
 8004cec:	eb05 0545 	add.w	r5, r5, r5, lsl #1
 8004cf0:	fb95 f5f3 	sdiv	r5, r5, r3
 8004cf4:	f108 0301 	add.w	r3, r8, #1
 8004cf8:	443b      	add	r3, r7
 8004cfa:	429d      	cmp	r5, r3
 8004cfc:	bf38      	it	cc
 8004cfe:	461d      	movcc	r5, r3
 8004d00:	0553      	lsls	r3, r2, #21
 8004d02:	d531      	bpl.n	8004d68 <__ssputs_r+0xa0>
 8004d04:	4629      	mov	r1, r5
 8004d06:	f7ff ff81 	bl	8004c0c <_malloc_r>
 8004d0a:	4606      	mov	r6, r0
 8004d0c:	b950      	cbnz	r0, 8004d24 <__ssputs_r+0x5c>
 8004d0e:	230c      	movs	r3, #12
 8004d10:	f8ca 3000 	str.w	r3, [sl]
 8004d14:	89a3      	ldrh	r3, [r4, #12]
 8004d16:	f04f 30ff 	mov.w	r0, #4294967295
 8004d1a:	f043 0340 	orr.w	r3, r3, #64	; 0x40
 8004d1e:	81a3      	strh	r3, [r4, #12]
 8004d20:	e8bd 87f0 	ldmia.w	sp!, {r4, r5, r6, r7, r8, r9, sl, pc}
 8004d24:	463a      	mov	r2, r7
 8004d26:	6921      	ldr	r1, [r4, #16]
 8004d28:	f000 fcac 	bl	8005684 <memcpy>
 8004d2c:	89a3      	ldrh	r3, [r4, #12]
 8004d2e:	f423 6390 	bic.w	r3, r3, #1152	; 0x480
 8004d32:	f043 0380 	orr.w	r3, r3, #128	; 0x80
 8004d36:	81a3      	strh	r3, [r4, #12]
 8004d38:	6126      	str	r6, [r4, #16]
 8004d3a:	443e      	add	r6, r7
 8004d3c:	6026      	str	r6, [r4, #0]
 8004d3e:	4646      	mov	r6, r8
 8004d40:	6165      	str	r5, [r4, #20]
 8004d42:	1bed      	subs	r5, r5, r7
 8004d44:	60a5      	str	r5, [r4, #8]
 8004d46:	4546      	cmp	r6, r8
 8004d48:	bf28      	it	cs
 8004d4a:	4646      	movcs	r6, r8
 8004d4c:	4649      	mov	r1, r9
 8004d4e:	4632      	mov	r2, r6
 8004d50:	6820      	ldr	r0, [r4, #0]
 8004d52:	f000 fca2 	bl	800569a <memmove>
 8004d56:	68a3      	ldr	r3, [r4, #8]
 8004d58:	2000      	movs	r0, #0
 8004d5a:	1b9b      	subs	r3, r3, r6
 8004d5c:	60a3      	str	r3, [r4, #8]
 8004d5e:	6823      	ldr	r3, [r4, #0]
 8004d60:	441e      	add	r6, r3
 8004d62:	6026      	str	r6, [r4, #0]
 8004d64:	e8bd 87f0 	ldmia.w	sp!, {r4, r5, r6, r7, r8, r9, sl, pc}
 8004d68:	462a      	mov	r2, r5
 8004d6a:	f000 fcb2 	bl	80056d2 <_realloc_r>
 8004d6e:	4606      	mov	r6, r0
 8004d70:	2800      	cmp	r0, #0
 8004d72:	d1e1      	bne.n	8004d38 <__ssputs_r+0x70>
 8004d74:	6921      	ldr	r1, [r4, #16]
 8004d76:	4650      	mov	r0, sl
 8004d78:	f7ff fefc 	bl	8004b74 <_free_r>
 8004d7c:	e7c7      	b.n	8004d0e <__ssputs_r+0x46>
	...

08004d80 <_svfiprintf_r>:
 8004d80:	e92d 4ff0 	stmdb	sp!, {r4, r5, r6, r7, r8, r9, sl, fp, lr}
 8004d84:	b09d      	sub	sp, #116	; 0x74
 8004d86:	9303      	str	r3, [sp, #12]
 8004d88:	898b      	ldrh	r3, [r1, #12]
 8004d8a:	4680      	mov	r8, r0
 8004d8c:	061c      	lsls	r4, r3, #24
 8004d8e:	460d      	mov	r5, r1
 8004d90:	4616      	mov	r6, r2
 8004d92:	d50f      	bpl.n	8004db4 <_svfiprintf_r+0x34>
 8004d94:	690b      	ldr	r3, [r1, #16]
 8004d96:	b96b      	cbnz	r3, 8004db4 <_svfiprintf_r+0x34>
 8004d98:	2140      	movs	r1, #64	; 0x40
 8004d9a:	f7ff ff37 	bl	8004c0c <_malloc_r>
 8004d9e:	6028      	str	r0, [r5, #0]
 8004da0:	6128      	str	r0, [r5, #16]
 8004da2:	b928      	cbnz	r0, 8004db0 <_svfiprintf_r+0x30>
 8004da4:	230c      	movs	r3, #12
 8004da6:	f8c8 3000 	str.w	r3, [r8]
 8004daa:	f04f 30ff 	mov.w	r0, #4294967295
 8004dae:	e0c4      	b.n	8004f3a <_svfiprintf_r+0x1ba>
 8004db0:	2340      	movs	r3, #64	; 0x40
 8004db2:	616b      	str	r3, [r5, #20]
 8004db4:	2300      	movs	r3, #0
 8004db6:	9309      	str	r3, [sp, #36]	; 0x24
 8004db8:	2320      	movs	r3, #32
 8004dba:	f88d 3029 	strb.w	r3, [sp, #41]	; 0x29
 8004dbe:	2330      	movs	r3, #48	; 0x30
 8004dc0:	f04f 0b01 	mov.w	fp, #1
 8004dc4:	f88d 302a 	strb.w	r3, [sp, #42]	; 0x2a
 8004dc8:	4637      	mov	r7, r6
 8004dca:	463c      	mov	r4, r7
 8004dcc:	f814 3b01 	ldrb.w	r3, [r4], #1
 8004dd0:	2b00      	cmp	r3, #0
 8004dd2:	d13c      	bne.n	8004e4e <_svfiprintf_r+0xce>
 8004dd4:	ebb7 0a06 	subs.w	sl, r7, r6
 8004dd8:	d00b      	beq.n	8004df2 <_svfiprintf_r+0x72>
 8004dda:	4653      	mov	r3, sl
 8004ddc:	4632      	mov	r2, r6
 8004dde:	4629      	mov	r1, r5
 8004de0:	4640      	mov	r0, r8
 8004de2:	f7ff ff71 	bl	8004cc8 <__ssputs_r>
 8004de6:	3001      	adds	r0, #1
 8004de8:	f000 80a2 	beq.w	8004f30 <_svfiprintf_r+0x1b0>
 8004dec:	9b09      	ldr	r3, [sp, #36]	; 0x24
 8004dee:	4453      	add	r3, sl
 8004df0:	9309      	str	r3, [sp, #36]	; 0x24
 8004df2:	783b      	ldrb	r3, [r7, #0]
 8004df4:	2b00      	cmp	r3, #0
 8004df6:	f000 809b 	beq.w	8004f30 <_svfiprintf_r+0x1b0>
 8004dfa:	2300      	movs	r3, #0
 8004dfc:	f04f 32ff 	mov.w	r2, #4294967295
 8004e00:	9304      	str	r3, [sp, #16]
 8004e02:	9307      	str	r3, [sp, #28]
 8004e04:	9205      	str	r2, [sp, #20]
 8004e06:	9306      	str	r3, [sp, #24]
 8004e08:	f88d 3053 	strb.w	r3, [sp, #83]	; 0x53
 8004e0c:	931a      	str	r3, [sp, #104]	; 0x68
 8004e0e:	2205      	movs	r2, #5
 8004e10:	7821      	ldrb	r1, [r4, #0]
 8004e12:	4850      	ldr	r0, [pc, #320]	; (8004f54 <_svfiprintf_r+0x1d4>)
 8004e14:	f000 fc28 	bl	8005668 <memchr>
 8004e18:	1c67      	adds	r7, r4, #1
 8004e1a:	9b04      	ldr	r3, [sp, #16]
 8004e1c:	b9d8      	cbnz	r0, 8004e56 <_svfiprintf_r+0xd6>
 8004e1e:	06d9      	lsls	r1, r3, #27
 8004e20:	bf44      	itt	mi
 8004e22:	2220      	movmi	r2, #32
 8004e24:	f88d 2053 	strbmi.w	r2, [sp, #83]	; 0x53
 8004e28:	071a      	lsls	r2, r3, #28
 8004e2a:	bf44      	itt	mi
 8004e2c:	222b      	movmi	r2, #43	; 0x2b
 8004e2e:	f88d 2053 	strbmi.w	r2, [sp, #83]	; 0x53
 8004e32:	7822      	ldrb	r2, [r4, #0]
 8004e34:	2a2a      	cmp	r2, #42	; 0x2a
 8004e36:	d016      	beq.n	8004e66 <_svfiprintf_r+0xe6>
 8004e38:	2100      	movs	r1, #0
 8004e3a:	200a      	movs	r0, #10
 8004e3c:	9a07      	ldr	r2, [sp, #28]
 8004e3e:	4627      	mov	r7, r4
 8004e40:	783b      	ldrb	r3, [r7, #0]
 8004e42:	3401      	adds	r4, #1
 8004e44:	3b30      	subs	r3, #48	; 0x30
 8004e46:	2b09      	cmp	r3, #9
 8004e48:	d950      	bls.n	8004eec <_svfiprintf_r+0x16c>
 8004e4a:	b1c9      	cbz	r1, 8004e80 <_svfiprintf_r+0x100>
 8004e4c:	e011      	b.n	8004e72 <_svfiprintf_r+0xf2>
 8004e4e:	2b25      	cmp	r3, #37	; 0x25
 8004e50:	d0c0      	beq.n	8004dd4 <_svfiprintf_r+0x54>
 8004e52:	4627      	mov	r7, r4
 8004e54:	e7b9      	b.n	8004dca <_svfiprintf_r+0x4a>
 8004e56:	4a3f      	ldr	r2, [pc, #252]	; (8004f54 <_svfiprintf_r+0x1d4>)
 8004e58:	463c      	mov	r4, r7
 8004e5a:	1a80      	subs	r0, r0, r2
 8004e5c:	fa0b f000 	lsl.w	r0, fp, r0
 8004e60:	4318      	orrs	r0, r3
 8004e62:	9004      	str	r0, [sp, #16]
 8004e64:	e7d3      	b.n	8004e0e <_svfiprintf_r+0x8e>
 8004e66:	9a03      	ldr	r2, [sp, #12]
 8004e68:	1d11      	adds	r1, r2, #4
 8004e6a:	6812      	ldr	r2, [r2, #0]
 8004e6c:	9103      	str	r1, [sp, #12]
 8004e6e:	2a00      	cmp	r2, #0
 8004e70:	db01      	blt.n	8004e76 <_svfiprintf_r+0xf6>
 8004e72:	9207      	str	r2, [sp, #28]
 8004e74:	e004      	b.n	8004e80 <_svfiprintf_r+0x100>
 8004e76:	4252      	negs	r2, r2
 8004e78:	f043 0302 	orr.w	r3, r3, #2
 8004e7c:	9207      	str	r2, [sp, #28]
 8004e7e:	9304      	str	r3, [sp, #16]
 8004e80:	783b      	ldrb	r3, [r7, #0]
 8004e82:	2b2e      	cmp	r3, #46	; 0x2e
 8004e84:	d10d      	bne.n	8004ea2 <_svfiprintf_r+0x122>
 8004e86:	787b      	ldrb	r3, [r7, #1]
 8004e88:	1c79      	adds	r1, r7, #1
 8004e8a:	2b2a      	cmp	r3, #42	; 0x2a
 8004e8c:	d132      	bne.n	8004ef4 <_svfiprintf_r+0x174>
 8004e8e:	9b03      	ldr	r3, [sp, #12]
 8004e90:	3702      	adds	r7, #2
 8004e92:	1d1a      	adds	r2, r3, #4
 8004e94:	681b      	ldr	r3, [r3, #0]
 8004e96:	9203      	str	r2, [sp, #12]
 8004e98:	2b00      	cmp	r3, #0
 8004e9a:	bfb8      	it	lt
 8004e9c:	f04f 33ff 	movlt.w	r3, #4294967295
 8004ea0:	9305      	str	r3, [sp, #20]
 8004ea2:	4c2d      	ldr	r4, [pc, #180]	; (8004f58 <_svfiprintf_r+0x1d8>)
 8004ea4:	2203      	movs	r2, #3
 8004ea6:	7839      	ldrb	r1, [r7, #0]
 8004ea8:	4620      	mov	r0, r4
 8004eaa:	f000 fbdd 	bl	8005668 <memchr>
 8004eae:	b138      	cbz	r0, 8004ec0 <_svfiprintf_r+0x140>
 8004eb0:	2340      	movs	r3, #64	; 0x40
 8004eb2:	1b00      	subs	r0, r0, r4
 8004eb4:	fa03 f000 	lsl.w	r0, r3, r0
 8004eb8:	9b04      	ldr	r3, [sp, #16]
 8004eba:	3701      	adds	r7, #1
 8004ebc:	4303      	orrs	r3, r0
 8004ebe:	9304      	str	r3, [sp, #16]
 8004ec0:	7839      	ldrb	r1, [r7, #0]
 8004ec2:	2206      	movs	r2, #6
 8004ec4:	4825      	ldr	r0, [pc, #148]	; (8004f5c <_svfiprintf_r+0x1dc>)
 8004ec6:	1c7e      	adds	r6, r7, #1
 8004ec8:	f88d 1028 	strb.w	r1, [sp, #40]	; 0x28
 8004ecc:	f000 fbcc 	bl	8005668 <memchr>
 8004ed0:	2800      	cmp	r0, #0
 8004ed2:	d035      	beq.n	8004f40 <_svfiprintf_r+0x1c0>
 8004ed4:	4b22      	ldr	r3, [pc, #136]	; (8004f60 <_svfiprintf_r+0x1e0>)
 8004ed6:	b9fb      	cbnz	r3, 8004f18 <_svfiprintf_r+0x198>
 8004ed8:	9b03      	ldr	r3, [sp, #12]
 8004eda:	3307      	adds	r3, #7
 8004edc:	f023 0307 	bic.w	r3, r3, #7
 8004ee0:	3308      	adds	r3, #8
 8004ee2:	9303      	str	r3, [sp, #12]
 8004ee4:	9b09      	ldr	r3, [sp, #36]	; 0x24
 8004ee6:	444b      	add	r3, r9
 8004ee8:	9309      	str	r3, [sp, #36]	; 0x24
 8004eea:	e76d      	b.n	8004dc8 <_svfiprintf_r+0x48>
 8004eec:	fb00 3202 	mla	r2, r0, r2, r3
 8004ef0:	2101      	movs	r1, #1
 8004ef2:	e7a4      	b.n	8004e3e <_svfiprintf_r+0xbe>
 8004ef4:	2300      	movs	r3, #0
 8004ef6:	240a      	movs	r4, #10
 8004ef8:	4618      	mov	r0, r3
 8004efa:	9305      	str	r3, [sp, #20]
 8004efc:	460f      	mov	r7, r1
 8004efe:	783a      	ldrb	r2, [r7, #0]
 8004f00:	3101      	adds	r1, #1
 8004f02:	3a30      	subs	r2, #48	; 0x30
 8004f04:	2a09      	cmp	r2, #9
 8004f06:	d903      	bls.n	8004f10 <_svfiprintf_r+0x190>
 8004f08:	2b00      	cmp	r3, #0
 8004f0a:	d0ca      	beq.n	8004ea2 <_svfiprintf_r+0x122>
 8004f0c:	9005      	str	r0, [sp, #20]
 8004f0e:	e7c8      	b.n	8004ea2 <_svfiprintf_r+0x122>
 8004f10:	fb04 2000 	mla	r0, r4, r0, r2
 8004f14:	2301      	movs	r3, #1
 8004f16:	e7f1      	b.n	8004efc <_svfiprintf_r+0x17c>
 8004f18:	ab03      	add	r3, sp, #12
 8004f1a:	9300      	str	r3, [sp, #0]
 8004f1c:	462a      	mov	r2, r5
 8004f1e:	4b11      	ldr	r3, [pc, #68]	; (8004f64 <_svfiprintf_r+0x1e4>)
 8004f20:	a904      	add	r1, sp, #16
 8004f22:	4640      	mov	r0, r8
 8004f24:	f3af 8000 	nop.w
 8004f28:	f1b0 3fff 	cmp.w	r0, #4294967295
 8004f2c:	4681      	mov	r9, r0
 8004f2e:	d1d9      	bne.n	8004ee4 <_svfiprintf_r+0x164>
 8004f30:	89ab      	ldrh	r3, [r5, #12]
 8004f32:	065b      	lsls	r3, r3, #25
 8004f34:	f53f af39 	bmi.w	8004daa <_svfiprintf_r+0x2a>
 8004f38:	9809      	ldr	r0, [sp, #36]	; 0x24
 8004f3a:	b01d      	add	sp, #116	; 0x74
 8004f3c:	e8bd 8ff0 	ldmia.w	sp!, {r4, r5, r6, r7, r8, r9, sl, fp, pc}
 8004f40:	ab03      	add	r3, sp, #12
 8004f42:	9300      	str	r3, [sp, #0]
 8004f44:	462a      	mov	r2, r5
 8004f46:	4b07      	ldr	r3, [pc, #28]	; (8004f64 <_svfiprintf_r+0x1e4>)
 8004f48:	a904      	add	r1, sp, #16
 8004f4a:	4640      	mov	r0, r8
 8004f4c:	f000 f9c2 	bl	80052d4 <_printf_i>
 8004f50:	e7ea      	b.n	8004f28 <_svfiprintf_r+0x1a8>
 8004f52:	bf00      	nop
 8004f54:	08005df8 	.word	0x08005df8
 8004f58:	08005dfe 	.word	0x08005dfe
 8004f5c:	08005e02 	.word	0x08005e02
 8004f60:	00000000 	.word	0x00000000
 8004f64:	08004cc9 	.word	0x08004cc9

08004f68 <__sfputc_r>:
 8004f68:	6893      	ldr	r3, [r2, #8]
 8004f6a:	b410      	push	{r4}
 8004f6c:	3b01      	subs	r3, #1
 8004f6e:	2b00      	cmp	r3, #0
 8004f70:	6093      	str	r3, [r2, #8]
 8004f72:	da08      	bge.n	8004f86 <__sfputc_r+0x1e>
 8004f74:	6994      	ldr	r4, [r2, #24]
 8004f76:	42a3      	cmp	r3, r4
 8004f78:	db02      	blt.n	8004f80 <__sfputc_r+0x18>
 8004f7a:	b2cb      	uxtb	r3, r1
 8004f7c:	2b0a      	cmp	r3, #10
 8004f7e:	d102      	bne.n	8004f86 <__sfputc_r+0x1e>
 8004f80:	bc10      	pop	{r4}
 8004f82:	f7ff bb57 	b.w	8004634 <__swbuf_r>
 8004f86:	6813      	ldr	r3, [r2, #0]
 8004f88:	1c58      	adds	r0, r3, #1
 8004f8a:	6010      	str	r0, [r2, #0]
 8004f8c:	7019      	strb	r1, [r3, #0]
 8004f8e:	b2c8      	uxtb	r0, r1
 8004f90:	bc10      	pop	{r4}
 8004f92:	4770      	bx	lr

08004f94 <__sfputs_r>:
 8004f94:	b5f8      	push	{r3, r4, r5, r6, r7, lr}
 8004f96:	4606      	mov	r6, r0
 8004f98:	460f      	mov	r7, r1
 8004f9a:	4614      	mov	r4, r2
 8004f9c:	18d5      	adds	r5, r2, r3
 8004f9e:	42ac      	cmp	r4, r5
 8004fa0:	d101      	bne.n	8004fa6 <__sfputs_r+0x12>
 8004fa2:	2000      	movs	r0, #0
 8004fa4:	e007      	b.n	8004fb6 <__sfputs_r+0x22>
 8004fa6:	463a      	mov	r2, r7
 8004fa8:	f814 1b01 	ldrb.w	r1, [r4], #1
 8004fac:	4630      	mov	r0, r6
 8004fae:	f7ff ffdb 	bl	8004f68 <__sfputc_r>
 8004fb2:	1c43      	adds	r3, r0, #1
 8004fb4:	d1f3      	bne.n	8004f9e <__sfputs_r+0xa>
 8004fb6:	bdf8      	pop	{r3, r4, r5, r6, r7, pc}

08004fb8 <_vfiprintf_r>:
 8004fb8:	e92d 4ff0 	stmdb	sp!, {r4, r5, r6, r7, r8, r9, sl, fp, lr}
 8004fbc:	b09d      	sub	sp, #116	; 0x74
 8004fbe:	460c      	mov	r4, r1
 8004fc0:	4617      	mov	r7, r2
 8004fc2:	9303      	str	r3, [sp, #12]
 8004fc4:	4606      	mov	r6, r0
 8004fc6:	b118      	cbz	r0, 8004fd0 <_vfiprintf_r+0x18>
 8004fc8:	6983      	ldr	r3, [r0, #24]
 8004fca:	b90b      	cbnz	r3, 8004fd0 <_vfiprintf_r+0x18>
 8004fcc:	f7ff fce4 	bl	8004998 <__sinit>
 8004fd0:	4b7c      	ldr	r3, [pc, #496]	; (80051c4 <_vfiprintf_r+0x20c>)
 8004fd2:	429c      	cmp	r4, r3
 8004fd4:	d157      	bne.n	8005086 <_vfiprintf_r+0xce>
 8004fd6:	6874      	ldr	r4, [r6, #4]
 8004fd8:	89a3      	ldrh	r3, [r4, #12]
 8004fda:	0718      	lsls	r0, r3, #28
 8004fdc:	d55d      	bpl.n	800509a <_vfiprintf_r+0xe2>
 8004fde:	6923      	ldr	r3, [r4, #16]
 8004fe0:	2b00      	cmp	r3, #0
 8004fe2:	d05a      	beq.n	800509a <_vfiprintf_r+0xe2>
 8004fe4:	2300      	movs	r3, #0
 8004fe6:	9309      	str	r3, [sp, #36]	; 0x24
 8004fe8:	2320      	movs	r3, #32
 8004fea:	f88d 3029 	strb.w	r3, [sp, #41]	; 0x29
 8004fee:	2330      	movs	r3, #48	; 0x30
 8004ff0:	f04f 0b01 	mov.w	fp, #1
 8004ff4:	f88d 302a 	strb.w	r3, [sp, #42]	; 0x2a
 8004ff8:	46b8      	mov	r8, r7
 8004ffa:	4645      	mov	r5, r8
 8004ffc:	f815 3b01 	ldrb.w	r3, [r5], #1
 8005000:	2b00      	cmp	r3, #0
 8005002:	d155      	bne.n	80050b0 <_vfiprintf_r+0xf8>
 8005004:	ebb8 0a07 	subs.w	sl, r8, r7
 8005008:	d00b      	beq.n	8005022 <_vfiprintf_r+0x6a>
 800500a:	4653      	mov	r3, sl
 800500c:	463a      	mov	r2, r7
 800500e:	4621      	mov	r1, r4
 8005010:	4630      	mov	r0, r6
 8005012:	f7ff ffbf 	bl	8004f94 <__sfputs_r>
 8005016:	3001      	adds	r0, #1
 8005018:	f000 80c4 	beq.w	80051a4 <_vfiprintf_r+0x1ec>
 800501c:	9b09      	ldr	r3, [sp, #36]	; 0x24
 800501e:	4453      	add	r3, sl
 8005020:	9309      	str	r3, [sp, #36]	; 0x24
 8005022:	f898 3000 	ldrb.w	r3, [r8]
 8005026:	2b00      	cmp	r3, #0
 8005028:	f000 80bc 	beq.w	80051a4 <_vfiprintf_r+0x1ec>
 800502c:	2300      	movs	r3, #0
 800502e:	f04f 32ff 	mov.w	r2, #4294967295
 8005032:	9304      	str	r3, [sp, #16]
 8005034:	9307      	str	r3, [sp, #28]
 8005036:	9205      	str	r2, [sp, #20]
 8005038:	9306      	str	r3, [sp, #24]
 800503a:	f88d 3053 	strb.w	r3, [sp, #83]	; 0x53
 800503e:	931a      	str	r3, [sp, #104]	; 0x68
 8005040:	2205      	movs	r2, #5
 8005042:	7829      	ldrb	r1, [r5, #0]
 8005044:	4860      	ldr	r0, [pc, #384]	; (80051c8 <_vfiprintf_r+0x210>)
 8005046:	f000 fb0f 	bl	8005668 <memchr>
 800504a:	f105 0801 	add.w	r8, r5, #1
 800504e:	9b04      	ldr	r3, [sp, #16]
 8005050:	2800      	cmp	r0, #0
 8005052:	d131      	bne.n	80050b8 <_vfiprintf_r+0x100>
 8005054:	06d9      	lsls	r1, r3, #27
 8005056:	bf44      	itt	mi
 8005058:	2220      	movmi	r2, #32
 800505a:	f88d 2053 	strbmi.w	r2, [sp, #83]	; 0x53
 800505e:	071a      	lsls	r2, r3, #28
 8005060:	bf44      	itt	mi
 8005062:	222b      	movmi	r2, #43	; 0x2b
 8005064:	f88d 2053 	strbmi.w	r2, [sp, #83]	; 0x53
 8005068:	782a      	ldrb	r2, [r5, #0]
 800506a:	2a2a      	cmp	r2, #42	; 0x2a
 800506c:	d02c      	beq.n	80050c8 <_vfiprintf_r+0x110>
 800506e:	2100      	movs	r1, #0
 8005070:	200a      	movs	r0, #10
 8005072:	9a07      	ldr	r2, [sp, #28]
 8005074:	46a8      	mov	r8, r5
 8005076:	f898 3000 	ldrb.w	r3, [r8]
 800507a:	3501      	adds	r5, #1
 800507c:	3b30      	subs	r3, #48	; 0x30
 800507e:	2b09      	cmp	r3, #9
 8005080:	d96d      	bls.n	800515e <_vfiprintf_r+0x1a6>
 8005082:	b371      	cbz	r1, 80050e2 <_vfiprintf_r+0x12a>
 8005084:	e026      	b.n	80050d4 <_vfiprintf_r+0x11c>
 8005086:	4b51      	ldr	r3, [pc, #324]	; (80051cc <_vfiprintf_r+0x214>)
 8005088:	429c      	cmp	r4, r3
 800508a:	d101      	bne.n	8005090 <_vfiprintf_r+0xd8>
 800508c:	68b4      	ldr	r4, [r6, #8]
 800508e:	e7a3      	b.n	8004fd8 <_vfiprintf_r+0x20>
 8005090:	4b4f      	ldr	r3, [pc, #316]	; (80051d0 <_vfiprintf_r+0x218>)
 8005092:	429c      	cmp	r4, r3
 8005094:	bf08      	it	eq
 8005096:	68f4      	ldreq	r4, [r6, #12]
 8005098:	e79e      	b.n	8004fd8 <_vfiprintf_r+0x20>
 800509a:	4621      	mov	r1, r4
 800509c:	4630      	mov	r0, r6
 800509e:	f7ff fb1b 	bl	80046d8 <__swsetup_r>
 80050a2:	2800      	cmp	r0, #0
 80050a4:	d09e      	beq.n	8004fe4 <_vfiprintf_r+0x2c>
 80050a6:	f04f 30ff 	mov.w	r0, #4294967295
 80050aa:	b01d      	add	sp, #116	; 0x74
 80050ac:	e8bd 8ff0 	ldmia.w	sp!, {r4, r5, r6, r7, r8, r9, sl, fp, pc}
 80050b0:	2b25      	cmp	r3, #37	; 0x25
 80050b2:	d0a7      	beq.n	8005004 <_vfiprintf_r+0x4c>
 80050b4:	46a8      	mov	r8, r5
 80050b6:	e7a0      	b.n	8004ffa <_vfiprintf_r+0x42>
 80050b8:	4a43      	ldr	r2, [pc, #268]	; (80051c8 <_vfiprintf_r+0x210>)
 80050ba:	4645      	mov	r5, r8
 80050bc:	1a80      	subs	r0, r0, r2
 80050be:	fa0b f000 	lsl.w	r0, fp, r0
 80050c2:	4318      	orrs	r0, r3
 80050c4:	9004      	str	r0, [sp, #16]
 80050c6:	e7bb      	b.n	8005040 <_vfiprintf_r+0x88>
 80050c8:	9a03      	ldr	r2, [sp, #12]
 80050ca:	1d11      	adds	r1, r2, #4
 80050cc:	6812      	ldr	r2, [r2, #0]
 80050ce:	9103      	str	r1, [sp, #12]
 80050d0:	2a00      	cmp	r2, #0
 80050d2:	db01      	blt.n	80050d8 <_vfiprintf_r+0x120>
 80050d4:	9207      	str	r2, [sp, #28]
 80050d6:	e004      	b.n	80050e2 <_vfiprintf_r+0x12a>
 80050d8:	4252      	negs	r2, r2
 80050da:	f043 0302 	orr.w	r3, r3, #2
 80050de:	9207      	str	r2, [sp, #28]
 80050e0:	9304      	str	r3, [sp, #16]
 80050e2:	f898 3000 	ldrb.w	r3, [r8]
 80050e6:	2b2e      	cmp	r3, #46	; 0x2e
 80050e8:	d110      	bne.n	800510c <_vfiprintf_r+0x154>
 80050ea:	f898 3001 	ldrb.w	r3, [r8, #1]
 80050ee:	f108 0101 	add.w	r1, r8, #1
 80050f2:	2b2a      	cmp	r3, #42	; 0x2a
 80050f4:	d137      	bne.n	8005166 <_vfiprintf_r+0x1ae>
 80050f6:	9b03      	ldr	r3, [sp, #12]
 80050f8:	f108 0802 	add.w	r8, r8, #2
 80050fc:	1d1a      	adds	r2, r3, #4
 80050fe:	681b      	ldr	r3, [r3, #0]
 8005100:	9203      	str	r2, [sp, #12]
 8005102:	2b00      	cmp	r3, #0
 8005104:	bfb8      	it	lt
 8005106:	f04f 33ff 	movlt.w	r3, #4294967295
 800510a:	9305      	str	r3, [sp, #20]
 800510c:	4d31      	ldr	r5, [pc, #196]	; (80051d4 <_vfiprintf_r+0x21c>)
 800510e:	2203      	movs	r2, #3
 8005110:	f898 1000 	ldrb.w	r1, [r8]
 8005114:	4628      	mov	r0, r5
 8005116:	f000 faa7 	bl	8005668 <memchr>
 800511a:	b140      	cbz	r0, 800512e <_vfiprintf_r+0x176>
 800511c:	2340      	movs	r3, #64	; 0x40
 800511e:	1b40      	subs	r0, r0, r5
 8005120:	fa03 f000 	lsl.w	r0, r3, r0
 8005124:	9b04      	ldr	r3, [sp, #16]
 8005126:	f108 0801 	add.w	r8, r8, #1
 800512a:	4303      	orrs	r3, r0
 800512c:	9304      	str	r3, [sp, #16]
 800512e:	f898 1000 	ldrb.w	r1, [r8]
 8005132:	2206      	movs	r2, #6
 8005134:	4828      	ldr	r0, [pc, #160]	; (80051d8 <_vfiprintf_r+0x220>)
 8005136:	f108 0701 	add.w	r7, r8, #1
 800513a:	f88d 1028 	strb.w	r1, [sp, #40]	; 0x28
 800513e:	f000 fa93 	bl	8005668 <memchr>
 8005142:	2800      	cmp	r0, #0
 8005144:	d034      	beq.n	80051b0 <_vfiprintf_r+0x1f8>
 8005146:	4b25      	ldr	r3, [pc, #148]	; (80051dc <_vfiprintf_r+0x224>)
 8005148:	bb03      	cbnz	r3, 800518c <_vfiprintf_r+0x1d4>
 800514a:	9b03      	ldr	r3, [sp, #12]
 800514c:	3307      	adds	r3, #7
 800514e:	f023 0307 	bic.w	r3, r3, #7
 8005152:	3308      	adds	r3, #8
 8005154:	9303      	str	r3, [sp, #12]
 8005156:	9b09      	ldr	r3, [sp, #36]	; 0x24
 8005158:	444b      	add	r3, r9
 800515a:	9309      	str	r3, [sp, #36]	; 0x24
 800515c:	e74c      	b.n	8004ff8 <_vfiprintf_r+0x40>
 800515e:	fb00 3202 	mla	r2, r0, r2, r3
 8005162:	2101      	movs	r1, #1
 8005164:	e786      	b.n	8005074 <_vfiprintf_r+0xbc>
 8005166:	2300      	movs	r3, #0
 8005168:	250a      	movs	r5, #10
 800516a:	4618      	mov	r0, r3
 800516c:	9305      	str	r3, [sp, #20]
 800516e:	4688      	mov	r8, r1
 8005170:	f898 2000 	ldrb.w	r2, [r8]
 8005174:	3101      	adds	r1, #1
 8005176:	3a30      	subs	r2, #48	; 0x30
 8005178:	2a09      	cmp	r2, #9
 800517a:	d903      	bls.n	8005184 <_vfiprintf_r+0x1cc>
 800517c:	2b00      	cmp	r3, #0
 800517e:	d0c5      	beq.n	800510c <_vfiprintf_r+0x154>
 8005180:	9005      	str	r0, [sp, #20]
 8005182:	e7c3      	b.n	800510c <_vfiprintf_r+0x154>
 8005184:	fb05 2000 	mla	r0, r5, r0, r2
 8005188:	2301      	movs	r3, #1
 800518a:	e7f0      	b.n	800516e <_vfiprintf_r+0x1b6>
 800518c:	ab03      	add	r3, sp, #12
 800518e:	9300      	str	r3, [sp, #0]
 8005190:	4622      	mov	r2, r4
 8005192:	4b13      	ldr	r3, [pc, #76]	; (80051e0 <_vfiprintf_r+0x228>)
 8005194:	a904      	add	r1, sp, #16
 8005196:	4630      	mov	r0, r6
 8005198:	f3af 8000 	nop.w
 800519c:	f1b0 3fff 	cmp.w	r0, #4294967295
 80051a0:	4681      	mov	r9, r0
 80051a2:	d1d8      	bne.n	8005156 <_vfiprintf_r+0x19e>
 80051a4:	89a3      	ldrh	r3, [r4, #12]
 80051a6:	065b      	lsls	r3, r3, #25
 80051a8:	f53f af7d 	bmi.w	80050a6 <_vfiprintf_r+0xee>
 80051ac:	9809      	ldr	r0, [sp, #36]	; 0x24
 80051ae:	e77c      	b.n	80050aa <_vfiprintf_r+0xf2>
 80051b0:	ab03      	add	r3, sp, #12
 80051b2:	9300      	str	r3, [sp, #0]
 80051b4:	4622      	mov	r2, r4
 80051b6:	4b0a      	ldr	r3, [pc, #40]	; (80051e0 <_vfiprintf_r+0x228>)
 80051b8:	a904      	add	r1, sp, #16
 80051ba:	4630      	mov	r0, r6
 80051bc:	f000 f88a 	bl	80052d4 <_printf_i>
 80051c0:	e7ec      	b.n	800519c <_vfiprintf_r+0x1e4>
 80051c2:	bf00      	nop
 80051c4:	08005db8 	.word	0x08005db8
 80051c8:	08005df8 	.word	0x08005df8
 80051cc:	08005dd8 	.word	0x08005dd8
 80051d0:	08005d98 	.word	0x08005d98
 80051d4:	08005dfe 	.word	0x08005dfe
 80051d8:	08005e02 	.word	0x08005e02
 80051dc:	00000000 	.word	0x00000000
 80051e0:	08004f95 	.word	0x08004f95

080051e4 <_printf_common>:
 80051e4:	e92d 47f0 	stmdb	sp!, {r4, r5, r6, r7, r8, r9, sl, lr}
 80051e8:	4691      	mov	r9, r2
 80051ea:	461f      	mov	r7, r3
 80051ec:	688a      	ldr	r2, [r1, #8]
 80051ee:	690b      	ldr	r3, [r1, #16]
 80051f0:	4606      	mov	r6, r0
 80051f2:	4293      	cmp	r3, r2
 80051f4:	bfb8      	it	lt
 80051f6:	4613      	movlt	r3, r2
 80051f8:	f8c9 3000 	str.w	r3, [r9]
 80051fc:	f891 2043 	ldrb.w	r2, [r1, #67]	; 0x43
 8005200:	460c      	mov	r4, r1
 8005202:	f8dd 8020 	ldr.w	r8, [sp, #32]
 8005206:	b112      	cbz	r2, 800520e <_printf_common+0x2a>
 8005208:	3301      	adds	r3, #1
 800520a:	f8c9 3000 	str.w	r3, [r9]
 800520e:	6823      	ldr	r3, [r4, #0]
 8005210:	0699      	lsls	r1, r3, #26
 8005212:	bf42      	ittt	mi
 8005214:	f8d9 3000 	ldrmi.w	r3, [r9]
 8005218:	3302      	addmi	r3, #2
 800521a:	f8c9 3000 	strmi.w	r3, [r9]
 800521e:	6825      	ldr	r5, [r4, #0]
 8005220:	f015 0506 	ands.w	r5, r5, #6
 8005224:	d107      	bne.n	8005236 <_printf_common+0x52>
 8005226:	f104 0a19 	add.w	sl, r4, #25
 800522a:	68e3      	ldr	r3, [r4, #12]
 800522c:	f8d9 2000 	ldr.w	r2, [r9]
 8005230:	1a9b      	subs	r3, r3, r2
 8005232:	429d      	cmp	r5, r3
 8005234:	db2a      	blt.n	800528c <_printf_common+0xa8>
 8005236:	f894 3043 	ldrb.w	r3, [r4, #67]	; 0x43
 800523a:	6822      	ldr	r2, [r4, #0]
 800523c:	3300      	adds	r3, #0
 800523e:	bf18      	it	ne
 8005240:	2301      	movne	r3, #1
 8005242:	0692      	lsls	r2, r2, #26
 8005244:	d42f      	bmi.n	80052a6 <_printf_common+0xc2>
 8005246:	f104 0243 	add.w	r2, r4, #67	; 0x43
 800524a:	4639      	mov	r1, r7
 800524c:	4630      	mov	r0, r6
 800524e:	47c0      	blx	r8
 8005250:	3001      	adds	r0, #1
 8005252:	d022      	beq.n	800529a <_printf_common+0xb6>
 8005254:	6823      	ldr	r3, [r4, #0]
 8005256:	68e5      	ldr	r5, [r4, #12]
 8005258:	f003 0306 	and.w	r3, r3, #6
 800525c:	2b04      	cmp	r3, #4
 800525e:	bf18      	it	ne
 8005260:	2500      	movne	r5, #0
 8005262:	f8d9 2000 	ldr.w	r2, [r9]
 8005266:	f04f 0900 	mov.w	r9, #0
 800526a:	bf08      	it	eq
 800526c:	1aad      	subeq	r5, r5, r2
 800526e:	68a3      	ldr	r3, [r4, #8]
 8005270:	6922      	ldr	r2, [r4, #16]
 8005272:	bf08      	it	eq
 8005274:	ea25 75e5 	biceq.w	r5, r5, r5, asr #31
 8005278:	4293      	cmp	r3, r2
 800527a:	bfc4      	itt	gt
 800527c:	1a9b      	subgt	r3, r3, r2
 800527e:	18ed      	addgt	r5, r5, r3
 8005280:	341a      	adds	r4, #26
 8005282:	454d      	cmp	r5, r9
 8005284:	d11b      	bne.n	80052be <_printf_common+0xda>
 8005286:	2000      	movs	r0, #0
 8005288:	e8bd 87f0 	ldmia.w	sp!, {r4, r5, r6, r7, r8, r9, sl, pc}
 800528c:	2301      	movs	r3, #1
 800528e:	4652      	mov	r2, sl
 8005290:	4639      	mov	r1, r7
 8005292:	4630      	mov	r0, r6
 8005294:	47c0      	blx	r8
 8005296:	3001      	adds	r0, #1
 8005298:	d103      	bne.n	80052a2 <_printf_common+0xbe>
 800529a:	f04f 30ff 	mov.w	r0, #4294967295
 800529e:	e8bd 87f0 	ldmia.w	sp!, {r4, r5, r6, r7, r8, r9, sl, pc}
 80052a2:	3501      	adds	r5, #1
 80052a4:	e7c1      	b.n	800522a <_printf_common+0x46>
 80052a6:	2030      	movs	r0, #48	; 0x30
 80052a8:	18e1      	adds	r1, r4, r3
 80052aa:	f881 0043 	strb.w	r0, [r1, #67]	; 0x43
 80052ae:	1c5a      	adds	r2, r3, #1
 80052b0:	f894 1045 	ldrb.w	r1, [r4, #69]	; 0x45
 80052b4:	4422      	add	r2, r4
 80052b6:	3302      	adds	r3, #2
 80052b8:	f882 1043 	strb.w	r1, [r2, #67]	; 0x43
 80052bc:	e7c3      	b.n	8005246 <_printf_common+0x62>
 80052be:	2301      	movs	r3, #1
 80052c0:	4622      	mov	r2, r4
 80052c2:	4639      	mov	r1, r7
 80052c4:	4630      	mov	r0, r6
 80052c6:	47c0      	blx	r8
 80052c8:	3001      	adds	r0, #1
 80052ca:	d0e6      	beq.n	800529a <_printf_common+0xb6>
 80052cc:	f109 0901 	add.w	r9, r9, #1
 80052d0:	e7d7      	b.n	8005282 <_printf_common+0x9e>
	...

080052d4 <_printf_i>:
 80052d4:	e92d 43f0 	stmdb	sp!, {r4, r5, r6, r7, r8, r9, lr}
 80052d8:	4617      	mov	r7, r2
 80052da:	7e0a      	ldrb	r2, [r1, #24]
 80052dc:	b085      	sub	sp, #20
 80052de:	2a6e      	cmp	r2, #110	; 0x6e
 80052e0:	4698      	mov	r8, r3
 80052e2:	4606      	mov	r6, r0
 80052e4:	460c      	mov	r4, r1
 80052e6:	9b0c      	ldr	r3, [sp, #48]	; 0x30
 80052e8:	f101 0e43 	add.w	lr, r1, #67	; 0x43
 80052ec:	f000 80bc 	beq.w	8005468 <_printf_i+0x194>
 80052f0:	d81a      	bhi.n	8005328 <_printf_i+0x54>
 80052f2:	2a63      	cmp	r2, #99	; 0x63
 80052f4:	d02e      	beq.n	8005354 <_printf_i+0x80>
 80052f6:	d80a      	bhi.n	800530e <_printf_i+0x3a>
 80052f8:	2a00      	cmp	r2, #0
 80052fa:	f000 80c8 	beq.w	800548e <_printf_i+0x1ba>
 80052fe:	2a58      	cmp	r2, #88	; 0x58
 8005300:	f000 808a 	beq.w	8005418 <_printf_i+0x144>
 8005304:	f104 0542 	add.w	r5, r4, #66	; 0x42
 8005308:	f884 2042 	strb.w	r2, [r4, #66]	; 0x42
 800530c:	e02a      	b.n	8005364 <_printf_i+0x90>
 800530e:	2a64      	cmp	r2, #100	; 0x64
 8005310:	d001      	beq.n	8005316 <_printf_i+0x42>
 8005312:	2a69      	cmp	r2, #105	; 0x69
 8005314:	d1f6      	bne.n	8005304 <_printf_i+0x30>
 8005316:	6821      	ldr	r1, [r4, #0]
 8005318:	681a      	ldr	r2, [r3, #0]
 800531a:	f011 0f80 	tst.w	r1, #128	; 0x80
 800531e:	d023      	beq.n	8005368 <_printf_i+0x94>
 8005320:	1d11      	adds	r1, r2, #4
 8005322:	6019      	str	r1, [r3, #0]
 8005324:	6813      	ldr	r3, [r2, #0]
 8005326:	e027      	b.n	8005378 <_printf_i+0xa4>
 8005328:	2a73      	cmp	r2, #115	; 0x73
 800532a:	f000 80b4 	beq.w	8005496 <_printf_i+0x1c2>
 800532e:	d808      	bhi.n	8005342 <_printf_i+0x6e>
 8005330:	2a6f      	cmp	r2, #111	; 0x6f
 8005332:	d02a      	beq.n	800538a <_printf_i+0xb6>
 8005334:	2a70      	cmp	r2, #112	; 0x70
 8005336:	d1e5      	bne.n	8005304 <_printf_i+0x30>
 8005338:	680a      	ldr	r2, [r1, #0]
 800533a:	f042 0220 	orr.w	r2, r2, #32
 800533e:	600a      	str	r2, [r1, #0]
 8005340:	e003      	b.n	800534a <_printf_i+0x76>
 8005342:	2a75      	cmp	r2, #117	; 0x75
 8005344:	d021      	beq.n	800538a <_printf_i+0xb6>
 8005346:	2a78      	cmp	r2, #120	; 0x78
 8005348:	d1dc      	bne.n	8005304 <_printf_i+0x30>
 800534a:	2278      	movs	r2, #120	; 0x78
 800534c:	496f      	ldr	r1, [pc, #444]	; (800550c <_printf_i+0x238>)
 800534e:	f884 2045 	strb.w	r2, [r4, #69]	; 0x45
 8005352:	e064      	b.n	800541e <_printf_i+0x14a>
 8005354:	681a      	ldr	r2, [r3, #0]
 8005356:	f101 0542 	add.w	r5, r1, #66	; 0x42
 800535a:	1d11      	adds	r1, r2, #4
 800535c:	6019      	str	r1, [r3, #0]
 800535e:	6813      	ldr	r3, [r2, #0]
 8005360:	f884 3042 	strb.w	r3, [r4, #66]	; 0x42
 8005364:	2301      	movs	r3, #1
 8005366:	e0a3      	b.n	80054b0 <_printf_i+0x1dc>
 8005368:	f011 0f40 	tst.w	r1, #64	; 0x40
 800536c:	f102 0104 	add.w	r1, r2, #4
 8005370:	6019      	str	r1, [r3, #0]
 8005372:	d0d7      	beq.n	8005324 <_printf_i+0x50>
 8005374:	f9b2 3000 	ldrsh.w	r3, [r2]
 8005378:	2b00      	cmp	r3, #0
 800537a:	da03      	bge.n	8005384 <_printf_i+0xb0>
 800537c:	222d      	movs	r2, #45	; 0x2d
 800537e:	425b      	negs	r3, r3
 8005380:	f884 2043 	strb.w	r2, [r4, #67]	; 0x43
 8005384:	4962      	ldr	r1, [pc, #392]	; (8005510 <_printf_i+0x23c>)
 8005386:	220a      	movs	r2, #10
 8005388:	e017      	b.n	80053ba <_printf_i+0xe6>
 800538a:	6820      	ldr	r0, [r4, #0]
 800538c:	6819      	ldr	r1, [r3, #0]
 800538e:	f010 0f80 	tst.w	r0, #128	; 0x80
 8005392:	d003      	beq.n	800539c <_printf_i+0xc8>
 8005394:	1d08      	adds	r0, r1, #4
 8005396:	6018      	str	r0, [r3, #0]
 8005398:	680b      	ldr	r3, [r1, #0]
 800539a:	e006      	b.n	80053aa <_printf_i+0xd6>
 800539c:	f010 0f40 	tst.w	r0, #64	; 0x40
 80053a0:	f101 0004 	add.w	r0, r1, #4
 80053a4:	6018      	str	r0, [r3, #0]
 80053a6:	d0f7      	beq.n	8005398 <_printf_i+0xc4>
 80053a8:	880b      	ldrh	r3, [r1, #0]
 80053aa:	2a6f      	cmp	r2, #111	; 0x6f
 80053ac:	bf14      	ite	ne
 80053ae:	220a      	movne	r2, #10
 80053b0:	2208      	moveq	r2, #8
 80053b2:	4957      	ldr	r1, [pc, #348]	; (8005510 <_printf_i+0x23c>)
 80053b4:	2000      	movs	r0, #0
 80053b6:	f884 0043 	strb.w	r0, [r4, #67]	; 0x43
 80053ba:	6865      	ldr	r5, [r4, #4]
 80053bc:	2d00      	cmp	r5, #0
 80053be:	60a5      	str	r5, [r4, #8]
 80053c0:	f2c0 809c 	blt.w	80054fc <_printf_i+0x228>
 80053c4:	6820      	ldr	r0, [r4, #0]
 80053c6:	f020 0004 	bic.w	r0, r0, #4
 80053ca:	6020      	str	r0, [r4, #0]
 80053cc:	2b00      	cmp	r3, #0
 80053ce:	d13f      	bne.n	8005450 <_printf_i+0x17c>
 80053d0:	2d00      	cmp	r5, #0
 80053d2:	f040 8095 	bne.w	8005500 <_printf_i+0x22c>
 80053d6:	4675      	mov	r5, lr
 80053d8:	2a08      	cmp	r2, #8
 80053da:	d10b      	bne.n	80053f4 <_printf_i+0x120>
 80053dc:	6823      	ldr	r3, [r4, #0]
 80053de:	07da      	lsls	r2, r3, #31
 80053e0:	d508      	bpl.n	80053f4 <_printf_i+0x120>
 80053e2:	6923      	ldr	r3, [r4, #16]
 80053e4:	6862      	ldr	r2, [r4, #4]
 80053e6:	429a      	cmp	r2, r3
 80053e8:	bfde      	ittt	le
 80053ea:	2330      	movle	r3, #48	; 0x30
 80053ec:	f805 3c01 	strble.w	r3, [r5, #-1]
 80053f0:	f105 35ff 	addle.w	r5, r5, #4294967295
 80053f4:	ebae 0305 	sub.w	r3, lr, r5
 80053f8:	6123      	str	r3, [r4, #16]
 80053fa:	f8cd 8000 	str.w	r8, [sp]
 80053fe:	463b      	mov	r3, r7
 8005400:	aa03      	add	r2, sp, #12
 8005402:	4621      	mov	r1, r4
 8005404:	4630      	mov	r0, r6
 8005406:	f7ff feed 	bl	80051e4 <_printf_common>
 800540a:	3001      	adds	r0, #1
 800540c:	d155      	bne.n	80054ba <_printf_i+0x1e6>
 800540e:	f04f 30ff 	mov.w	r0, #4294967295
 8005412:	b005      	add	sp, #20
 8005414:	e8bd 83f0 	ldmia.w	sp!, {r4, r5, r6, r7, r8, r9, pc}
 8005418:	f881 2045 	strb.w	r2, [r1, #69]	; 0x45
 800541c:	493c      	ldr	r1, [pc, #240]	; (8005510 <_printf_i+0x23c>)
 800541e:	6822      	ldr	r2, [r4, #0]
 8005420:	6818      	ldr	r0, [r3, #0]
 8005422:	f012 0f80 	tst.w	r2, #128	; 0x80
 8005426:	f100 0504 	add.w	r5, r0, #4
 800542a:	601d      	str	r5, [r3, #0]
 800542c:	d001      	beq.n	8005432 <_printf_i+0x15e>
 800542e:	6803      	ldr	r3, [r0, #0]
 8005430:	e002      	b.n	8005438 <_printf_i+0x164>
 8005432:	0655      	lsls	r5, r2, #25
 8005434:	d5fb      	bpl.n	800542e <_printf_i+0x15a>
 8005436:	8803      	ldrh	r3, [r0, #0]
 8005438:	07d0      	lsls	r0, r2, #31
 800543a:	bf44      	itt	mi
 800543c:	f042 0220 	orrmi.w	r2, r2, #32
 8005440:	6022      	strmi	r2, [r4, #0]
 8005442:	b91b      	cbnz	r3, 800544c <_printf_i+0x178>
 8005444:	6822      	ldr	r2, [r4, #0]
 8005446:	f022 0220 	bic.w	r2, r2, #32
 800544a:	6022      	str	r2, [r4, #0]
 800544c:	2210      	movs	r2, #16
 800544e:	e7b1      	b.n	80053b4 <_printf_i+0xe0>
 8005450:	4675      	mov	r5, lr
 8005452:	fbb3 f0f2 	udiv	r0, r3, r2
 8005456:	fb02 3310 	mls	r3, r2, r0, r3
 800545a:	5ccb      	ldrb	r3, [r1, r3]
 800545c:	f805 3d01 	strb.w	r3, [r5, #-1]!
 8005460:	4603      	mov	r3, r0
 8005462:	2800      	cmp	r0, #0
 8005464:	d1f5      	bne.n	8005452 <_printf_i+0x17e>
 8005466:	e7b7      	b.n	80053d8 <_printf_i+0x104>
 8005468:	6808      	ldr	r0, [r1, #0]
 800546a:	681a      	ldr	r2, [r3, #0]
 800546c:	f010 0f80 	tst.w	r0, #128	; 0x80
 8005470:	6949      	ldr	r1, [r1, #20]
 8005472:	d004      	beq.n	800547e <_printf_i+0x1aa>
 8005474:	1d10      	adds	r0, r2, #4
 8005476:	6018      	str	r0, [r3, #0]
 8005478:	6813      	ldr	r3, [r2, #0]
 800547a:	6019      	str	r1, [r3, #0]
 800547c:	e007      	b.n	800548e <_printf_i+0x1ba>
 800547e:	f010 0f40 	tst.w	r0, #64	; 0x40
 8005482:	f102 0004 	add.w	r0, r2, #4
 8005486:	6018      	str	r0, [r3, #0]
 8005488:	6813      	ldr	r3, [r2, #0]
 800548a:	d0f6      	beq.n	800547a <_printf_i+0x1a6>
 800548c:	8019      	strh	r1, [r3, #0]
 800548e:	2300      	movs	r3, #0
 8005490:	4675      	mov	r5, lr
 8005492:	6123      	str	r3, [r4, #16]
 8005494:	e7b1      	b.n	80053fa <_printf_i+0x126>
 8005496:	681a      	ldr	r2, [r3, #0]
 8005498:	1d11      	adds	r1, r2, #4
 800549a:	6019      	str	r1, [r3, #0]
 800549c:	6815      	ldr	r5, [r2, #0]
 800549e:	2100      	movs	r1, #0
 80054a0:	6862      	ldr	r2, [r4, #4]
 80054a2:	4628      	mov	r0, r5
 80054a4:	f000 f8e0 	bl	8005668 <memchr>
 80054a8:	b108      	cbz	r0, 80054ae <_printf_i+0x1da>
 80054aa:	1b40      	subs	r0, r0, r5
 80054ac:	6060      	str	r0, [r4, #4]
 80054ae:	6863      	ldr	r3, [r4, #4]
 80054b0:	6123      	str	r3, [r4, #16]
 80054b2:	2300      	movs	r3, #0
 80054b4:	f884 3043 	strb.w	r3, [r4, #67]	; 0x43
 80054b8:	e79f      	b.n	80053fa <_printf_i+0x126>
 80054ba:	6923      	ldr	r3, [r4, #16]
 80054bc:	462a      	mov	r2, r5
 80054be:	4639      	mov	r1, r7
 80054c0:	4630      	mov	r0, r6
 80054c2:	47c0      	blx	r8
 80054c4:	3001      	adds	r0, #1
 80054c6:	d0a2      	beq.n	800540e <_printf_i+0x13a>
 80054c8:	6823      	ldr	r3, [r4, #0]
 80054ca:	079b      	lsls	r3, r3, #30
 80054cc:	d507      	bpl.n	80054de <_printf_i+0x20a>
 80054ce:	2500      	movs	r5, #0
 80054d0:	f104 0919 	add.w	r9, r4, #25
 80054d4:	68e3      	ldr	r3, [r4, #12]
 80054d6:	9a03      	ldr	r2, [sp, #12]
 80054d8:	1a9b      	subs	r3, r3, r2
 80054da:	429d      	cmp	r5, r3
 80054dc:	db05      	blt.n	80054ea <_printf_i+0x216>
 80054de:	68e0      	ldr	r0, [r4, #12]
 80054e0:	9b03      	ldr	r3, [sp, #12]
 80054e2:	4298      	cmp	r0, r3
 80054e4:	bfb8      	it	lt
 80054e6:	4618      	movlt	r0, r3
 80054e8:	e793      	b.n	8005412 <_printf_i+0x13e>
 80054ea:	2301      	movs	r3, #1
 80054ec:	464a      	mov	r2, r9
 80054ee:	4639      	mov	r1, r7
 80054f0:	4630      	mov	r0, r6
 80054f2:	47c0      	blx	r8
 80054f4:	3001      	adds	r0, #1
 80054f6:	d08a      	beq.n	800540e <_printf_i+0x13a>
 80054f8:	3501      	adds	r5, #1
 80054fa:	e7eb      	b.n	80054d4 <_printf_i+0x200>
 80054fc:	2b00      	cmp	r3, #0
 80054fe:	d1a7      	bne.n	8005450 <_printf_i+0x17c>
 8005500:	780b      	ldrb	r3, [r1, #0]
 8005502:	f104 0542 	add.w	r5, r4, #66	; 0x42
 8005506:	f884 3042 	strb.w	r3, [r4, #66]	; 0x42
 800550a:	e765      	b.n	80053d8 <_printf_i+0x104>
 800550c:	08005e1a 	.word	0x08005e1a
 8005510:	08005e09 	.word	0x08005e09

08005514 <_sbrk_r>:
 8005514:	b538      	push	{r3, r4, r5, lr}
 8005516:	2300      	movs	r3, #0
 8005518:	4c05      	ldr	r4, [pc, #20]	; (8005530 <_sbrk_r+0x1c>)
 800551a:	4605      	mov	r5, r0
 800551c:	4608      	mov	r0, r1
 800551e:	6023      	str	r3, [r4, #0]
 8005520:	f7fe fd36 	bl	8003f90 <_sbrk>
 8005524:	1c43      	adds	r3, r0, #1
 8005526:	d102      	bne.n	800552e <_sbrk_r+0x1a>
 8005528:	6823      	ldr	r3, [r4, #0]
 800552a:	b103      	cbz	r3, 800552e <_sbrk_r+0x1a>
 800552c:	602b      	str	r3, [r5, #0]
 800552e:	bd38      	pop	{r3, r4, r5, pc}
 8005530:	20004574 	.word	0x20004574

08005534 <__sread>:
 8005534:	b510      	push	{r4, lr}
 8005536:	460c      	mov	r4, r1
 8005538:	f9b1 100e 	ldrsh.w	r1, [r1, #14]
 800553c:	f000 f8f0 	bl	8005720 <_read_r>
 8005540:	2800      	cmp	r0, #0
 8005542:	bfab      	itete	ge
 8005544:	6d63      	ldrge	r3, [r4, #84]	; 0x54
 8005546:	89a3      	ldrhlt	r3, [r4, #12]
 8005548:	181b      	addge	r3, r3, r0
 800554a:	f423 5380 	biclt.w	r3, r3, #4096	; 0x1000
 800554e:	bfac      	ite	ge
 8005550:	6563      	strge	r3, [r4, #84]	; 0x54
 8005552:	81a3      	strhlt	r3, [r4, #12]
 8005554:	bd10      	pop	{r4, pc}

08005556 <__swrite>:
 8005556:	e92d 41f0 	stmdb	sp!, {r4, r5, r6, r7, r8, lr}
 800555a:	461f      	mov	r7, r3
 800555c:	898b      	ldrh	r3, [r1, #12]
 800555e:	4605      	mov	r5, r0
 8005560:	05db      	lsls	r3, r3, #23
 8005562:	460c      	mov	r4, r1
 8005564:	4616      	mov	r6, r2
 8005566:	d505      	bpl.n	8005574 <__swrite+0x1e>
 8005568:	2302      	movs	r3, #2
 800556a:	2200      	movs	r2, #0
 800556c:	f9b1 100e 	ldrsh.w	r1, [r1, #14]
 8005570:	f000 f868 	bl	8005644 <_lseek_r>
 8005574:	89a3      	ldrh	r3, [r4, #12]
 8005576:	4632      	mov	r2, r6
 8005578:	f423 5380 	bic.w	r3, r3, #4096	; 0x1000
 800557c:	81a3      	strh	r3, [r4, #12]
 800557e:	f9b4 100e 	ldrsh.w	r1, [r4, #14]
 8005582:	463b      	mov	r3, r7
 8005584:	4628      	mov	r0, r5
 8005586:	e8bd 41f0 	ldmia.w	sp!, {r4, r5, r6, r7, r8, lr}
 800558a:	f000 b817 	b.w	80055bc <_write_r>

0800558e <__sseek>:
 800558e:	b510      	push	{r4, lr}
 8005590:	460c      	mov	r4, r1
 8005592:	f9b1 100e 	ldrsh.w	r1, [r1, #14]
 8005596:	f000 f855 	bl	8005644 <_lseek_r>
 800559a:	1c43      	adds	r3, r0, #1
 800559c:	89a3      	ldrh	r3, [r4, #12]
 800559e:	bf15      	itete	ne
 80055a0:	6560      	strne	r0, [r4, #84]	; 0x54
 80055a2:	f423 5380 	biceq.w	r3, r3, #4096	; 0x1000
 80055a6:	f443 5380 	orrne.w	r3, r3, #4096	; 0x1000
 80055aa:	81a3      	strheq	r3, [r4, #12]
 80055ac:	bf18      	it	ne
 80055ae:	81a3      	strhne	r3, [r4, #12]
 80055b0:	bd10      	pop	{r4, pc}

080055b2 <__sclose>:
 80055b2:	f9b1 100e 	ldrsh.w	r1, [r1, #14]
 80055b6:	f000 b813 	b.w	80055e0 <_close_r>
	...

080055bc <_write_r>:
 80055bc:	b538      	push	{r3, r4, r5, lr}
 80055be:	4605      	mov	r5, r0
 80055c0:	4608      	mov	r0, r1
 80055c2:	4611      	mov	r1, r2
 80055c4:	2200      	movs	r2, #0
 80055c6:	4c05      	ldr	r4, [pc, #20]	; (80055dc <_write_r+0x20>)
 80055c8:	6022      	str	r2, [r4, #0]
 80055ca:	461a      	mov	r2, r3
 80055cc:	f7fe f8ca 	bl	8003764 <_write>
 80055d0:	1c43      	adds	r3, r0, #1
 80055d2:	d102      	bne.n	80055da <_write_r+0x1e>
 80055d4:	6823      	ldr	r3, [r4, #0]
 80055d6:	b103      	cbz	r3, 80055da <_write_r+0x1e>
 80055d8:	602b      	str	r3, [r5, #0]
 80055da:	bd38      	pop	{r3, r4, r5, pc}
 80055dc:	20004574 	.word	0x20004574

080055e0 <_close_r>:
 80055e0:	b538      	push	{r3, r4, r5, lr}
 80055e2:	2300      	movs	r3, #0
 80055e4:	4c05      	ldr	r4, [pc, #20]	; (80055fc <_close_r+0x1c>)
 80055e6:	4605      	mov	r5, r0
 80055e8:	4608      	mov	r0, r1
 80055ea:	6023      	str	r3, [r4, #0]
 80055ec:	f7fe fcea 	bl	8003fc4 <_close>
 80055f0:	1c43      	adds	r3, r0, #1
 80055f2:	d102      	bne.n	80055fa <_close_r+0x1a>
 80055f4:	6823      	ldr	r3, [r4, #0]
 80055f6:	b103      	cbz	r3, 80055fa <_close_r+0x1a>
 80055f8:	602b      	str	r3, [r5, #0]
 80055fa:	bd38      	pop	{r3, r4, r5, pc}
 80055fc:	20004574 	.word	0x20004574

08005600 <_fstat_r>:
 8005600:	b538      	push	{r3, r4, r5, lr}
 8005602:	2300      	movs	r3, #0
 8005604:	4c06      	ldr	r4, [pc, #24]	; (8005620 <_fstat_r+0x20>)
 8005606:	4605      	mov	r5, r0
 8005608:	4608      	mov	r0, r1
 800560a:	4611      	mov	r1, r2
 800560c:	6023      	str	r3, [r4, #0]
 800560e:	f7fe fcdc 	bl	8003fca <_fstat>
 8005612:	1c43      	adds	r3, r0, #1
 8005614:	d102      	bne.n	800561c <_fstat_r+0x1c>
 8005616:	6823      	ldr	r3, [r4, #0]
 8005618:	b103      	cbz	r3, 800561c <_fstat_r+0x1c>
 800561a:	602b      	str	r3, [r5, #0]
 800561c:	bd38      	pop	{r3, r4, r5, pc}
 800561e:	bf00      	nop
 8005620:	20004574 	.word	0x20004574

08005624 <_isatty_r>:
 8005624:	b538      	push	{r3, r4, r5, lr}
 8005626:	2300      	movs	r3, #0
 8005628:	4c05      	ldr	r4, [pc, #20]	; (8005640 <_isatty_r+0x1c>)
 800562a:	4605      	mov	r5, r0
 800562c:	4608      	mov	r0, r1
 800562e:	6023      	str	r3, [r4, #0]
 8005630:	f7fe fcd0 	bl	8003fd4 <_isatty>
 8005634:	1c43      	adds	r3, r0, #1
 8005636:	d102      	bne.n	800563e <_isatty_r+0x1a>
 8005638:	6823      	ldr	r3, [r4, #0]
 800563a:	b103      	cbz	r3, 800563e <_isatty_r+0x1a>
 800563c:	602b      	str	r3, [r5, #0]
 800563e:	bd38      	pop	{r3, r4, r5, pc}
 8005640:	20004574 	.word	0x20004574

08005644 <_lseek_r>:
 8005644:	b538      	push	{r3, r4, r5, lr}
 8005646:	4605      	mov	r5, r0
 8005648:	4608      	mov	r0, r1
 800564a:	4611      	mov	r1, r2
 800564c:	2200      	movs	r2, #0
 800564e:	4c05      	ldr	r4, [pc, #20]	; (8005664 <_lseek_r+0x20>)
 8005650:	6022      	str	r2, [r4, #0]
 8005652:	461a      	mov	r2, r3
 8005654:	f7fe fcc0 	bl	8003fd8 <_lseek>
 8005658:	1c43      	adds	r3, r0, #1
 800565a:	d102      	bne.n	8005662 <_lseek_r+0x1e>
 800565c:	6823      	ldr	r3, [r4, #0]
 800565e:	b103      	cbz	r3, 8005662 <_lseek_r+0x1e>
 8005660:	602b      	str	r3, [r5, #0]
 8005662:	bd38      	pop	{r3, r4, r5, pc}
 8005664:	20004574 	.word	0x20004574

08005668 <memchr>:
 8005668:	b510      	push	{r4, lr}
 800566a:	b2c9      	uxtb	r1, r1
 800566c:	4402      	add	r2, r0
 800566e:	4290      	cmp	r0, r2
 8005670:	4603      	mov	r3, r0
 8005672:	d101      	bne.n	8005678 <memchr+0x10>
 8005674:	2000      	movs	r0, #0
 8005676:	bd10      	pop	{r4, pc}
 8005678:	781c      	ldrb	r4, [r3, #0]
 800567a:	3001      	adds	r0, #1
 800567c:	428c      	cmp	r4, r1
 800567e:	d1f6      	bne.n	800566e <memchr+0x6>
 8005680:	4618      	mov	r0, r3
 8005682:	bd10      	pop	{r4, pc}

08005684 <memcpy>:
 8005684:	b510      	push	{r4, lr}
 8005686:	1e43      	subs	r3, r0, #1
 8005688:	440a      	add	r2, r1
 800568a:	4291      	cmp	r1, r2
 800568c:	d100      	bne.n	8005690 <memcpy+0xc>
 800568e:	bd10      	pop	{r4, pc}
 8005690:	f811 4b01 	ldrb.w	r4, [r1], #1
 8005694:	f803 4f01 	strb.w	r4, [r3, #1]!
 8005698:	e7f7      	b.n	800568a <memcpy+0x6>

0800569a <memmove>:
 800569a:	4288      	cmp	r0, r1
 800569c:	b510      	push	{r4, lr}
 800569e:	eb01 0302 	add.w	r3, r1, r2
 80056a2:	d803      	bhi.n	80056ac <memmove+0x12>
 80056a4:	1e42      	subs	r2, r0, #1
 80056a6:	4299      	cmp	r1, r3
 80056a8:	d10c      	bne.n	80056c4 <memmove+0x2a>
 80056aa:	bd10      	pop	{r4, pc}
 80056ac:	4298      	cmp	r0, r3
 80056ae:	d2f9      	bcs.n	80056a4 <memmove+0xa>
 80056b0:	1881      	adds	r1, r0, r2
 80056b2:	1ad2      	subs	r2, r2, r3
 80056b4:	42d3      	cmn	r3, r2
 80056b6:	d100      	bne.n	80056ba <memmove+0x20>
 80056b8:	bd10      	pop	{r4, pc}
 80056ba:	f813 4d01 	ldrb.w	r4, [r3, #-1]!
 80056be:	f801 4d01 	strb.w	r4, [r1, #-1]!
 80056c2:	e7f7      	b.n	80056b4 <memmove+0x1a>
 80056c4:	f811 4b01 	ldrb.w	r4, [r1], #1
 80056c8:	f802 4f01 	strb.w	r4, [r2, #1]!
 80056cc:	e7eb      	b.n	80056a6 <memmove+0xc>

080056ce <__malloc_lock>:
 80056ce:	4770      	bx	lr

080056d0 <__malloc_unlock>:
 80056d0:	4770      	bx	lr

080056d2 <_realloc_r>:
 80056d2:	b5f8      	push	{r3, r4, r5, r6, r7, lr}
 80056d4:	4607      	mov	r7, r0
 80056d6:	4614      	mov	r4, r2
 80056d8:	460e      	mov	r6, r1
 80056da:	b921      	cbnz	r1, 80056e6 <_realloc_r+0x14>
 80056dc:	4611      	mov	r1, r2
 80056de:	e8bd 40f8 	ldmia.w	sp!, {r3, r4, r5, r6, r7, lr}
 80056e2:	f7ff ba93 	b.w	8004c0c <_malloc_r>
 80056e6:	b922      	cbnz	r2, 80056f2 <_realloc_r+0x20>
 80056e8:	f7ff fa44 	bl	8004b74 <_free_r>
 80056ec:	4625      	mov	r5, r4
 80056ee:	4628      	mov	r0, r5
 80056f0:	bdf8      	pop	{r3, r4, r5, r6, r7, pc}
 80056f2:	f000 f827 	bl	8005744 <_malloc_usable_size_r>
 80056f6:	4284      	cmp	r4, r0
 80056f8:	d90f      	bls.n	800571a <_realloc_r+0x48>
 80056fa:	4621      	mov	r1, r4
 80056fc:	4638      	mov	r0, r7
 80056fe:	f7ff fa85 	bl	8004c0c <_malloc_r>
 8005702:	4605      	mov	r5, r0
 8005704:	2800      	cmp	r0, #0
 8005706:	d0f2      	beq.n	80056ee <_realloc_r+0x1c>
 8005708:	4631      	mov	r1, r6
 800570a:	4622      	mov	r2, r4
 800570c:	f7ff ffba 	bl	8005684 <memcpy>
 8005710:	4631      	mov	r1, r6
 8005712:	4638      	mov	r0, r7
 8005714:	f7ff fa2e 	bl	8004b74 <_free_r>
 8005718:	e7e9      	b.n	80056ee <_realloc_r+0x1c>
 800571a:	4635      	mov	r5, r6
 800571c:	e7e7      	b.n	80056ee <_realloc_r+0x1c>
	...

08005720 <_read_r>:
 8005720:	b538      	push	{r3, r4, r5, lr}
 8005722:	4605      	mov	r5, r0
 8005724:	4608      	mov	r0, r1
 8005726:	4611      	mov	r1, r2
 8005728:	2200      	movs	r2, #0
 800572a:	4c05      	ldr	r4, [pc, #20]	; (8005740 <_read_r+0x20>)
 800572c:	6022      	str	r2, [r4, #0]
 800572e:	461a      	mov	r2, r3
 8005730:	f7fe fc20 	bl	8003f74 <_read>
 8005734:	1c43      	adds	r3, r0, #1
 8005736:	d102      	bne.n	800573e <_read_r+0x1e>
 8005738:	6823      	ldr	r3, [r4, #0]
 800573a:	b103      	cbz	r3, 800573e <_read_r+0x1e>
 800573c:	602b      	str	r3, [r5, #0]
 800573e:	bd38      	pop	{r3, r4, r5, pc}
 8005740:	20004574 	.word	0x20004574

08005744 <_malloc_usable_size_r>:
 8005744:	f851 0c04 	ldr.w	r0, [r1, #-4]
 8005748:	2800      	cmp	r0, #0
 800574a:	f1a0 0004 	sub.w	r0, r0, #4
 800574e:	bfbc      	itt	lt
 8005750:	580b      	ldrlt	r3, [r1, r0]
 8005752:	18c0      	addlt	r0, r0, r3
 8005754:	4770      	bx	lr
	...

08005758 <_init>:
 8005758:	b5f8      	push	{r3, r4, r5, r6, r7, lr}
 800575a:	bf00      	nop
 800575c:	bcf8      	pop	{r3, r4, r5, r6, r7}
 800575e:	bc08      	pop	{r3}
 8005760:	469e      	mov	lr, r3
 8005762:	4770      	bx	lr

08005764 <_fini>:
 8005764:	b5f8      	push	{r3, r4, r5, r6, r7, lr}
 8005766:	bf00      	nop
 8005768:	bcf8      	pop	{r3, r4, r5, r6, r7}
 800576a:	bc08      	pop	{r3}
 800576c:	469e      	mov	lr, r3
 800576e:	4770      	bx	lr
